
Practica4_ParteB.elf:     file format elf32-littlearm

Sections:
Idx Name          Size      VMA       LMA       File off  Algn
  0 .text         0000a4cc  0c000000  0c000000  00008000  2**3
                  CONTENTS, ALLOC, LOAD, READONLY, CODE
  1 .data         00000954  0c00a4d0  0c00a4d0  000124d0  2**3
                  CONTENTS, ALLOC, LOAD, DATA
  2 .rodata       00000170  0c00ae28  0c00ae28  00012e28  2**3
                  CONTENTS, ALLOC, LOAD, READONLY, DATA
  3 .rodata.str1.4 00000064  0c00af98  0c00af98  00012f98  2**2
                  CONTENTS, ALLOC, LOAD, READONLY, DATA
  4 .ARM.exidx    00000008  0c00affc  0c00affc  00012ffc  2**2
                  CONTENTS, ALLOC, LOAD, READONLY, DATA
  5 .bss          0000015c  0c00b004  0c00b004  00013004  2**2
                  ALLOC
  6 .ARM.attributes 0000002c  00000000  00000000  00013004  2**0
                  CONTENTS, READONLY
  7 .comment      0000003b  00000000  00000000  00013030  2**0
                  CONTENTS, READONLY
  8 .debug_info   00000a2a  00000000  00000000  0001306b  2**0
                  CONTENTS, READONLY, DEBUGGING
  9 .debug_line   00000d18  00000000  00000000  00013a95  2**0
                  CONTENTS, READONLY, DEBUGGING
 10 .debug_abbrev 000005eb  00000000  00000000  000147ad  2**0
                  CONTENTS, READONLY, DEBUGGING
 11 .debug_frame  00000ccc  00000000  00000000  00014d98  2**2
                  CONTENTS, READONLY, DEBUGGING
 12 .debug_aranges 00000120  00000000  00000000  00015a68  2**3
                  CONTENTS, READONLY, DEBUGGING
 13 .debug_macinfo 00029c9b  00000000  00000000  00015b88  2**0
                  CONTENTS, READONLY, DEBUGGING
 14 .debug_loc    000005cd  00000000  00000000  0003f823  2**0
                  CONTENTS, READONLY, DEBUGGING
 15 .debug_pubnames 000002fe  00000000  00000000  0003fdf0  2**0
                  CONTENTS, READONLY, DEBUGGING
 16 .debug_pubtypes 00000051  00000000  00000000  000400ee  2**0
                  CONTENTS, READONLY, DEBUGGING
 17 .debug_str    000003df  00000000  00000000  0004013f  2**0
                  CONTENTS, READONLY, DEBUGGING

Disassembly of section .text:

0c000000 <ENTRY>:
    .extern Main			/* The main entry of mon program */
    
    .text

    ENTRY:
    b ResetHandler			/* for debug            */
 c000000:	ea00010a 	b	c000430 <ResetHandler>
    b HandlerUndef      	/* handlerUndef         */
 c000004:	ea000042 	b	c000114 <HandlerUndef>
    b HandlerSWI        	/* SWI interrupt handler*/
 c000008:	ea000047 	b	c00012c <HandlerSWI>
    b HandlerPabort     	/* handlerPAbort        */
 c00000c:	ea000052 	b	c00015c <HandlerPabort>
    b HandlerDabort     	/* handlerDAbort        */
 c000010:	ea00004b 	b	c000144 <HandlerDabort>
    b .                 	/* handlerReserved      */
 c000014:	eafffffe 	b	c000014 <ENTRY+0x14>
    b HandlerIRQ
 c000018:	ea000037 	b	c0000fc <HandlerIRQ>
    b HandlerFIQ
 c00001c:	ea000030 	b	c0000e4 <HandlerFIQ>

0c000020 <VECTOR_BRANCH>:
	#be changed like below, to work-around with H/W bug of S3C44B0X interrupt controller. 
	# b HandlerIRQ  ->  subs pc,lr,#4
	# b HandlerIRQ  ->  subs pc,lr,#4

VECTOR_BRANCH:
    ldr pc,=HandlerEINT0    /*mGA    H/W interrupt vector table  */
 c000020:	e59ff570 	ldr	pc, [pc, #1392]	; c000598 <U0+0x14>
    ldr pc,=HandlerEINT1    /*	                                 */	
 c000024:	e59ff570 	ldr	pc, [pc, #1392]	; c00059c <U0+0x18>
    ldr pc,=HandlerEINT2    /*                                   */  
 c000028:	e59ff570 	ldr	pc, [pc, #1392]	; c0005a0 <U0+0x1c>
    ldr pc,=HandlerEINT3    /*                                   */  
 c00002c:	e59ff570 	ldr	pc, [pc, #1392]	; c0005a4 <U0+0x20>
    ldr pc,=HandlerEINT4567 /*                                   */  
 c000030:	e59ff570 	ldr	pc, [pc, #1392]	; c0005a8 <U0+0x24>
    ldr pc,=HandlerTICK	    /*mGA                                */   
 c000034:	e59ff570 	ldr	pc, [pc, #1392]	; c0005ac <U0+0x28>
    b .                                                          
 c000038:	eafffffe 	b	c000038 <VECTOR_BRANCH+0x18>
    b .                                                         
 c00003c:	eafffffe 	b	c00003c <VECTOR_BRANCH+0x1c>
    ldr pc,=HandlerZDMA0    /*mGB                                */  
 c000040:	e59ff568 	ldr	pc, [pc, #1384]	; c0005b0 <U0+0x2c>
    ldr pc,=HandlerZDMA1    /*                                   */  
 c000044:	e59ff568 	ldr	pc, [pc, #1384]	; c0005b4 <U0+0x30>
    ldr pc,=HandlerBDMA0    /*                                   */  
 c000048:	e59ff568 	ldr	pc, [pc, #1384]	; c0005b8 <U0+0x34>
    ldr pc,=HandlerBDMA1    /*                                   */  
 c00004c:	e59ff568 	ldr	pc, [pc, #1384]	; c0005bc <U0+0x38>
    ldr pc,=HandlerWDT	    /*                                   */   
 c000050:	e59ff568 	ldr	pc, [pc, #1384]	; c0005c0 <U0+0x3c>
    ldr pc,=HandlerUERR01   /*mGB                                */  
 c000054:	e59ff568 	ldr	pc, [pc, #1384]	; c0005c4 <U0+0x40>
    b .                                                          
 c000058:	eafffffe 	b	c000058 <VECTOR_BRANCH+0x38>
    b .                                                          
 c00005c:	eafffffe 	b	c00005c <VECTOR_BRANCH+0x3c>
    ldr pc,=HandlerTIMER0   /*mGC                                */  
 c000060:	e59ff560 	ldr	pc, [pc, #1376]	; c0005c8 <U0+0x44>
    ldr pc,=HandlerTIMER1   /*                                   */  
 c000064:	e59ff560 	ldr	pc, [pc, #1376]	; c0005cc <U0+0x48>
    ldr pc,=HandlerTIMER2   /*                                   */  
 c000068:	e59ff560 	ldr	pc, [pc, #1376]	; c0005d0 <U0+0x4c>
    ldr pc,=HandlerTIMER3   /*                                   */  
 c00006c:	e59ff560 	ldr	pc, [pc, #1376]	; c0005d4 <U0+0x50>
    ldr pc,=HandlerTIMER4   /*                                   */  
 c000070:	e59ff560 	ldr	pc, [pc, #1376]	; c0005d8 <U0+0x54>
    ldr pc,=HandlerTIMER5   /*mGC                                */  
 c000074:	e59ff560 	ldr	pc, [pc, #1376]	; c0005dc <U0+0x58>
    b .                                                          
 c000078:	eafffffe 	b	c000078 <VECTOR_BRANCH+0x58>
    b .                                                          
 c00007c:	eafffffe 	b	c00007c <VECTOR_BRANCH+0x5c>
    ldr pc,=HandlerURXD0    /*mGD                                */  
 c000080:	e59ff558 	ldr	pc, [pc, #1368]	; c0005e0 <U0+0x5c>
    ldr pc,=HandlerURXD1    /*                                   */  
 c000084:	e59ff558 	ldr	pc, [pc, #1368]	; c0005e4 <U0+0x60>
    ldr pc,=HandlerIIC	    /*                                   */   
 c000088:	e59ff558 	ldr	pc, [pc, #1368]	; c0005e8 <U0+0x64>
    ldr pc,=HandlerSIO	    /*                                   */   
 c00008c:	e59ff558 	ldr	pc, [pc, #1368]	; c0005ec <U0+0x68>
    ldr pc,=HandlerUTXD0    /*                                   */  
 c000090:	e59ff558 	ldr	pc, [pc, #1368]	; c0005f0 <U0+0x6c>
    ldr pc,=HandlerUTXD1    /*mGD                                */  
 c000094:	e59ff558 	ldr	pc, [pc, #1368]	; c0005f4 <U0+0x70>
    b .                                                          
 c000098:	eafffffe 	b	c000098 <VECTOR_BRANCH+0x78>
    b .                                                          
 c00009c:	eafffffe 	b	c00009c <VECTOR_BRANCH+0x7c>
    ldr pc,=HandlerRTC	    /*mGKA                               */   
 c0000a0:	e59ff550 	ldr	pc, [pc, #1360]	; c0005f8 <U0+0x74>
    b .					    /*                     		         */
 c0000a4:	eafffffe 	b	c0000a4 <VECTOR_BRANCH+0x84>
    b .					    /*                     		         */
 c0000a8:	eafffffe 	b	c0000a8 <VECTOR_BRANCH+0x88>
    b .					    /*                     		         */
 c0000ac:	eafffffe 	b	c0000ac <VECTOR_BRANCH+0x8c>
    b .					    /*                     		         */
 c0000b0:	eafffffe 	b	c0000b0 <VECTOR_BRANCH+0x90>
    b .					    /*mGKA                 			     */
 c0000b4:	eafffffe 	b	c0000b4 <VECTOR_BRANCH+0x94>
    b .                                                          
 c0000b8:	eafffffe 	b	c0000b8 <VECTOR_BRANCH+0x98>
    b .                                                          
 c0000bc:	eafffffe 	b	c0000bc <VECTOR_BRANCH+0x9c>
    ldr pc,=HandlerADC	    /*mGKB                               */  
 c0000c0:	e59ff534 	ldr	pc, [pc, #1332]	; c0005fc <U0+0x78>
    b .					    /*                     		         */
 c0000c4:	eafffffe 	b	c0000c4 <VECTOR_BRANCH+0xa4>
    b .					    /*                     		         */
 c0000c8:	eafffffe 	b	c0000c8 <VECTOR_BRANCH+0xa8>
    b .					    /*                     		         */
 c0000cc:	eafffffe 	b	c0000cc <VECTOR_BRANCH+0xac>
    b .					    /*                     		         */
 c0000d0:	eafffffe 	b	c0000d0 <VECTOR_BRANCH+0xb0>
    b .					    /*mGKB                 		         */
 c0000d4:	eafffffe 	b	c0000d4 <VECTOR_BRANCH+0xb4>
    b .                                                          
 c0000d8:	eafffffe 	b	c0000d8 <VECTOR_BRANCH+0xb8>
    b .                                                          
 c0000dc:	eafffffe 	b	c0000dc <VECTOR_BRANCH+0xbc>
@0xe0=EnterPWDN                                                 
    ldr pc,=EnterPWDN
 c0000e0:	e59ff518 	ldr	pc, [pc, #1304]	; c000600 <U0+0x7c>

0c0000e4 <HandlerFIQ>:
               to be dumped into the current section\ 
               (which is assumed to be the .text section)\ 
               at the current location (aligned to a word boundary).*/
   .align

HandlerFIQ:		HANDLER HandleFIQ
 c0000e4:	e24dd004 	sub	sp, sp, #4
 c0000e8:	e52d0004 	push	{r0}		; (str r0, [sp, #-4]!)
 c0000ec:	e59f0510 	ldr	r0, [pc, #1296]	; c000604 <U0+0x80>
 c0000f0:	e5900000 	ldr	r0, [r0]
 c0000f4:	e58d0004 	str	r0, [sp, #4]
 c0000f8:	e8bd8001 	pop	{r0, pc}

0c0000fc <HandlerIRQ>:
HandlerIRQ:		HANDLER HandleIRQ
 c0000fc:	e24dd004 	sub	sp, sp, #4
 c000100:	e52d0004 	push	{r0}		; (str r0, [sp, #-4]!)
 c000104:	e59f04fc 	ldr	r0, [pc, #1276]	; c000608 <U0+0x84>
 c000108:	e5900000 	ldr	r0, [r0]
 c00010c:	e58d0004 	str	r0, [sp, #4]
 c000110:	e8bd8001 	pop	{r0, pc}

0c000114 <HandlerUndef>:
HandlerUndef:	HANDLER HandleUndef
 c000114:	e24dd004 	sub	sp, sp, #4
 c000118:	e52d0004 	push	{r0}		; (str r0, [sp, #-4]!)
 c00011c:	e59f04e8 	ldr	r0, [pc, #1256]	; c00060c <U0+0x88>
 c000120:	e5900000 	ldr	r0, [r0]
 c000124:	e58d0004 	str	r0, [sp, #4]
 c000128:	e8bd8001 	pop	{r0, pc}

0c00012c <HandlerSWI>:
HandlerSWI:		HANDLER HandleSWI
 c00012c:	e24dd004 	sub	sp, sp, #4
 c000130:	e52d0004 	push	{r0}		; (str r0, [sp, #-4]!)
 c000134:	e59f04d4 	ldr	r0, [pc, #1236]	; c000610 <U0+0x8c>
 c000138:	e5900000 	ldr	r0, [r0]
 c00013c:	e58d0004 	str	r0, [sp, #4]
 c000140:	e8bd8001 	pop	{r0, pc}

0c000144 <HandlerDabort>:
HandlerDabort:	HANDLER HandleDabort
 c000144:	e24dd004 	sub	sp, sp, #4
 c000148:	e52d0004 	push	{r0}		; (str r0, [sp, #-4]!)
 c00014c:	e59f04c0 	ldr	r0, [pc, #1216]	; c000614 <U0+0x90>
 c000150:	e5900000 	ldr	r0, [r0]
 c000154:	e58d0004 	str	r0, [sp, #4]
 c000158:	e8bd8001 	pop	{r0, pc}

0c00015c <HandlerPabort>:
HandlerPabort:	HANDLER HandlePabort
 c00015c:	e24dd004 	sub	sp, sp, #4
 c000160:	e52d0004 	push	{r0}		; (str r0, [sp, #-4]!)
 c000164:	e59f04ac 	ldr	r0, [pc, #1196]	; c000618 <U0+0x94>
 c000168:	e5900000 	ldr	r0, [r0]
 c00016c:	e58d0004 	str	r0, [sp, #4]
 c000170:	e8bd8001 	pop	{r0, pc}

0c000174 <HandlerADC>:
HandlerADC:		HANDLER HandleADC
 c000174:	e24dd004 	sub	sp, sp, #4
 c000178:	e52d0004 	push	{r0}		; (str r0, [sp, #-4]!)
 c00017c:	e59f0498 	ldr	r0, [pc, #1176]	; c00061c <U0+0x98>
 c000180:	e5900000 	ldr	r0, [r0]
 c000184:	e58d0004 	str	r0, [sp, #4]
 c000188:	e8bd8001 	pop	{r0, pc}

0c00018c <HandlerRTC>:
HandlerRTC:		HANDLER HandleRTC
 c00018c:	e24dd004 	sub	sp, sp, #4
 c000190:	e52d0004 	push	{r0}		; (str r0, [sp, #-4]!)
 c000194:	e59f0484 	ldr	r0, [pc, #1156]	; c000620 <U0+0x9c>
 c000198:	e5900000 	ldr	r0, [r0]
 c00019c:	e58d0004 	str	r0, [sp, #4]
 c0001a0:	e8bd8001 	pop	{r0, pc}

0c0001a4 <HandlerUTXD1>:
HandlerUTXD1:	HANDLER HandleUTXD1
 c0001a4:	e24dd004 	sub	sp, sp, #4
 c0001a8:	e52d0004 	push	{r0}		; (str r0, [sp, #-4]!)
 c0001ac:	e59f0470 	ldr	r0, [pc, #1136]	; c000624 <U0+0xa0>
 c0001b0:	e5900000 	ldr	r0, [r0]
 c0001b4:	e58d0004 	str	r0, [sp, #4]
 c0001b8:	e8bd8001 	pop	{r0, pc}

0c0001bc <HandlerUTXD0>:
HandlerUTXD0:	HANDLER HandleUTXD0
 c0001bc:	e24dd004 	sub	sp, sp, #4
 c0001c0:	e52d0004 	push	{r0}		; (str r0, [sp, #-4]!)
 c0001c4:	e59f045c 	ldr	r0, [pc, #1116]	; c000628 <U0+0xa4>
 c0001c8:	e5900000 	ldr	r0, [r0]
 c0001cc:	e58d0004 	str	r0, [sp, #4]
 c0001d0:	e8bd8001 	pop	{r0, pc}

0c0001d4 <HandlerSIO>:
HandlerSIO:		HANDLER HandleSIO
 c0001d4:	e24dd004 	sub	sp, sp, #4
 c0001d8:	e52d0004 	push	{r0}		; (str r0, [sp, #-4]!)
 c0001dc:	e59f0448 	ldr	r0, [pc, #1096]	; c00062c <U0+0xa8>
 c0001e0:	e5900000 	ldr	r0, [r0]
 c0001e4:	e58d0004 	str	r0, [sp, #4]
 c0001e8:	e8bd8001 	pop	{r0, pc}

0c0001ec <HandlerIIC>:
HandlerIIC:		HANDLER HandleIIC
 c0001ec:	e24dd004 	sub	sp, sp, #4
 c0001f0:	e52d0004 	push	{r0}		; (str r0, [sp, #-4]!)
 c0001f4:	e59f0434 	ldr	r0, [pc, #1076]	; c000630 <U0+0xac>
 c0001f8:	e5900000 	ldr	r0, [r0]
 c0001fc:	e58d0004 	str	r0, [sp, #4]
 c000200:	e8bd8001 	pop	{r0, pc}

0c000204 <HandlerURXD1>:
HandlerURXD1:	HANDLER HandleURXD1
 c000204:	e24dd004 	sub	sp, sp, #4
 c000208:	e52d0004 	push	{r0}		; (str r0, [sp, #-4]!)
 c00020c:	e59f0420 	ldr	r0, [pc, #1056]	; c000634 <U0+0xb0>
 c000210:	e5900000 	ldr	r0, [r0]
 c000214:	e58d0004 	str	r0, [sp, #4]
 c000218:	e8bd8001 	pop	{r0, pc}

0c00021c <HandlerURXD0>:
HandlerURXD0:	HANDLER HandleURXD0
 c00021c:	e24dd004 	sub	sp, sp, #4
 c000220:	e52d0004 	push	{r0}		; (str r0, [sp, #-4]!)
 c000224:	e59f040c 	ldr	r0, [pc, #1036]	; c000638 <U0+0xb4>
 c000228:	e5900000 	ldr	r0, [r0]
 c00022c:	e58d0004 	str	r0, [sp, #4]
 c000230:	e8bd8001 	pop	{r0, pc}

0c000234 <HandlerTIMER5>:
HandlerTIMER5:	HANDLER HandleTIMER5
 c000234:	e24dd004 	sub	sp, sp, #4
 c000238:	e52d0004 	push	{r0}		; (str r0, [sp, #-4]!)
 c00023c:	e59f03f8 	ldr	r0, [pc, #1016]	; c00063c <U0+0xb8>
 c000240:	e5900000 	ldr	r0, [r0]
 c000244:	e58d0004 	str	r0, [sp, #4]
 c000248:	e8bd8001 	pop	{r0, pc}

0c00024c <HandlerTIMER4>:
HandlerTIMER4:	HANDLER HandleTIMER4
 c00024c:	e24dd004 	sub	sp, sp, #4
 c000250:	e52d0004 	push	{r0}		; (str r0, [sp, #-4]!)
 c000254:	e59f03e4 	ldr	r0, [pc, #996]	; c000640 <U0+0xbc>
 c000258:	e5900000 	ldr	r0, [r0]
 c00025c:	e58d0004 	str	r0, [sp, #4]
 c000260:	e8bd8001 	pop	{r0, pc}

0c000264 <HandlerTIMER3>:
HandlerTIMER3:	HANDLER HandleTIMER3
 c000264:	e24dd004 	sub	sp, sp, #4
 c000268:	e52d0004 	push	{r0}		; (str r0, [sp, #-4]!)
 c00026c:	e59f03d0 	ldr	r0, [pc, #976]	; c000644 <U0+0xc0>
 c000270:	e5900000 	ldr	r0, [r0]
 c000274:	e58d0004 	str	r0, [sp, #4]
 c000278:	e8bd8001 	pop	{r0, pc}

0c00027c <HandlerTIMER2>:
HandlerTIMER2:	HANDLER HandleTIMER2
 c00027c:	e24dd004 	sub	sp, sp, #4
 c000280:	e52d0004 	push	{r0}		; (str r0, [sp, #-4]!)
 c000284:	e59f03bc 	ldr	r0, [pc, #956]	; c000648 <U0+0xc4>
 c000288:	e5900000 	ldr	r0, [r0]
 c00028c:	e58d0004 	str	r0, [sp, #4]
 c000290:	e8bd8001 	pop	{r0, pc}

0c000294 <HandlerTIMER1>:
HandlerTIMER1:	HANDLER HandleTIMER1
 c000294:	e24dd004 	sub	sp, sp, #4
 c000298:	e52d0004 	push	{r0}		; (str r0, [sp, #-4]!)
 c00029c:	e59f03a8 	ldr	r0, [pc, #936]	; c00064c <U0+0xc8>
 c0002a0:	e5900000 	ldr	r0, [r0]
 c0002a4:	e58d0004 	str	r0, [sp, #4]
 c0002a8:	e8bd8001 	pop	{r0, pc}

0c0002ac <HandlerTIMER0>:
HandlerTIMER0:	HANDLER HandleTIMER0
 c0002ac:	e24dd004 	sub	sp, sp, #4
 c0002b0:	e52d0004 	push	{r0}		; (str r0, [sp, #-4]!)
 c0002b4:	e59f0394 	ldr	r0, [pc, #916]	; c000650 <U0+0xcc>
 c0002b8:	e5900000 	ldr	r0, [r0]
 c0002bc:	e58d0004 	str	r0, [sp, #4]
 c0002c0:	e8bd8001 	pop	{r0, pc}

0c0002c4 <HandlerUERR01>:
HandlerUERR01:	HANDLER HandleUERR01
 c0002c4:	e24dd004 	sub	sp, sp, #4
 c0002c8:	e52d0004 	push	{r0}		; (str r0, [sp, #-4]!)
 c0002cc:	e59f0380 	ldr	r0, [pc, #896]	; c000654 <U0+0xd0>
 c0002d0:	e5900000 	ldr	r0, [r0]
 c0002d4:	e58d0004 	str	r0, [sp, #4]
 c0002d8:	e8bd8001 	pop	{r0, pc}

0c0002dc <HandlerWDT>:
HandlerWDT:		HANDLER HandleWDT
 c0002dc:	e24dd004 	sub	sp, sp, #4
 c0002e0:	e52d0004 	push	{r0}		; (str r0, [sp, #-4]!)
 c0002e4:	e59f036c 	ldr	r0, [pc, #876]	; c000658 <U0+0xd4>
 c0002e8:	e5900000 	ldr	r0, [r0]
 c0002ec:	e58d0004 	str	r0, [sp, #4]
 c0002f0:	e8bd8001 	pop	{r0, pc}

0c0002f4 <HandlerBDMA1>:
HandlerBDMA1:	HANDLER HandleBDMA1
 c0002f4:	e24dd004 	sub	sp, sp, #4
 c0002f8:	e52d0004 	push	{r0}		; (str r0, [sp, #-4]!)
 c0002fc:	e59f0358 	ldr	r0, [pc, #856]	; c00065c <U0+0xd8>
 c000300:	e5900000 	ldr	r0, [r0]
 c000304:	e58d0004 	str	r0, [sp, #4]
 c000308:	e8bd8001 	pop	{r0, pc}

0c00030c <HandlerBDMA0>:
HandlerBDMA0:	HANDLER HandleBDMA0
 c00030c:	e24dd004 	sub	sp, sp, #4
 c000310:	e52d0004 	push	{r0}		; (str r0, [sp, #-4]!)
 c000314:	e59f0344 	ldr	r0, [pc, #836]	; c000660 <U0+0xdc>
 c000318:	e5900000 	ldr	r0, [r0]
 c00031c:	e58d0004 	str	r0, [sp, #4]
 c000320:	e8bd8001 	pop	{r0, pc}

0c000324 <HandlerZDMA1>:
HandlerZDMA1:	HANDLER HandleZDMA1
 c000324:	e24dd004 	sub	sp, sp, #4
 c000328:	e52d0004 	push	{r0}		; (str r0, [sp, #-4]!)
 c00032c:	e59f0330 	ldr	r0, [pc, #816]	; c000664 <U0+0xe0>
 c000330:	e5900000 	ldr	r0, [r0]
 c000334:	e58d0004 	str	r0, [sp, #4]
 c000338:	e8bd8001 	pop	{r0, pc}

0c00033c <HandlerZDMA0>:
HandlerZDMA0:	HANDLER HandleZDMA0
 c00033c:	e24dd004 	sub	sp, sp, #4
 c000340:	e52d0004 	push	{r0}		; (str r0, [sp, #-4]!)
 c000344:	e59f031c 	ldr	r0, [pc, #796]	; c000668 <U0+0xe4>
 c000348:	e5900000 	ldr	r0, [r0]
 c00034c:	e58d0004 	str	r0, [sp, #4]
 c000350:	e8bd8001 	pop	{r0, pc}

0c000354 <HandlerTICK>:
HandlerTICK:	HANDLER HandleTICK
 c000354:	e24dd004 	sub	sp, sp, #4
 c000358:	e52d0004 	push	{r0}		; (str r0, [sp, #-4]!)
 c00035c:	e59f0308 	ldr	r0, [pc, #776]	; c00066c <U0+0xe8>
 c000360:	e5900000 	ldr	r0, [r0]
 c000364:	e58d0004 	str	r0, [sp, #4]
 c000368:	e8bd8001 	pop	{r0, pc}

0c00036c <HandlerEINT4567>:
HandlerEINT4567:HANDLER HandleEINT4567
 c00036c:	e24dd004 	sub	sp, sp, #4
 c000370:	e52d0004 	push	{r0}		; (str r0, [sp, #-4]!)
 c000374:	e59f02f4 	ldr	r0, [pc, #756]	; c000670 <U0+0xec>
 c000378:	e5900000 	ldr	r0, [r0]
 c00037c:	e58d0004 	str	r0, [sp, #4]
 c000380:	e8bd8001 	pop	{r0, pc}

0c000384 <HandlerEINT3>:
HandlerEINT3:	HANDLER HandleEINT3
 c000384:	e24dd004 	sub	sp, sp, #4
 c000388:	e52d0004 	push	{r0}		; (str r0, [sp, #-4]!)
 c00038c:	e59f02e0 	ldr	r0, [pc, #736]	; c000674 <U0+0xf0>
 c000390:	e5900000 	ldr	r0, [r0]
 c000394:	e58d0004 	str	r0, [sp, #4]
 c000398:	e8bd8001 	pop	{r0, pc}

0c00039c <HandlerEINT2>:
HandlerEINT2:	HANDLER HandleEINT2
 c00039c:	e24dd004 	sub	sp, sp, #4
 c0003a0:	e52d0004 	push	{r0}		; (str r0, [sp, #-4]!)
 c0003a4:	e59f02cc 	ldr	r0, [pc, #716]	; c000678 <U0+0xf4>
 c0003a8:	e5900000 	ldr	r0, [r0]
 c0003ac:	e58d0004 	str	r0, [sp, #4]
 c0003b0:	e8bd8001 	pop	{r0, pc}

0c0003b4 <HandlerEINT1>:
HandlerEINT1:	HANDLER HandleEINT1
 c0003b4:	e24dd004 	sub	sp, sp, #4
 c0003b8:	e52d0004 	push	{r0}		; (str r0, [sp, #-4]!)
 c0003bc:	e59f02b8 	ldr	r0, [pc, #696]	; c00067c <U0+0xf8>
 c0003c0:	e5900000 	ldr	r0, [r0]
 c0003c4:	e58d0004 	str	r0, [sp, #4]
 c0003c8:	e8bd8001 	pop	{r0, pc}

0c0003cc <HandlerEINT0>:
HandlerEINT0:	HANDLER HandleEINT0
 c0003cc:	e24dd004 	sub	sp, sp, #4
 c0003d0:	e52d0004 	push	{r0}		; (str r0, [sp, #-4]!)
 c0003d4:	e59f02a4 	ldr	r0, [pc, #676]	; c000680 <U0+0xfc>
 c0003d8:	e5900000 	ldr	r0, [r0]
 c0003dc:	e58d0004 	str	r0, [sp, #4]
 c0003e0:	e8bd8001 	pop	{r0, pc}

0c0003e4 <IsrIRQ>:

#One of the following two routines can be used for non-vectored interrupt.

IsrIRQ:						/* using I_ISPR register. */
    sub	    sp,sp,#4       	/* reserved for PC	  */
 c0003e4:	e24dd004 	sub	sp, sp, #4
    stmfd   sp!,{r8-r9}   
 c0003e8:	e92d0300 	push	{r8, r9}

	#IMPORTANT CAUTION

    ldr	    r9,=I_ISPR
 c0003ec:	e59f9290 	ldr	r9, [pc, #656]	; c000684 <U0+0x100>
    ldr	    r9,[r9]
 c0003f0:	e5999000 	ldr	r9, [r9]

	cmp		r9, #0x0		/* If the IDLE mode work-around is used, 	*/
 c0003f4:	e3590000 	cmp	r9, #0
							/* r9 may be 0 sometimes.			*/
	beq		l2
 c0003f8:	0a000009 	beq	c000424 <l2>

    mov	    r8,#0x0
 c0003fc:	e3a08000 	mov	r8, #0

0c000400 <l0>:
l0:
    movs    r9,r9,lsr #1
 c000400:	e1b090a9 	lsrs	r9, r9, #1
    bcs	    l1
 c000404:	2a000001 	bcs	c000410 <l1>
    add	    r8,r8,#4
 c000408:	e2888004 	add	r8, r8, #4
    b	    l0
 c00040c:	eafffffb 	b	c000400 <l0>

0c000410 <l1>:

l1:
    ldr	    r9,=HandleADC
 c000410:	e59f9204 	ldr	r9, [pc, #516]	; c00061c <U0+0x98>
    add	    r9,r9,r8
 c000414:	e0899008 	add	r9, r9, r8
    ldr	    r9,[r9]
 c000418:	e5999000 	ldr	r9, [r9]
    str	    r9,[sp,#8]
 c00041c:	e58d9008 	str	r9, [sp, #8]
    ldmfd   sp!,{r8-r9,pc}
 c000420:	e8bd8300 	pop	{r8, r9, pc}

0c000424 <l2>:

l2:
	ldmfd	sp!,{r8-r9}
 c000424:	e8bd0300 	pop	{r8, r9}
	add		sp,sp,#4
 c000428:	e28dd004 	add	sp, sp, #4
	subs	pc,lr,#4
 c00042c:	e25ef004 	subs	pc, lr, #4

0c000430 <ResetHandler>:
#****************************************************
#*	START											*
#****************************************************
ResetHandler:
start:
    ldr	    r0,=WTCON	    	/* watch dog disable*/
 c000430:	e59f0250 	ldr	r0, [pc, #592]	; c000688 <U0+0x104>
    ldr	    r1,=0x0 		
 c000434:	e3a01000 	mov	r1, #0
    str	    r1,[r0]
 c000438:	e5801000 	str	r1, [r0]

    ldr	    r0,=INTMSK
 c00043c:	e59f0248 	ldr	r0, [pc, #584]	; c00068c <U0+0x108>
    ldr	    r1,=0x07ffffff  	/* all interrupt disable */
 c000440:	e3e0133e 	mvn	r1, #-134217728	; 0xf8000000
    str	    r1,[r0]
 c000444:	e5801000 	str	r1, [r0]

    #****************************************************
    #*	Set clock control registers						*
    #****************************************************
    ldr		r0,=LOCKTIME
 c000448:	e59f0240 	ldr	r0, [pc, #576]	; c000690 <U0+0x10c>
    ldr		r1,=0xfff
 c00044c:	e59f1240 	ldr	r1, [pc, #576]	; c000694 <U0+0x110>
    str		r1,[r0]
 c000450:	e5801000 	str	r1, [r0]
#	ldr		r0,=PLLCON			/* temporary setting of PLL */
#	ldr		r1,=((M_DIV<<12)+(P_DIV<<4)+S_DIV)	/* Fin=8MHz,Fout=64MHz     */
#	str		r1,[r0]
# .endif
#****
    ldr	    r0,=CLKCON		
 c000454:	e59f023c 	ldr	r0, [pc, #572]	; c000698 <U0+0x114>
    ldr	    r1,=0x7ff8	    	/* All unit block CLK enable */
 c000458:	e59f123c 	ldr	r1, [pc, #572]	; c00069c <U0+0x118>
    str	    r1,[r0]
 c00045c:	e5801000 	str	r1, [r0]

    #****************************************
    #*  change BDMACON reset value for BDMA *   
    #****************************************
    ldr     r0,=BDIDES0      
 c000460:	e59f0238 	ldr	r0, [pc, #568]	; c0006a0 <U0+0x11c>
    ldr     r1,=0x40000000   	/* BDIDESn reset value should be 0x40000000 */
 c000464:	e3a01101 	mov	r1, #1073741824	; 0x40000000
    str     r1,[r0]
 c000468:	e5801000 	str	r1, [r0]

    ldr     r0,=BDIDES1      
 c00046c:	e59f0230 	ldr	r0, [pc, #560]	; c0006a4 <U0+0x120>
    ldr     r1,=0x40000000   	/* BDIDESn reset value should be 0x40000000 */	 
 c000470:	e3a01101 	mov	r1, #1073741824	; 0x40000000
    str     r1,[r0]
 c000474:	e5801000 	str	r1, [r0]

    #****************************************************
    #*	Set memory control registers					* 	
    #****************************************************
    ldr	    r0,=SMRDATA
 c000478:	e59f0228 	ldr	r0, [pc, #552]	; c0006a8 <U0+0x124>
    ldmia   r0,{r1-r13}
 c00047c:	e8903ffe 	ldm	r0, {r1, r2, r3, r4, r5, r6, r7, r8, r9, sl, fp, ip, sp}
    ldr	    r0,=0x01c80000  	/* BWSCON Address */
 c000480:	e3a00772 	mov	r0, #29884416	; 0x1c80000
    stmia   r0,{r1-r13}
 c000484:	e8803ffe 	stm	r0, {r1, r2, r3, r4, r5, r6, r7, r8, r9, sl, fp, ip, sp}

    #;****************************************************
    #;*	Initialize stacks								* 
    #;****************************************************
    ldr	    sp, =SVCStack		/* Why	*/		
 c000488:	e59fd21c 	ldr	sp, [pc, #540]	; c0006ac <U0+0x128>
    bl	    InitStacks
 c00048c:	eb000019 	bl	c0004f8 <InitStacks>

    #;****************************************************
    #;*	Setup IRQ handler								*
    #;****************************************************
    ldr	    r0,=HandleIRQ		/* This routine is needed */
 c000490:	e59f0170 	ldr	r0, [pc, #368]	; c000608 <U0+0x84>
    ldr	    r1,=IsrIRQ			/* if there isn't 'subs pc,lr,#4' at 0x18, 0x1c */
 c000494:	e59f1214 	ldr	r1, [pc, #532]	; c0006b0 <U0+0x12c>
    str	    r1,[r0]
 c000498:	e5801000 	str	r1, [r0]

    #********************************************************
    #*	Copy and paste RW data/zero initialized data	    *
    #********************************************************
    LDR	    r0, =Image_RO_Limit	/* Get pointer to ROM data */
 c00049c:	e59f0210 	ldr	r0, [pc, #528]	; c0006b4 <U0+0x130>
    LDR	    r1, =Image_RW_Base	/* and RAM copy	*/
 c0004a0:	e59f1210 	ldr	r1, [pc, #528]	; c0006b8 <U0+0x134>
    LDR	    r3, =Image_ZI_Base	
 c0004a4:	e59f3210 	ldr	r3, [pc, #528]	; c0006bc <U0+0x138>
	/* Zero init base => top of initialised data */
			
    CMP	    r0, r1	    		/* Check that they are different */
 c0004a8:	e1500001 	cmp	r0, r1
    BEQ	    F1
 c0004ac:	0a000003 	beq	c0004c0 <F1>

0c0004b0 <F0>:
F0:
    CMP	    r1, r3				/* Copy init data                        */
 c0004b0:	e1510003 	cmp	r1, r3
    LDRCC   r2, [r0], #4        /* --> LDRCC r2, [r0] + ADD r0, r0, #4	 */
 c0004b4:	34902004 	ldrcc	r2, [r0], #4
    STRCC   r2, [r1], #4        /* --> STRCC r2, [r1] + ADD r1, r1, #4   */ 
 c0004b8:	34812004 	strcc	r2, [r1], #4
    BCC	    F0
 c0004bc:	3afffffb 	bcc	c0004b0 <F0>

0c0004c0 <F1>:
F1:
    LDR	    r1, =Image_ZI_Limit	/* Top of zero init segment */
 c0004c0:	e59f11f8 	ldr	r1, [pc, #504]	; c0006c0 <U0+0x13c>
    MOV	    r2, #0
 c0004c4:	e3a02000 	mov	r2, #0

0c0004c8 <F2>:
F2:
    CMP	    r3, r1	    		/* Zero init */
 c0004c8:	e1530001 	cmp	r3, r1
    STRCC   r2, [r3], #4
 c0004cc:	34832004 	strcc	r2, [r3], #4
    BCC	    F2
 c0004d0:	3afffffc 	bcc	c0004c8 <F2>
@	BIC	r0, r0, #NOINT /* enable interrupt */
@	MSR	CPSR_cxsf, r0
	
	/* Pasamos a modo usuario, inicializamos su pila
       y ponemos a cero el frame pointer*/
    MRS	r0, CPSR
 c0004d4:	e10f0000 	mrs	r0, CPSR
   	BIC	r0,r0,#MODEMASK
 c0004d8:	e3c0001f 	bic	r0, r0, #31
    ORR	r1,r0,#USERMODE
 c0004dc:	e3801010 	orr	r1, r0, #16
    BIC r1,r1,#NOINT
 c0004e0:	e3c110c0 	bic	r1, r1, #192	; 0xc0
    MSR	CPSR_cxsf,r1 	    
 c0004e4:	e12ff001 	msr	CPSR_fsxc, r1
    ldr sp,=UserStack
 c0004e8:	e59fd1d4 	ldr	sp, [pc, #468]	; c0006c4 <U0+0x140>
    mov fp,#0
 c0004ec:	e3a0b000 	mov	fp, #0
	
	/* jump to main() */
   	BL	Main
 c0004f0:	eb000386 	bl	c001310 <Main>
   	B   .	    
 c0004f4:	eafffffe 	b	c0004f4 <F2+0x2c>

0c0004f8 <InitStacks>:
InitStacks:
	#Don't use DRAM,such as stmfd,ldmfd......
	#SVCstack is initialized before
	#Under toolkit ver 2.50, 'msr cpsr,r1' can be used instead of 'msr cpsr_cxsf,r1'

    mrs	    r0,cpsr
 c0004f8:	e10f0000 	mrs	r0, CPSR
    bic	    r0,r0,#MODEMASK
 c0004fc:	e3c0001f 	bic	r0, r0, #31
    orr	    r1,r0,#UNDEFMODE
 c000500:	e380101b 	orr	r1, r0, #27
    msr	    cpsr_cxsf,r1		/* UndefMode */
 c000504:	e12ff001 	msr	CPSR_fsxc, r1
    ldr	    sp,=UndefStack
 c000508:	e59fd1b8 	ldr	sp, [pc, #440]	; c0006c8 <U0+0x144>
	
    orr	    r1,r0,#ABORTMODE|NOINT
 c00050c:	e38010d7 	orr	r1, r0, #215	; 0xd7
    msr	    cpsr_cxsf,r1 	    /* AbortMode */	
 c000510:	e12ff001 	msr	CPSR_fsxc, r1
    ldr	    sp,=AbortStack
 c000514:	e59fd1b0 	ldr	sp, [pc, #432]	; c0006cc <U0+0x148>

    orr	    r1,r0,#IRQMODE|FIQ_MODE
 c000518:	e3801092 	orr	r1, r0, #146	; 0x92
    msr	    cpsr_cxsf,r1 	    /* IRQMode */
 c00051c:	e12ff001 	msr	CPSR_fsxc, r1
    ldr	    sp,=IRQStack
 c000520:	e59fd1a8 	ldr	sp, [pc, #424]	; c0006d0 <U0+0x14c>
	
    orr	    r1,r0,#FIQMODE|IRQ_MODE
 c000524:	e3801051 	orr	r1, r0, #81	; 0x51
    msr	    cpsr_cxsf,r1 	    /* FIQMode */
 c000528:	e12ff001 	msr	CPSR_fsxc, r1
    ldr	    sp,=FIQStack
 c00052c:	e59fd1a0 	ldr	sp, [pc, #416]	; c0006d4 <U0+0x150>

    bic	    r0,r0,#MODEMASK
 c000530:	e3c0001f 	bic	r0, r0, #31
    orr	    r1,r0,#SVCMODE
 c000534:	e3801013 	orr	r1, r0, #19
    msr	    cpsr_cxsf,r1 	    /* SVCMode */
 c000538:	e12ff001 	msr	CPSR_fsxc, r1
    ldr	    sp,=SVCStack
 c00053c:	e59fd168 	ldr	sp, [pc, #360]	; c0006ac <U0+0x128>

	#USER mode is not initialized.
    mov	    pc,lr 				/* The LR register may be not valid for the mode changes. */
 c000540:	e1a0f00e 	mov	pc, lr

0c000544 <EnterPWDN>:
#****************************************************
#*	The function for entering power down mode		*
#****************************************************
#void EnterPWDN(int CLKCON);
EnterPWDN:
    mov	    r2,r0               /* r0=CLKCON */
 c000544:	e1a02000 	mov	r2, r0
    ldr	    r0,=REFRESH		
 c000548:	e59f0188 	ldr	r0, [pc, #392]	; c0006d8 <U0+0x154>
    ldr	    r3,[r0]
 c00054c:	e5903000 	ldr	r3, [r0]
    mov	    r1, r3
 c000550:	e1a01003 	mov	r1, r3
    orr	    r1, r1, #0x400000   /* self-refresh enable */
 c000554:	e3811501 	orr	r1, r1, #4194304	; 0x400000
    str	    r1, [r0]
 c000558:	e5801000 	str	r1, [r0]

    nop     /* Wait until self-refresh is issued. May not be needed. */
 c00055c:	e1a00000 	nop			; (mov r0, r0)
    nop     /* If the other bus master holds the bus, ... */
 c000560:	e1a00000 	nop			; (mov r0, r0)
    nop	    /* mov r0, r0 */
 c000564:	e1a00000 	nop			; (mov r0, r0)
    nop
 c000568:	e1a00000 	nop			; (mov r0, r0)
    nop
 c00056c:	e1a00000 	nop			; (mov r0, r0)
    nop
 c000570:	e1a00000 	nop			; (mov r0, r0)
    nop
 c000574:	e1a00000 	nop			; (mov r0, r0)

#enter POWERDN mode
    ldr	    r0,=CLKCON
 c000578:	e59f0118 	ldr	r0, [pc, #280]	; c000698 <U0+0x114>
    str	    r2,[r0]
 c00057c:	e5802000 	str	r2, [r0]

#wait until enter SL_IDLE,STOP mode and until wake-up
    ldr	    r0,=0x10
 c000580:	e3a00010 	mov	r0, #16

0c000584 <U0>:
U0: subs    r0,r0,#1
 c000584:	e2500001 	subs	r0, r0, #1
    bne	    U0
 c000588:	1afffffd 	bne	c000584 <U0>

#exit from DRAM/SDRAM self refresh mode.
    ldr	    r0,=REFRESH
 c00058c:	e59f0144 	ldr	r0, [pc, #324]	; c0006d8 <U0+0x154>
    str	    r3,[r0]
 c000590:	e5803000 	str	r3, [r0]
    mov	    pc,lr
 c000594:	e1a0f00e 	mov	pc, lr
 c000598:	0c0003cc 	.word	0x0c0003cc
 c00059c:	0c0003b4 	.word	0x0c0003b4
 c0005a0:	0c00039c 	.word	0x0c00039c
 c0005a4:	0c000384 	.word	0x0c000384
 c0005a8:	0c00036c 	.word	0x0c00036c
 c0005ac:	0c000354 	.word	0x0c000354
 c0005b0:	0c00033c 	.word	0x0c00033c
 c0005b4:	0c000324 	.word	0x0c000324
 c0005b8:	0c00030c 	.word	0x0c00030c
 c0005bc:	0c0002f4 	.word	0x0c0002f4
 c0005c0:	0c0002dc 	.word	0x0c0002dc
 c0005c4:	0c0002c4 	.word	0x0c0002c4
 c0005c8:	0c0002ac 	.word	0x0c0002ac
 c0005cc:	0c000294 	.word	0x0c000294
 c0005d0:	0c00027c 	.word	0x0c00027c
 c0005d4:	0c000264 	.word	0x0c000264
 c0005d8:	0c00024c 	.word	0x0c00024c
 c0005dc:	0c000234 	.word	0x0c000234
 c0005e0:	0c00021c 	.word	0x0c00021c
 c0005e4:	0c000204 	.word	0x0c000204
 c0005e8:	0c0001ec 	.word	0x0c0001ec
 c0005ec:	0c0001d4 	.word	0x0c0001d4
 c0005f0:	0c0001bc 	.word	0x0c0001bc
 c0005f4:	0c0001a4 	.word	0x0c0001a4
 c0005f8:	0c00018c 	.word	0x0c00018c
 c0005fc:	0c000174 	.word	0x0c000174
 c000600:	0c000544 	.word	0x0c000544
 c000604:	0c7fff1c 	.word	0x0c7fff1c
 c000608:	0c7fff18 	.word	0x0c7fff18
 c00060c:	0c7fff04 	.word	0x0c7fff04
 c000610:	0c7fff08 	.word	0x0c7fff08
 c000614:	0c7fff10 	.word	0x0c7fff10
 c000618:	0c7fff0c 	.word	0x0c7fff0c
 c00061c:	0c7fff20 	.word	0x0c7fff20
 c000620:	0c7fff24 	.word	0x0c7fff24
 c000624:	0c7fff28 	.word	0x0c7fff28
 c000628:	0c7fff2c 	.word	0x0c7fff2c
 c00062c:	0c7fff30 	.word	0x0c7fff30
 c000630:	0c7fff34 	.word	0x0c7fff34
 c000634:	0c7fff38 	.word	0x0c7fff38
 c000638:	0c7fff3c 	.word	0x0c7fff3c
 c00063c:	0c7fff40 	.word	0x0c7fff40
 c000640:	0c7fff44 	.word	0x0c7fff44
 c000644:	0c7fff48 	.word	0x0c7fff48
 c000648:	0c7fff4c 	.word	0x0c7fff4c
 c00064c:	0c7fff50 	.word	0x0c7fff50
 c000650:	0c7fff54 	.word	0x0c7fff54
 c000654:	0c7fff58 	.word	0x0c7fff58
 c000658:	0c7fff5c 	.word	0x0c7fff5c
 c00065c:	0c7fff60 	.word	0x0c7fff60
 c000660:	0c7fff64 	.word	0x0c7fff64
 c000664:	0c7fff68 	.word	0x0c7fff68
 c000668:	0c7fff6c 	.word	0x0c7fff6c
 c00066c:	0c7fff70 	.word	0x0c7fff70
 c000670:	0c7fff74 	.word	0x0c7fff74
 c000674:	0c7fff78 	.word	0x0c7fff78
 c000678:	0c7fff7c 	.word	0x0c7fff7c
 c00067c:	0c7fff80 	.word	0x0c7fff80
 c000680:	0c7fff84 	.word	0x0c7fff84
 c000684:	01e00020 	.word	0x01e00020
 c000688:	01d30000 	.word	0x01d30000
 c00068c:	01e0000c 	.word	0x01e0000c
 c000690:	01d8000c 	.word	0x01d8000c
 c000694:	00000fff 	.word	0x00000fff
 c000698:	01d80004 	.word	0x01d80004
 c00069c:	00007ff8 	.word	0x00007ff8
 c0006a0:	01f80008 	.word	0x01f80008
 c0006a4:	01f80028 	.word	0x01f80028
 c0006a8:	0c0006dc 	.word	0x0c0006dc
 c0006ac:	0c7ff100 	.word	0x0c7ff100
 c0006b0:	0c0003e4 	.word	0x0c0003e4
 c0006b4:	0c00a4cc 	.word	0x0c00a4cc
 c0006b8:	0c00a4cc 	.word	0x0c00a4cc
 c0006bc:	0c00af98 	.word	0x0c00af98
 c0006c0:	0c00b160 	.word	0x0c00b160
 c0006c4:	0c7ff000 	.word	0x0c7ff000
 c0006c8:	0c7ff200 	.word	0x0c7ff200
 c0006cc:	0c7ff300 	.word	0x0c7ff300
 c0006d0:	0c7ff400 	.word	0x0c7ff400
 c0006d4:	0c7ff500 	.word	0x0c7ff500
 c0006d8:	01c80024 	.word	0x01c80024

0c0006dc <SMRDATA>:
 c0006dc:	11110102 	.word	0x11110102
 c0006e0:	00000600 	.word	0x00000600
 c0006e4:	00007ffc 	.word	0x00007ffc
 c0006e8:	00007ffc 	.word	0x00007ffc
 c0006ec:	00007ffc 	.word	0x00007ffc
 c0006f0:	00007ffc 	.word	0x00007ffc
 c0006f4:	00007ffc 	.word	0x00007ffc
 c0006f8:	00018000 	.word	0x00018000
 c0006fc:	00018000 	.word	0x00018000
 c000700:	00860459 	.word	0x00860459
 c000704:	00000010 	.word	0x00000010
 c000708:	00000020 	.word	0x00000020
 c00070c:	00000020 	.word	0x00000020

0c000710 <Delay>:

void Delay(int time)
// time=0: adjust the Delay function by WatchDog timer.//
// time>0: the number of loop time//
// 100us resolution.//
{
 c000710:	e1a0c00d 	mov	ip, sp
 c000714:	e92dd800 	push	{fp, ip, lr, pc}
 c000718:	e24cb004 	sub	fp, ip, #4
 c00071c:	e24dd010 	sub	sp, sp, #16
 c000720:	e50b0018 	str	r0, [fp, #-24]	; 0xffffffe8
	int i,adjust=0;
 c000724:	e3a03000 	mov	r3, #0
 c000728:	e50b3014 	str	r3, [fp, #-20]	; 0xffffffec
	if(time==0)
 c00072c:	e51b3018 	ldr	r3, [fp, #-24]	; 0xffffffe8
 c000730:	e3530000 	cmp	r3, #0
 c000734:	1a000021 	bne	c0007c0 <Delay+0xb0>
	{
		time=200;
 c000738:	e3a030c8 	mov	r3, #200	; 0xc8
 c00073c:	e50b3018 	str	r3, [fp, #-24]	; 0xffffffe8
		adjust=1;
 c000740:	e3a03001 	mov	r3, #1
 c000744:	e50b3014 	str	r3, [fp, #-20]	; 0xffffffec
		delayLoopCount=400;
 c000748:	e59f30d8 	ldr	r3, [pc, #216]	; c000828 <Delay+0x118>
 c00074c:	e3a02e19 	mov	r2, #400	; 0x190
 c000750:	e5832000 	str	r2, [r3]
		rWTCON=((MCLK/1000000-1)<<8)|(2<<3);	// 1M/64,Watch-dog,nRESET,interrupt disable//
 c000754:	e59f30d0 	ldr	r3, [pc, #208]	; c00082c <Delay+0x11c>
 c000758:	e59f20d0 	ldr	r2, [pc, #208]	; c000830 <Delay+0x120>
 c00075c:	e5832000 	str	r2, [r3]
		rWTDAT=0xffff;
 c000760:	e59f30cc 	ldr	r3, [pc, #204]	; c000834 <Delay+0x124>
 c000764:	e59f20cc 	ldr	r2, [pc, #204]	; c000838 <Delay+0x128>
 c000768:	e5832000 	str	r2, [r3]
		rWTCNT=0xffff;	 
 c00076c:	e59f30c8 	ldr	r3, [pc, #200]	; c00083c <Delay+0x12c>
 c000770:	e59f20c0 	ldr	r2, [pc, #192]	; c000838 <Delay+0x128>
 c000774:	e5832000 	str	r2, [r3]
		rWTCON=((MCLK/1000000-1)<<8)|(2<<3)|(1<<5); // 1M/64,Watch-dog enable,nRESET,interrupt disable //
 c000778:	e59f30ac 	ldr	r3, [pc, #172]	; c00082c <Delay+0x11c>
 c00077c:	e59f20bc 	ldr	r2, [pc, #188]	; c000840 <Delay+0x130>
 c000780:	e5832000 	str	r2, [r3]
	}
	for(;time>0;time--)
 c000784:	ea00000d 	b	c0007c0 <Delay+0xb0>
		for(i=0;i<delayLoopCount;i++);
 c000788:	e3a03000 	mov	r3, #0
 c00078c:	e50b3010 	str	r3, [fp, #-16]
 c000790:	ea000002 	b	c0007a0 <Delay+0x90>
 c000794:	e51b3010 	ldr	r3, [fp, #-16]
 c000798:	e2833001 	add	r3, r3, #1
 c00079c:	e50b3010 	str	r3, [fp, #-16]
 c0007a0:	e59f3080 	ldr	r3, [pc, #128]	; c000828 <Delay+0x118>
 c0007a4:	e5933000 	ldr	r3, [r3]
 c0007a8:	e51b2010 	ldr	r2, [fp, #-16]
 c0007ac:	e1520003 	cmp	r2, r3
 c0007b0:	bafffff7 	blt	c000794 <Delay+0x84>
		rWTCON=((MCLK/1000000-1)<<8)|(2<<3);	// 1M/64,Watch-dog,nRESET,interrupt disable//
		rWTDAT=0xffff;
		rWTCNT=0xffff;	 
		rWTCON=((MCLK/1000000-1)<<8)|(2<<3)|(1<<5); // 1M/64,Watch-dog enable,nRESET,interrupt disable //
	}
	for(;time>0;time--)
 c0007b4:	e51b3018 	ldr	r3, [fp, #-24]	; 0xffffffe8
 c0007b8:	e2433001 	sub	r3, r3, #1
 c0007bc:	e50b3018 	str	r3, [fp, #-24]	; 0xffffffe8
 c0007c0:	e51b3018 	ldr	r3, [fp, #-24]	; 0xffffffe8
 c0007c4:	e3530000 	cmp	r3, #0
 c0007c8:	caffffee 	bgt	c000788 <Delay+0x78>
		for(i=0;i<delayLoopCount;i++);
	if(adjust==1)
 c0007cc:	e51b3014 	ldr	r3, [fp, #-20]	; 0xffffffec
 c0007d0:	e3530001 	cmp	r3, #1
 c0007d4:	1a000010 	bne	c00081c <Delay+0x10c>
	{
		rWTCON=((MCLK/1000000-1)<<8)|(2<<3);
 c0007d8:	e59f304c 	ldr	r3, [pc, #76]	; c00082c <Delay+0x11c>
 c0007dc:	e59f204c 	ldr	r2, [pc, #76]	; c000830 <Delay+0x120>
 c0007e0:	e5832000 	str	r2, [r3]
		i=0xffff-rWTCNT;   //  1count/16us?????????//
 c0007e4:	e59f3050 	ldr	r3, [pc, #80]	; c00083c <Delay+0x12c>
 c0007e8:	e5933000 	ldr	r3, [r3]
 c0007ec:	e2633cff 	rsb	r3, r3, #65280	; 0xff00
 c0007f0:	e28330ff 	add	r3, r3, #255	; 0xff
 c0007f4:	e50b3010 	str	r3, [fp, #-16]
		delayLoopCount=8000000/(i*64);	//400*100/(i*64/200)   //
 c0007f8:	e51b3010 	ldr	r3, [fp, #-16]
 c0007fc:	e1a03303 	lsl	r3, r3, #6
 c000800:	e59f003c 	ldr	r0, [pc, #60]	; c000844 <Delay+0x134>
 c000804:	e1a01003 	mov	r1, r3
 c000808:	eb0021c3 	bl	c008f1c <__aeabi_idiv>
 c00080c:	e1a03000 	mov	r3, r0
 c000810:	e1a02003 	mov	r2, r3
 c000814:	e59f300c 	ldr	r3, [pc, #12]	; c000828 <Delay+0x118>
 c000818:	e5832000 	str	r2, [r3]
	}
}
 c00081c:	e24bd00c 	sub	sp, fp, #12
 c000820:	e89d6800 	ldm	sp, {fp, sp, lr}
 c000824:	e12fff1e 	bx	lr
 c000828:	0c00a4e0 	.word	0x0c00a4e0
 c00082c:	01d30000 	.word	0x01d30000
 c000830:	00003f10 	.word	0x00003f10
 c000834:	01d30004 	.word	0x01d30004
 c000838:	0000ffff 	.word	0x0000ffff
 c00083c:	01d30008 	.word	0x01d30008
 c000840:	00003f30 	.word	0x00003f30
 c000844:	007a1200 	.word	0x007a1200

0c000848 <DelayMs>:

void DelayMs(int ms_time)
{
 c000848:	e1a0c00d 	mov	ip, sp
 c00084c:	e92dd800 	push	{fp, ip, lr, pc}
 c000850:	e24cb004 	sub	fp, ip, #4
 c000854:	e24dd010 	sub	sp, sp, #16
 c000858:	e50b0018 	str	r0, [fp, #-24]	; 0xffffffe8
	int i;
	
	for( i = 0 ; i < 1000*ms_time ; i++ )
 c00085c:	e3a03000 	mov	r3, #0
 c000860:	e50b3010 	str	r3, [fp, #-16]
 c000864:	ea000002 	b	c000874 <DelayMs+0x2c>
 c000868:	e51b3010 	ldr	r3, [fp, #-16]
 c00086c:	e2833001 	add	r3, r3, #1
 c000870:	e50b3010 	str	r3, [fp, #-16]
 c000874:	e51b2018 	ldr	r2, [fp, #-24]	; 0xffffffe8
 c000878:	e1a03002 	mov	r3, r2
 c00087c:	e1a03283 	lsl	r3, r3, #5
 c000880:	e0623003 	rsb	r3, r2, r3
 c000884:	e1a03103 	lsl	r3, r3, #2
 c000888:	e0833002 	add	r3, r3, r2
 c00088c:	e1a03183 	lsl	r3, r3, #3
 c000890:	e1a02003 	mov	r2, r3
 c000894:	e51b3010 	ldr	r3, [fp, #-16]
 c000898:	e1520003 	cmp	r2, r3
 c00089c:	cafffff1 	bgt	c000868 <DelayMs+0x20>
		;
}
 c0008a0:	e24bd00c 	sub	sp, fp, #12
 c0008a4:	e89d6800 	ldm	sp, {fp, sp, lr}
 c0008a8:	e12fff1e 	bx	lr

0c0008ac <Port_Init>:

//------------------------PORTS------------------------------//
void Port_Init(void)
{
 c0008ac:	e1a0c00d 	mov	ip, sp
 c0008b0:	e92dd800 	push	{fp, ip, lr, pc}
 c0008b4:	e24cb004 	sub	fp, ip, #4

	// PORT A GROUP
	// BIT 	9	8	7	6	5	4	3	2	1	0
	// 		A24	A23	A22	A21	A20	A19	A18	A17	A16	A0
	//		0	1	1	1	1	1	1	1	1	1
	rPCONA = 0x1ff;	
 c0008b8:	e59f3100 	ldr	r3, [pc, #256]	; c0009c0 <Port_Init+0x114>
 c0008bc:	e59f2100 	ldr	r2, [pc, #256]	; c0009c4 <Port_Init+0x118>
 c0008c0:	e5832000 	str	r2, [r3]
	// PORT B GROUP
	// BIT 	10		9		8		7		6		5		4		3		2		1		0
	//		/CS5	/CS4	/CS3	/CS2	/CS1	GPB5	GPB4	/SRAS	/SCAS	SCLK	SCKE
	//		EXT		NIC		USB		IDE		SMC		NC		NC		Sdram	Sdram	Sdram	Sdram
	//      1, 		1,   	1,   	1,    	1,    	0,       0,     1,    	1,    	1,   	1	
	rPDATB = 0x7ff;				
 c0008c4:	e59f30fc 	ldr	r3, [pc, #252]	; c0009c8 <Port_Init+0x11c>
 c0008c8:	e59f20fc 	ldr	r2, [pc, #252]	; c0009cc <Port_Init+0x120>
 c0008cc:	e5832000 	str	r2, [r3]
	rPCONB = 0x1cf;			// P9-LED1 P10-LED2
 c0008d0:	e59f30f8 	ldr	r3, [pc, #248]	; c0009d0 <Port_Init+0x124>
 c0008d4:	e59f20f8 	ldr	r2, [pc, #248]	; c0009d4 <Port_Init+0x128>
 c0008d8:	e5832000 	str	r2, [r3]

	//  PC7		6		5		4		3		2		1		0
	//   I		I		I		I		I		I		I		I
	//   NC		NC		NC		NC		IISCLK	IISDI	IISDO	IISLRCK
	//   00		00		00		00		11		11		11		11
	rPDATC = 0xff00;
 c0008dc:	e59f30f4 	ldr	r3, [pc, #244]	; c0009d8 <Port_Init+0x12c>
 c0008e0:	e3a02cff 	mov	r2, #65280	; 0xff00
 c0008e4:	e5832000 	str	r2, [r3]
	rPCONC = 0x0ff0ffff;	
 c0008e8:	e59f30ec 	ldr	r3, [pc, #236]	; c0009dc <Port_Init+0x130>
 c0008ec:	e59f20ec 	ldr	r2, [pc, #236]	; c0009e0 <Port_Init+0x134>
 c0008f0:	e5832000 	str	r2, [r3]
	rPUPC  = 0x30ff;	//PULL UP RESISTOR should be enabled to I/O
 c0008f4:	e59f30e8 	ldr	r3, [pc, #232]	; c0009e4 <Port_Init+0x138>
 c0008f8:	e59f20e8 	ldr	r2, [pc, #232]	; c0009e8 <Port_Init+0x13c>
 c0008fc:	e5832000 	str	r2, [r3]
	// PORT D GROUP
	// PORT D GROUP(I/O OR LCD)
	// BIT7		6		5		4		3		2		1		0
	//	VF		VM		VLINE	VCLK	VD3		VD2		VD1		VD0
	//	00		00		00		00		00		00		00		00
	rPDATD= 0xff;
 c000900:	e59f30e4 	ldr	r3, [pc, #228]	; c0009ec <Port_Init+0x140>
 c000904:	e3a020ff 	mov	r2, #255	; 0xff
 c000908:	e5832000 	str	r2, [r3]
	rPCOND= 0xaaaa;	
 c00090c:	e59f30dc 	ldr	r3, [pc, #220]	; c0009f0 <Port_Init+0x144>
 c000910:	e59f20dc 	ldr	r2, [pc, #220]	; c0009f4 <Port_Init+0x148>
 c000914:	e5832000 	str	r2, [r3]
	rPUPD = 0x0;
 c000918:	e59f30d8 	ldr	r3, [pc, #216]	; c0009f8 <Port_Init+0x14c>
 c00091c:	e3a02000 	mov	r2, #0
 c000920:	e5832000 	str	r2, [r3]
	
	// PORT E GROUP 
	// Bit	8		7		6		5		4		3		2		1		0
	//  	CODECLK	LED4	LED5	LED6	LED7	BEEP	RXD0	TXD0	LcdDisp
	//  	10		01		01		01		01		01		10		10		01
	rPDATE	= 0x1ff;
 c000924:	e59f30d0 	ldr	r3, [pc, #208]	; c0009fc <Port_Init+0x150>
 c000928:	e59f2094 	ldr	r2, [pc, #148]	; c0009c4 <Port_Init+0x118>
 c00092c:	e5832000 	str	r2, [r3]
	rPCONE	= 0x25529;	
 c000930:	e59f30c8 	ldr	r3, [pc, #200]	; c000a00 <Port_Init+0x154>
 c000934:	e59f20c8 	ldr	r2, [pc, #200]	; c000a04 <Port_Init+0x158>
 c000938:	e5832000 	str	r2, [r3]
	rPUPE	= 0x6;
 c00093c:	e59f30c4 	ldr	r3, [pc, #196]	; c000a08 <Port_Init+0x15c>
 c000940:	e3a02006 	mov	r2, #6
 c000944:	e5832000 	str	r2, [r3]
	
	// PORT F GROUP
	// Bit8		7		6		5		 4		3		2		1		0
	// IISCLK	IISDI	IISDO	IISLRCK	Input	Input	Input	IICSDA	IICSCL
	// 100		100		100		100		00		00		00		10		10
	rPDATF = 0x0;
 c000948:	e59f30bc 	ldr	r3, [pc, #188]	; c000a0c <Port_Init+0x160>
 c00094c:	e3a02000 	mov	r2, #0
 c000950:	e5832000 	str	r2, [r3]
	rPCONF = 0x252a;
 c000954:	e59f30b4 	ldr	r3, [pc, #180]	; c000a10 <Port_Init+0x164>
 c000958:	e59f20b4 	ldr	r2, [pc, #180]	; c000a14 <Port_Init+0x168>
 c00095c:	e5832000 	str	r2, [r3]
	rPUPF  = 0x0;
 c000960:	e59f30b0 	ldr	r3, [pc, #176]	; c000a18 <Port_Init+0x16c>
 c000964:	e3a02000 	mov	r2, #0
 c000968:	e5832000 	str	r2, [r3]
	// PORT G GROUP
	// BIT7		6		5		4		3		2		1		0
	// 	INT7	INT6	INT5	INT4	INT3	INT2	INT1	INT0
	//	S3		S4		S5		S6		NIC		EXT		IDE		USB
	//	11      11      11      11      11      11      11      11
	rPDATG = 0xff;
 c00096c:	e59f30a8 	ldr	r3, [pc, #168]	; c000a1c <Port_Init+0x170>
 c000970:	e3a020ff 	mov	r2, #255	; 0xff
 c000974:	e5832000 	str	r2, [r3]
	rPCONG = 0xffff;
 c000978:	e59f30a0 	ldr	r3, [pc, #160]	; c000a20 <Port_Init+0x174>
 c00097c:	e59f20a0 	ldr	r2, [pc, #160]	; c000a24 <Port_Init+0x178>
 c000980:	e5832000 	str	r2, [r3]
	rPUPG  = 0x0;		//pull-up portG enabled  
 c000984:	e59f309c 	ldr	r3, [pc, #156]	; c000a28 <Port_Init+0x17c>
 c000988:	e3a02000 	mov	r2, #0
 c00098c:	e5832000 	str	r2, [r3]
	rSPUCR = 0x7;  		//D15-D0 pull-up disable
 c000990:	e59f3094 	ldr	r3, [pc, #148]	; c000a2c <Port_Init+0x180>
 c000994:	e3a02007 	mov	r2, #7
 c000998:	e5832000 	str	r2, [r3]

	/* Non Cache area */
	rNCACHBE0=((Non_Cache_End>>12)<<16)|(Non_Cache_Start>>12); 
 c00099c:	e59f308c 	ldr	r3, [pc, #140]	; c000a30 <Port_Init+0x184>
 c0009a0:	e59f208c 	ldr	r2, [pc, #140]	; c000a34 <Port_Init+0x188>
 c0009a4:	e5832000 	str	r2, [r3]

	/* Low level default */
	rEXTINT=0x0;
 c0009a8:	e59f3088 	ldr	r3, [pc, #136]	; c000a38 <Port_Init+0x18c>
 c0009ac:	e3a02000 	mov	r2, #0
 c0009b0:	e5832000 	str	r2, [r3]
}
 c0009b4:	e24bd00c 	sub	sp, fp, #12
 c0009b8:	e89d6800 	ldm	sp, {fp, sp, lr}
 c0009bc:	e12fff1e 	bx	lr
 c0009c0:	01d20000 	.word	0x01d20000
 c0009c4:	000001ff 	.word	0x000001ff
 c0009c8:	01d2000c 	.word	0x01d2000c
 c0009cc:	000007ff 	.word	0x000007ff
 c0009d0:	01d20008 	.word	0x01d20008
 c0009d4:	000001cf 	.word	0x000001cf
 c0009d8:	01d20014 	.word	0x01d20014
 c0009dc:	01d20010 	.word	0x01d20010
 c0009e0:	0ff0ffff 	.word	0x0ff0ffff
 c0009e4:	01d20018 	.word	0x01d20018
 c0009e8:	000030ff 	.word	0x000030ff
 c0009ec:	01d20020 	.word	0x01d20020
 c0009f0:	01d2001c 	.word	0x01d2001c
 c0009f4:	0000aaaa 	.word	0x0000aaaa
 c0009f8:	01d20024 	.word	0x01d20024
 c0009fc:	01d2002c 	.word	0x01d2002c
 c000a00:	01d20028 	.word	0x01d20028
 c000a04:	00025529 	.word	0x00025529
 c000a08:	01d20030 	.word	0x01d20030
 c000a0c:	01d20038 	.word	0x01d20038
 c000a10:	01d20034 	.word	0x01d20034
 c000a14:	0000252a 	.word	0x0000252a
 c000a18:	01d2003c 	.word	0x01d2003c
 c000a1c:	01d20044 	.word	0x01d20044
 c000a20:	01d20040 	.word	0x01d20040
 c000a24:	0000ffff 	.word	0x0000ffff
 c000a28:	01d20048 	.word	0x01d20048
 c000a2c:	01d2004c 	.word	0x01d2004c
 c000a30:	01c00004 	.word	0x01c00004
 c000a34:	c0002000 	.word	0xc0002000
 c000a38:	01d20050 	.word	0x01d20050

0c000a3c <malloc>:

//--------------------------------HEAP---------------------------------//
void * malloc(unsigned nbyte) 
/*Very simple; Use malloc() & free() like Stack*/
//void *mallocPt=Image$$RW$$Limit;
{
 c000a3c:	e1a0c00d 	mov	ip, sp
 c000a40:	e92dd800 	push	{fp, ip, lr, pc}
 c000a44:	e24cb004 	sub	fp, ip, #4
 c000a48:	e24dd010 	sub	sp, sp, #16
 c000a4c:	e50b0018 	str	r0, [fp, #-24]	; 0xffffffe8
    void *returnPt=mallocPt;
 c000a50:	e59f307c 	ldr	r3, [pc, #124]	; c000ad4 <malloc+0x98>
 c000a54:	e5933000 	ldr	r3, [r3]
 c000a58:	e50b3010 	str	r3, [fp, #-16]

    mallocPt= (int *)mallocPt+nbyte/4+((nbyte%4)>0); //to align 4byte
 c000a5c:	e59f3070 	ldr	r3, [pc, #112]	; c000ad4 <malloc+0x98>
 c000a60:	e5932000 	ldr	r2, [r3]
 c000a64:	e51b3018 	ldr	r3, [fp, #-24]	; 0xffffffe8
 c000a68:	e1a01123 	lsr	r1, r3, #2
 c000a6c:	e51b3018 	ldr	r3, [fp, #-24]	; 0xffffffe8
 c000a70:	e2033003 	and	r3, r3, #3
 c000a74:	e3530000 	cmp	r3, #0
 c000a78:	03a03000 	moveq	r3, #0
 c000a7c:	13a03001 	movne	r3, #1
 c000a80:	e0813003 	add	r3, r1, r3
 c000a84:	e1a03103 	lsl	r3, r3, #2
 c000a88:	e0822003 	add	r2, r2, r3
 c000a8c:	e59f3040 	ldr	r3, [pc, #64]	; c000ad4 <malloc+0x98>
 c000a90:	e5832000 	str	r2, [r3]

    if( (int)mallocPt > HEAPEND )
 c000a94:	e59f3038 	ldr	r3, [pc, #56]	; c000ad4 <malloc+0x98>
 c000a98:	e5933000 	ldr	r3, [r3]
 c000a9c:	e1a02003 	mov	r2, r3
 c000aa0:	e59f3030 	ldr	r3, [pc, #48]	; c000ad8 <malloc+0x9c>
 c000aa4:	e1520003 	cmp	r2, r3
 c000aa8:	da000004 	ble	c000ac0 <malloc+0x84>
    {
		mallocPt=returnPt;
 c000aac:	e59f3020 	ldr	r3, [pc, #32]	; c000ad4 <malloc+0x98>
 c000ab0:	e51b2010 	ldr	r2, [fp, #-16]
 c000ab4:	e5832000 	str	r2, [r3]
		return NULL;
 c000ab8:	e3a03000 	mov	r3, #0
 c000abc:	ea000000 	b	c000ac4 <malloc+0x88>
    }
    return returnPt;
 c000ac0:	e51b3010 	ldr	r3, [fp, #-16]
}
 c000ac4:	e1a00003 	mov	r0, r3
 c000ac8:	e24bd00c 	sub	sp, fp, #12
 c000acc:	e89d6800 	ldm	sp, {fp, sp, lr}
 c000ad0:	e12fff1e 	bx	lr
 c000ad4:	0c00a4d8 	.word	0x0c00a4d8
 c000ad8:	0c7ff000 	.word	0x0c7ff000

0c000adc <free>:

void free(void *pt)
{
 c000adc:	e1a0c00d 	mov	ip, sp
 c000ae0:	e92dd800 	push	{fp, ip, lr, pc}
 c000ae4:	e24cb004 	sub	fp, ip, #4
 c000ae8:	e24dd008 	sub	sp, sp, #8
 c000aec:	e50b0010 	str	r0, [fp, #-16]
    mallocPt=pt;
 c000af0:	e59f3010 	ldr	r3, [pc, #16]	; c000b08 <free+0x2c>
 c000af4:	e51b2010 	ldr	r2, [fp, #-16]
 c000af8:	e5832000 	str	r2, [r3]
}
 c000afc:	e24bd00c 	sub	sp, fp, #12
 c000b00:	e89d6800 	ldm	sp, {fp, sp, lr}
 c000b04:	e12fff1e 	bx	lr
 c000b08:	0c00a4d8 	.word	0x0c00a4d8

0c000b0c <sys_init>:

//--------------------------------INIT---------------------------------//
void sys_init()// Interrupt & Port
{
 c000b0c:	e1a0c00d 	mov	ip, sp
 c000b10:	e92dd800 	push	{fp, ip, lr, pc}
 c000b14:	e24cb004 	sub	fp, ip, #4
    /* enable interrupt */
	rINTMOD=0x0;
 c000b18:	e59f304c 	ldr	r3, [pc, #76]	; c000b6c <sys_init+0x60>
 c000b1c:	e3a02000 	mov	r2, #0
 c000b20:	e5832000 	str	r2, [r3]
	rINTCON=0x1;
 c000b24:	e3a0361e 	mov	r3, #31457280	; 0x1e00000
 c000b28:	e3a02001 	mov	r2, #1
 c000b2c:	e5832000 	str	r2, [r3]
    rI_ISPC = 0xffffffff;			/* clear all interrupt pend	*/
 c000b30:	e59f3038 	ldr	r3, [pc, #56]	; c000b70 <sys_init+0x64>
 c000b34:	e3e02000 	mvn	r2, #0
 c000b38:	e5832000 	str	r2, [r3]
	rEXTINTPND = 0xf;				// clear EXTINTPND reg
 c000b3c:	e59f3030 	ldr	r3, [pc, #48]	; c000b74 <sys_init+0x68>
 c000b40:	e3a0200f 	mov	r2, #15
 c000b44:	e5832000 	str	r2, [r3]
	Port_Init();					/* Initial 44B0X's I/O port */	
 c000b48:	ebffff57 	bl	c0008ac <Port_Init>
	Delay(0);						/* delay time				*/
 c000b4c:	e3a00000 	mov	r0, #0
 c000b50:	ebfffeee 	bl	c000710 <Delay>
	rINTMSK    = ~(BIT_GLOBAL); // Emascara todas las lineas excepto bit global
 c000b54:	e59f301c 	ldr	r3, [pc, #28]	; c000b78 <sys_init+0x6c>
 c000b58:	e3e02301 	mvn	r2, #67108864	; 0x4000000
 c000b5c:	e5832000 	str	r2, [r3]

}
 c000b60:	e24bd00c 	sub	sp, fp, #12
 c000b64:	e89d6800 	ldm	sp, {fp, sp, lr}
 c000b68:	e12fff1e 	bx	lr
 c000b6c:	01e00008 	.word	0x01e00008
 c000b70:	01e00024 	.word	0x01e00024
 c000b74:	01d20054 	.word	0x01d20054
 c000b78:	01e0000c 	.word	0x01e0000c

0c000b7c <D8Led_init>:
/*--- declaracion de funciones ---*/
void D8Led_init(void);
void D8Led_symbol(int value);
/*--- codigo de las funciones ---*/
void D8Led_init(void)
{
 c000b7c:	e1a0c00d 	mov	ip, sp
 c000b80:	e92dd800 	push	{fp, ip, lr, pc}
 c000b84:	e24cb004 	sub	fp, ip, #4
/* Estado inicial del display con todos los segmentos iluminados
(buscar en los ficheros de cabecera la direccion implicada--->44blib.h) */ 
	LED8ADDR = 0; 
 c000b88:	e3a03785 	mov	r3, #34865152	; 0x2140000
 c000b8c:	e3a02000 	mov	r2, #0
 c000b90:	e5c32000 	strb	r2, [r3]
}
 c000b94:	e24bd00c 	sub	sp, fp, #12
 c000b98:	e89d6800 	ldm	sp, {fp, sp, lr}
 c000b9c:	e12fff1e 	bx	lr

0c000ba0 <D8Led_symbol>:
void D8Led_symbol(int value)
{
 c000ba0:	e1a0c00d 	mov	ip, sp
 c000ba4:	e92dd800 	push	{fp, ip, lr, pc}
 c000ba8:	e24cb004 	sub	fp, ip, #4
 c000bac:	e24dd008 	sub	sp, sp, #8
 c000bb0:	e50b0010 	str	r0, [fp, #-16]
// muestra Symbol[value] en el display
	LED8ADDR=Symbol[value];
 c000bb4:	e3a03785 	mov	r3, #34865152	; 0x2140000
 c000bb8:	e59f2018 	ldr	r2, [pc, #24]	; c000bd8 <D8Led_symbol+0x38>
 c000bbc:	e51b1010 	ldr	r1, [fp, #-16]
 c000bc0:	e7922101 	ldr	r2, [r2, r1, lsl #2]
 c000bc4:	e20220ff 	and	r2, r2, #255	; 0xff
 c000bc8:	e5c32000 	strb	r2, [r3]
 c000bcc:	e24bd00c 	sub	sp, fp, #12
 c000bd0:	e89d6800 	ldm	sp, {fp, sp, lr}
 c000bd4:	e12fff1e 	bx	lr
 c000bd8:	0c00a4e4 	.word	0x0c00a4e4

0c000bdc <Eint4567_init>:
//char str[256];



/*--- codigo de funciones ---*/
void Eint4567_init(void) {
 c000bdc:	e1a0c00d 	mov	ip, sp
 c000be0:	e92dd800 	push	{fp, ip, lr, pc}
 c000be4:	e24cb004 	sub	fp, ip, #4

/* Configuracion del controlador de interrupciones */

	// Borra EXTINTPND escribiendo 1s en el propio registro
	rEXTINTPND = 0xf;
 c000be8:	e59f3088 	ldr	r3, [pc, #136]	; c000c78 <Eint4567_init+0x9c>
 c000bec:	e3a0200f 	mov	r2, #15
 c000bf0:	e5832000 	str	r2, [r3]

	// Borra INTPND escribiendo 1s en I_ISPC
	rI_ISPC = 0xfffffff;
 c000bf4:	e59f3080 	ldr	r3, [pc, #128]	; c000c7c <Eint4567_init+0xa0>
 c000bf8:	e3e0220f 	mvn	r2, #-268435456	; 0xf0000000
 c000bfc:	e5832000 	str	r2, [r3]

	// Configura las lineas como de tipo IRQ mediante INTMOD
	rINTMOD = 0x0000000;
 c000c00:	e59f3078 	ldr	r3, [pc, #120]	; c000c80 <Eint4567_init+0xa4>
 c000c04:	e3a02000 	mov	r2, #0
 c000c08:	e5832000 	str	r2, [r3]

	// Habilita int. vectorizadas y la linea IRQ (FIQ no) mediante INTCON
	rINTCON = 0x1;
 c000c0c:	e3a0361e 	mov	r3, #31457280	; 0x1e00000
 c000c10:	e3a02001 	mov	r2, #1
 c000c14:	e5832000 	str	r2, [r3]

	// Enmascara todas las lineas excepto Eint4567 y el bit global (INTMSK)
	rINTMSK = 0xffffffff & ~BIT_GLOBAL & ~BIT_EINT4567;
 c000c18:	e59f3064 	ldr	r3, [pc, #100]	; c000c84 <Eint4567_init+0xa8>
 c000c1c:	e3e02642 	mvn	r2, #69206016	; 0x4200000
 c000c20:	e5832000 	str	r2, [r3]

	// Establecer la rutina de servicio para Eint4567
	pISR_EINT4567 = (unsigned) Eint4567_ISR;
 c000c24:	e59f305c 	ldr	r3, [pc, #92]	; c000c88 <Eint4567_init+0xac>
 c000c28:	e59f205c 	ldr	r2, [pc, #92]	; c000c8c <Eint4567_init+0xb0>
 c000c2c:	e5832000 	str	r2, [r3]

/* Configuracion del puerto G */
	// Establece la funcion de los pines (EINT7-EINT0)
	// Bits 6 y 7 a 0, resto a 1s
	rPCONG = 0xff3f;
 c000c30:	e59f3058 	ldr	r3, [pc, #88]	; c000c90 <Eint4567_init+0xb4>
 c000c34:	e59f2058 	ldr	r2, [pc, #88]	; c000c94 <Eint4567_init+0xb8>
 c000c38:	e5832000 	str	r2, [r3]

	//Habilita las resistencias de pull-up
	rPUPG = 0;
 c000c3c:	e59f3054 	ldr	r3, [pc, #84]	; c000c98 <Eint4567_init+0xbc>
 c000c40:	e3a02000 	mov	r2, #0
 c000c44:	e5832000 	str	r2, [r3]

	// Configura las lineas de int. como de flanco de bajada mediante EXTINT
	// _01x_01x_01x_01x_01x_01x_01x_01x ; x,_ = doesnt care
	rEXTINT = 0x33333333;
 c000c48:	e59f304c 	ldr	r3, [pc, #76]	; c000c9c <Eint4567_init+0xc0>
 c000c4c:	e59f204c 	ldr	r2, [pc, #76]	; c000ca0 <Eint4567_init+0xc4>
 c000c50:	e5832000 	str	r2, [r3]

/* Por precaucion, se vuelven a borrar los bits de INTPND y EXTINTPND */
	rEXTINTPND = 0xf;
 c000c54:	e59f301c 	ldr	r3, [pc, #28]	; c000c78 <Eint4567_init+0x9c>
 c000c58:	e3a0200f 	mov	r2, #15
 c000c5c:	e5832000 	str	r2, [r3]
	rI_ISPC = 0xfffffff;
 c000c60:	e59f3014 	ldr	r3, [pc, #20]	; c000c7c <Eint4567_init+0xa0>
 c000c64:	e3e0220f 	mvn	r2, #-268435456	; 0xf0000000
 c000c68:	e5832000 	str	r2, [r3]
}
 c000c6c:	e24bd00c 	sub	sp, fp, #12
 c000c70:	e89d6800 	ldm	sp, {fp, sp, lr}
 c000c74:	e12fff1e 	bx	lr
 c000c78:	01d20054 	.word	0x01d20054
 c000c7c:	01e00024 	.word	0x01e00024
 c000c80:	01e00008 	.word	0x01e00008
 c000c84:	01e0000c 	.word	0x01e0000c
 c000c88:	0c7fff74 	.word	0x0c7fff74
 c000c8c:	0c000ca4 	.word	0x0c000ca4
 c000c90:	01d20040 	.word	0x01d20040
 c000c94:	0000ff3f 	.word	0x0000ff3f
 c000c98:	01d20048 	.word	0x01d20048
 c000c9c:	01d20050 	.word	0x01d20050
 c000ca0:	33333333 	.word	0x33333333

0c000ca4 <Eint4567_ISR>:


void Eint4567_ISR(void) {
 c000ca4:	e52dc004 	push	{ip}		; (str ip, [sp, #-4]!)
 c000ca8:	e1a0c00d 	mov	ip, sp
 c000cac:	e92dd80f 	push	{r0, r1, r2, r3, fp, ip, lr, pc}
 c000cb0:	e24cb004 	sub	fp, ip, #4



	//Delay para eliminar rebotes
	DelayMs(100);
 c000cb4:	e3a00064 	mov	r0, #100	; 0x64
 c000cb8:	ebfffee2 	bl	c000848 <DelayMs>

	// IZQ
	if ( (rPDATG & 0x00000040) == 0 ) {
 c000cbc:	e59f308c 	ldr	r3, [pc, #140]	; c000d50 <Eint4567_ISR+0xac>
 c000cc0:	e5933000 	ldr	r3, [r3]
 c000cc4:	e2033040 	and	r3, r3, #64	; 0x40
 c000cc8:	e3530000 	cmp	r3, #0
 c000ccc:	1a000002 	bne	c000cdc <Eint4567_ISR+0x38>
		Uart1_SendByte(CR_LEFT);
 c000cd0:	e3a0004c 	mov	r0, #76	; 0x4c
 c000cd4:	eb0002d8 	bl	c00183c <Uart1_SendByte>
	// DR
	else if ( (rPDATG & 0x00000080) == 0 ) {
		Uart1_SendByte(CR_RIGHT);
	}

	while ( (rPDATG & 0x00000040) == 0 || (rPDATG & 0x00000080) == 0) {}
 c000cd8:	ea000008 	b	c000d00 <Eint4567_ISR+0x5c>
	// IZQ
	if ( (rPDATG & 0x00000040) == 0 ) {
		Uart1_SendByte(CR_LEFT);
	}
	// DR
	else if ( (rPDATG & 0x00000080) == 0 ) {
 c000cdc:	e59f306c 	ldr	r3, [pc, #108]	; c000d50 <Eint4567_ISR+0xac>
 c000ce0:	e5933000 	ldr	r3, [r3]
 c000ce4:	e2033080 	and	r3, r3, #128	; 0x80
 c000ce8:	e3530000 	cmp	r3, #0
 c000cec:	1a000002 	bne	c000cfc <Eint4567_ISR+0x58>
		Uart1_SendByte(CR_RIGHT);
 c000cf0:	e3a00052 	mov	r0, #82	; 0x52
 c000cf4:	eb0002d0 	bl	c00183c <Uart1_SendByte>
	}

	while ( (rPDATG & 0x00000040) == 0 || (rPDATG & 0x00000080) == 0) {}
 c000cf8:	ea000000 	b	c000d00 <Eint4567_ISR+0x5c>
 c000cfc:	e1a00000 	nop			; (mov r0, r0)
 c000d00:	e59f3048 	ldr	r3, [pc, #72]	; c000d50 <Eint4567_ISR+0xac>
 c000d04:	e5933000 	ldr	r3, [r3]
 c000d08:	e2033040 	and	r3, r3, #64	; 0x40
 c000d0c:	e3530000 	cmp	r3, #0
 c000d10:	0afffffa 	beq	c000d00 <Eint4567_ISR+0x5c>
 c000d14:	e59f3034 	ldr	r3, [pc, #52]	; c000d50 <Eint4567_ISR+0xac>
 c000d18:	e5933000 	ldr	r3, [r3]
 c000d1c:	e2033080 	and	r3, r3, #128	; 0x80
 c000d20:	e3530000 	cmp	r3, #0
 c000d24:	0afffff5 	beq	c000d00 <Eint4567_ISR+0x5c>

	//Borramos EXTINTPND ambas lneas EINT7 y EINT6
	// Ponemos a 1s los bits de EXTINTPND3(EINT7) y EXTINTPND2(EINT6)
	rEXTINTPND = 0xC;
 c000d28:	e59f3024 	ldr	r3, [pc, #36]	; c000d54 <Eint4567_ISR+0xb0>
 c000d2c:	e3a0200c 	mov	r2, #12
 c000d30:	e5832000 	str	r2, [r3]

	//Borramos INTPND usando ISPC
	rI_ISPC = BIT_EINT4567;
 c000d34:	e59f301c 	ldr	r3, [pc, #28]	; c000d58 <Eint4567_ISR+0xb4>
 c000d38:	e3a02602 	mov	r2, #2097152	; 0x200000
 c000d3c:	e5832000 	str	r2, [r3]

}
 c000d40:	e24bd01c 	sub	sp, fp, #28
 c000d44:	e89d680f 	ldm	sp, {r0, r1, r2, r3, fp, sp, lr}
 c000d48:	e49dc004 	pop	{ip}		; (ldr ip, [sp], #4)
 c000d4c:	e25ef004 	subs	pc, lr, #4
 c000d50:	01d20044 	.word	0x01d20044
 c000d54:	01d20054 	.word	0x01d20054
 c000d58:	01e00024 	.word	0x01e00024

0c000d5c <keyboard_init>:
/*--- Declaracion de funciones ---*/
void keyboard_init();
void KeyboardInt(void) __attribute__ ((interrupt ("IRQ")));
/*--- Codigo de las funciones ---*/

void keyboard_init() {
 c000d5c:	e1a0c00d 	mov	ip, sp
 c000d60:	e92dd800 	push	{fp, ip, lr, pc}
 c000d64:	e24cb004 	sub	fp, ip, #4
	/* Configurar el puerto G (si no lo estuviese ya) */	

		// Establece la funcion de los pines (EINT0-7)
		rPCONG = 0xffff;
 c000d68:	e59f3078 	ldr	r3, [pc, #120]	; c000de8 <keyboard_init+0x8c>
 c000d6c:	e59f2078 	ldr	r2, [pc, #120]	; c000dec <keyboard_init+0x90>
 c000d70:	e5832000 	str	r2, [r3]

		// Habilita el "pull up" del puerto
		rPUPG = 0;
 c000d74:	e59f3074 	ldr	r3, [pc, #116]	; c000df0 <keyboard_init+0x94>
 c000d78:	e3a02000 	mov	r2, #0
 c000d7c:	e5832000 	str	r2, [r3]

		// Configura las lineas de int. como de flanco de bajada mediante EXTINT
		rEXTINT = 0x33333333;
 c000d80:	e59f306c 	ldr	r3, [pc, #108]	; c000df4 <keyboard_init+0x98>
 c000d84:	e59f206c 	ldr	r2, [pc, #108]	; c000df8 <keyboard_init+0x9c>
 c000d88:	e5832000 	str	r2, [r3]

	/* Establece la rutina de servicio para EINT1 */
		pISR_EINT1 = (unsigned) KeyboardInt;
 c000d8c:	e59f3068 	ldr	r3, [pc, #104]	; c000dfc <keyboard_init+0xa0>
 c000d90:	e59f2068 	ldr	r2, [pc, #104]	; c000e00 <keyboard_init+0xa4>
 c000d94:	e5832000 	str	r2, [r3]

	/* Configurar controlador de interrupciones */

		// Borra INTPND escribiendo 1s en I_ISPC
		rI_ISPC = BIT_EINT1;
 c000d98:	e59f3064 	ldr	r3, [pc, #100]	; c000e04 <keyboard_init+0xa8>
 c000d9c:	e3a02401 	mov	r2, #16777216	; 0x1000000
 c000da0:	e5832000 	str	r2, [r3]

		// Configura las lineas como de tipo IRQ mediante INTMOD
		rINTMOD = 0x0;
 c000da4:	e59f305c 	ldr	r3, [pc, #92]	; c000e08 <keyboard_init+0xac>
 c000da8:	e3a02000 	mov	r2, #0
 c000dac:	e5832000 	str	r2, [r3]

		// Habilita int. vectorizadas y la linea IRQ (FIQ no) mediante INTCON
		rINTCON = 0x1;
 c000db0:	e3a0361e 	mov	r3, #31457280	; 0x1e00000
 c000db4:	e3a02001 	mov	r2, #1
 c000db8:	e5832000 	str	r2, [r3]

	/* Habilitar linea EINT1 */
	rINTMSK = rINTMSK & ~(BIT_EINT1);
 c000dbc:	e59f3048 	ldr	r3, [pc, #72]	; c000e0c <keyboard_init+0xb0>
 c000dc0:	e59f2044 	ldr	r2, [pc, #68]	; c000e0c <keyboard_init+0xb0>
 c000dc4:	e5922000 	ldr	r2, [r2]
 c000dc8:	e3c22401 	bic	r2, r2, #16777216	; 0x1000000
 c000dcc:	e5832000 	str	r2, [r3]

	/* Por precaucion, se vuelven a borrar los bits de INTPND correspondientes*/
	rI_ISPC = BIT_EINT1;
 c000dd0:	e59f302c 	ldr	r3, [pc, #44]	; c000e04 <keyboard_init+0xa8>
 c000dd4:	e3a02401 	mov	r2, #16777216	; 0x1000000
 c000dd8:	e5832000 	str	r2, [r3]
}
 c000ddc:	e24bd00c 	sub	sp, fp, #12
 c000de0:	e89d6800 	ldm	sp, {fp, sp, lr}
 c000de4:	e12fff1e 	bx	lr
 c000de8:	01d20040 	.word	0x01d20040
 c000dec:	0000ffff 	.word	0x0000ffff
 c000df0:	01d20048 	.word	0x01d20048
 c000df4:	01d20050 	.word	0x01d20050
 c000df8:	33333333 	.word	0x33333333
 c000dfc:	0c7fff80 	.word	0x0c7fff80
 c000e00:	0c000e10 	.word	0x0c000e10
 c000e04:	01e00024 	.word	0x01e00024
 c000e08:	01e00008 	.word	0x01e00008
 c000e0c:	01e0000c 	.word	0x01e0000c

0c000e10 <KeyboardInt>:

void KeyboardInt(void) {
 c000e10:	e52dc004 	push	{ip}		; (str ip, [sp, #-4]!)
 c000e14:	e1a0c00d 	mov	ip, sp
 c000e18:	e92dd80f 	push	{r0, r1, r2, r3, fp, ip, lr, pc}
 c000e1c:	e24cb004 	sub	fp, ip, #4
 c000e20:	e24dd008 	sub	sp, sp, #8


	/* Esperar trp mediante la funcion DelayMs() */
		DelayMs(20);
 c000e24:	e3a00014 	mov	r0, #20
 c000e28:	ebfffe86 	bl	c000848 <DelayMs>

		/* Identificar la tecla */
		int key = key_read();
 c000e2c:	eb00005b 	bl	c000fa0 <key_read>
 c000e30:	e50b0020 	str	r0, [fp, #-32]	; 0xffffffe0


		/* Si la tecla se ha identificado, visualizarla en el 8SEG */
		if(key > -1) {
 c000e34:	e51b3020 	ldr	r3, [fp, #-32]	; 0xffffffe0
 c000e38:	e3530000 	cmp	r3, #0
 c000e3c:	ba000044 	blt	c000f54 <KeyboardInt+0x144>

			switch(key) {
 c000e40:	e51b3020 	ldr	r3, [fp, #-32]	; 0xffffffe0
 c000e44:	e353000f 	cmp	r3, #15
 c000e48:	979ff103 	ldrls	pc, [pc, r3, lsl #2]
 c000e4c:	ea000042 	b	c000f5c <KeyboardInt+0x14c>
 c000e50:	0c000e90 	.word	0x0c000e90
 c000e54:	0c000e9c 	.word	0x0c000e9c
 c000e58:	0c000ea8 	.word	0x0c000ea8
 c000e5c:	0c000eb4 	.word	0x0c000eb4
 c000e60:	0c000ec0 	.word	0x0c000ec0
 c000e64:	0c000ecc 	.word	0x0c000ecc
 c000e68:	0c000ed8 	.word	0x0c000ed8
 c000e6c:	0c000ee4 	.word	0x0c000ee4
 c000e70:	0c000ef0 	.word	0x0c000ef0
 c000e74:	0c000efc 	.word	0x0c000efc
 c000e78:	0c000f08 	.word	0x0c000f08
 c000e7c:	0c000f14 	.word	0x0c000f14
 c000e80:	0c000f20 	.word	0x0c000f20
 c000e84:	0c000f2c 	.word	0x0c000f2c
 c000e88:	0c000f38 	.word	0x0c000f38
 c000e8c:	0c000f44 	.word	0x0c000f44
				case 0: Uart1_SendByte(CR_0); break;
 c000e90:	e3a00030 	mov	r0, #48	; 0x30
 c000e94:	eb000268 	bl	c00183c <Uart1_SendByte>
 c000e98:	ea00002c 	b	c000f50 <KeyboardInt+0x140>
				case 1: Uart1_SendByte(CR_1); break;
 c000e9c:	e3a00031 	mov	r0, #49	; 0x31
 c000ea0:	eb000265 	bl	c00183c <Uart1_SendByte>
 c000ea4:	ea000029 	b	c000f50 <KeyboardInt+0x140>
				case 2: Uart1_SendByte(CR_2); break;
 c000ea8:	e3a00032 	mov	r0, #50	; 0x32
 c000eac:	eb000262 	bl	c00183c <Uart1_SendByte>
 c000eb0:	ea000026 	b	c000f50 <KeyboardInt+0x140>
				case 3: Uart1_SendByte(CR_3); break;
 c000eb4:	e3a00033 	mov	r0, #51	; 0x33
 c000eb8:	eb00025f 	bl	c00183c <Uart1_SendByte>
 c000ebc:	ea000023 	b	c000f50 <KeyboardInt+0x140>
				case 4: Uart1_SendByte(CR_4); break;
 c000ec0:	e3a00034 	mov	r0, #52	; 0x34
 c000ec4:	eb00025c 	bl	c00183c <Uart1_SendByte>
 c000ec8:	ea000020 	b	c000f50 <KeyboardInt+0x140>
				case 5: Uart1_SendByte(CR_5); break;
 c000ecc:	e3a00035 	mov	r0, #53	; 0x35
 c000ed0:	eb000259 	bl	c00183c <Uart1_SendByte>
 c000ed4:	ea00001d 	b	c000f50 <KeyboardInt+0x140>
				case 6: Uart1_SendByte(CR_6); break;
 c000ed8:	e3a00036 	mov	r0, #54	; 0x36
 c000edc:	eb000256 	bl	c00183c <Uart1_SendByte>
 c000ee0:	ea00001a 	b	c000f50 <KeyboardInt+0x140>
				case 7: Uart1_SendByte(CR_7); break;
 c000ee4:	e3a00037 	mov	r0, #55	; 0x37
 c000ee8:	eb000253 	bl	c00183c <Uart1_SendByte>
 c000eec:	ea000017 	b	c000f50 <KeyboardInt+0x140>
				case 8: Uart1_SendByte(CR_8); break;
 c000ef0:	e3a00038 	mov	r0, #56	; 0x38
 c000ef4:	eb000250 	bl	c00183c <Uart1_SendByte>
 c000ef8:	ea000014 	b	c000f50 <KeyboardInt+0x140>
				case 9: Uart1_SendByte(CR_9); break;
 c000efc:	e3a00039 	mov	r0, #57	; 0x39
 c000f00:	eb00024d 	bl	c00183c <Uart1_SendByte>
 c000f04:	ea000011 	b	c000f50 <KeyboardInt+0x140>
				case 10: Uart1_SendByte(CR_A); break;
 c000f08:	e3a00041 	mov	r0, #65	; 0x41
 c000f0c:	eb00024a 	bl	c00183c <Uart1_SendByte>
 c000f10:	ea00000e 	b	c000f50 <KeyboardInt+0x140>
				case 11: Uart1_SendByte(CR_B); break;
 c000f14:	e3a00042 	mov	r0, #66	; 0x42
 c000f18:	eb000247 	bl	c00183c <Uart1_SendByte>
 c000f1c:	ea00000b 	b	c000f50 <KeyboardInt+0x140>
				case 12: Uart1_SendByte(CR_C); break;
 c000f20:	e3a00043 	mov	r0, #67	; 0x43
 c000f24:	eb000244 	bl	c00183c <Uart1_SendByte>
 c000f28:	ea000008 	b	c000f50 <KeyboardInt+0x140>
				case 13: Uart1_SendByte(CR_D); break;
 c000f2c:	e3a00044 	mov	r0, #68	; 0x44
 c000f30:	eb000241 	bl	c00183c <Uart1_SendByte>
 c000f34:	ea000005 	b	c000f50 <KeyboardInt+0x140>
				case 14: Uart1_SendByte(CR_E); break;
 c000f38:	e3a00045 	mov	r0, #69	; 0x45
 c000f3c:	eb00023e 	bl	c00183c <Uart1_SendByte>
 c000f40:	ea000002 	b	c000f50 <KeyboardInt+0x140>
				case 15: Uart1_SendByte(CR_F); break;
 c000f44:	e3a00046 	mov	r0, #70	; 0x46
 c000f48:	eb00023b 	bl	c00183c <Uart1_SendByte>
 c000f4c:	e1a00000 	nop			; (mov r0, r0)


		}

		/* Esperar a se libere la tecla: consultar bit 1 del registro de datos del puerto G */
		while ( (rPDATG & 0x00000002) == 0 ){
 c000f50:	ea000002 	b	c000f60 <KeyboardInt+0x150>
 c000f54:	e1a00000 	nop			; (mov r0, r0)
 c000f58:	ea000000 	b	c000f60 <KeyboardInt+0x150>
 c000f5c:	e1a00000 	nop			; (mov r0, r0)
 c000f60:	e59f3030 	ldr	r3, [pc, #48]	; c000f98 <KeyboardInt+0x188>
 c000f64:	e5933000 	ldr	r3, [r3]
 c000f68:	e2033002 	and	r3, r3, #2
 c000f6c:	e3530000 	cmp	r3, #0
 c000f70:	0afffffa 	beq	c000f60 <KeyboardInt+0x150>
			//NOTHING
		}

		/* Esperar trd mediante la funcion Delay() */
		DelayMs(100);
 c000f74:	e3a00064 	mov	r0, #100	; 0x64
 c000f78:	ebfffe32 	bl	c000848 <DelayMs>




	/* Borrar interrupcin de teclado */
	rI_ISPC = BIT_EINT1;
 c000f7c:	e59f3018 	ldr	r3, [pc, #24]	; c000f9c <KeyboardInt+0x18c>
 c000f80:	e3a02401 	mov	r2, #16777216	; 0x1000000
 c000f84:	e5832000 	str	r2, [r3]

}
 c000f88:	e24bd01c 	sub	sp, fp, #28
 c000f8c:	e89d680f 	ldm	sp, {r0, r1, r2, r3, fp, sp, lr}
 c000f90:	e49dc004 	pop	{ip}		; (ldr ip, [sp], #4)
 c000f94:	e25ef004 	subs	pc, lr, #4
 c000f98:	01d20044 	.word	0x01d20044
 c000f9c:	01e00024 	.word	0x01e00024

0c000fa0 <key_read>:
int key_read() {
 c000fa0:	e1a0c00d 	mov	ip, sp
 c000fa4:	e92dd800 	push	{fp, ip, lr, pc}
 c000fa8:	e24cb004 	sub	fp, ip, #4
 c000fac:	e24dd010 	sub	sp, sp, #16

	int value= -1;
 c000fb0:	e3e03000 	mvn	r3, #0
 c000fb4:	e50b3010 	str	r3, [fp, #-16]
	char temp;

	UCHAR values[] = {0xfd, 0xfb, 0xf7, 0xef};
 c000fb8:	e59f3118 	ldr	r3, [pc, #280]	; c0010d8 <key_read+0x138>
 c000fbc:	e5933000 	ldr	r3, [r3]
 c000fc0:	e50b301c 	str	r3, [fp, #-28]	; 0xffffffe4

	int i;
	for(i=0;i<4;i++) {
 c000fc4:	e3a03000 	mov	r3, #0
 c000fc8:	e50b3014 	str	r3, [fp, #-20]	; 0xffffffec
 c000fcc:	ea000039 	b	c0010b8 <key_read+0x118>

		temp = *(keyboard_base + values[i]) & KEY_VALUE_MASK;
 c000fd0:	e59f3104 	ldr	r3, [pc, #260]	; c0010dc <key_read+0x13c>
 c000fd4:	e5932000 	ldr	r2, [r3]
 c000fd8:	e3e0300f 	mvn	r3, #15
 c000fdc:	e51b1014 	ldr	r1, [fp, #-20]	; 0xffffffec
 c000fe0:	e24b000c 	sub	r0, fp, #12
 c000fe4:	e0801001 	add	r1, r0, r1
 c000fe8:	e0813003 	add	r3, r1, r3
 c000fec:	e5d33000 	ldrb	r3, [r3]
 c000ff0:	e0823003 	add	r3, r2, r3
 c000ff4:	e5d33000 	ldrb	r3, [r3]
 c000ff8:	e20330ff 	and	r3, r3, #255	; 0xff
 c000ffc:	e203300f 	and	r3, r3, #15
 c001000:	e54b3015 	strb	r3, [fp, #-21]	; 0xffffffeb
		switch (temp) {
 c001004:	e55b3015 	ldrb	r3, [fp, #-21]	; 0xffffffeb
 c001008:	e2433007 	sub	r3, r3, #7
 c00100c:	e3530007 	cmp	r3, #7
 c001010:	979ff103 	ldrls	pc, [pc, r3, lsl #2]
 c001014:	ea000024 	b	c0010ac <key_read+0x10c>
 c001018:	0c001038 	.word	0x0c001038
 c00101c:	0c0010ac 	.word	0x0c0010ac
 c001020:	0c0010ac 	.word	0x0c0010ac
 c001024:	0c0010ac 	.word	0x0c0010ac
 c001028:	0c00104c 	.word	0x0c00104c
 c00102c:	0c0010ac 	.word	0x0c0010ac
 c001030:	0c00106c 	.word	0x0c00106c
 c001034:	0c00108c 	.word	0x0c00108c
			case 0x7:  value = 12-i*4; break;
 c001038:	e51b3014 	ldr	r3, [fp, #-20]	; 0xffffffec
 c00103c:	e2633003 	rsb	r3, r3, #3
 c001040:	e1a03103 	lsl	r3, r3, #2
 c001044:	e50b3010 	str	r3, [fp, #-16]
 c001048:	ea000017 	b	c0010ac <key_read+0x10c>
			case 0xB:  value = 13-i*4; break;
 c00104c:	e51b2014 	ldr	r2, [fp, #-20]	; 0xffffffec
 c001050:	e1a03002 	mov	r3, r2
 c001054:	e1a03f03 	lsl	r3, r3, #30
 c001058:	e0623003 	rsb	r3, r2, r3
 c00105c:	e1a03103 	lsl	r3, r3, #2
 c001060:	e283300d 	add	r3, r3, #13
 c001064:	e50b3010 	str	r3, [fp, #-16]
 c001068:	ea00000f 	b	c0010ac <key_read+0x10c>
			case 0xD:  value = 14-i*4; break;
 c00106c:	e51b2014 	ldr	r2, [fp, #-20]	; 0xffffffec
 c001070:	e1a03002 	mov	r3, r2
 c001074:	e1a03f03 	lsl	r3, r3, #30
 c001078:	e0623003 	rsb	r3, r2, r3
 c00107c:	e1a03103 	lsl	r3, r3, #2
 c001080:	e283300e 	add	r3, r3, #14
 c001084:	e50b3010 	str	r3, [fp, #-16]
 c001088:	ea000007 	b	c0010ac <key_read+0x10c>
			case 0xE:  value = 15-i*4; break;
 c00108c:	e51b2014 	ldr	r2, [fp, #-20]	; 0xffffffec
 c001090:	e1a03002 	mov	r3, r2
 c001094:	e1a03f03 	lsl	r3, r3, #30
 c001098:	e0623003 	rsb	r3, r2, r3
 c00109c:	e1a03103 	lsl	r3, r3, #2
 c0010a0:	e283300f 	add	r3, r3, #15
 c0010a4:	e50b3010 	str	r3, [fp, #-16]
 c0010a8:	e1a00000 	nop			; (mov r0, r0)
	char temp;

	UCHAR values[] = {0xfd, 0xfb, 0xf7, 0xef};

	int i;
	for(i=0;i<4;i++) {
 c0010ac:	e51b3014 	ldr	r3, [fp, #-20]	; 0xffffffec
 c0010b0:	e2833001 	add	r3, r3, #1
 c0010b4:	e50b3014 	str	r3, [fp, #-20]	; 0xffffffec
 c0010b8:	e51b3014 	ldr	r3, [fp, #-20]	; 0xffffffec
 c0010bc:	e3530003 	cmp	r3, #3
 c0010c0:	daffffc2 	ble	c000fd0 <key_read+0x30>
		}

	}
	

	return value;
 c0010c4:	e51b3010 	ldr	r3, [fp, #-16]

}
 c0010c8:	e1a00003 	mov	r0, r3
 c0010cc:	e24bd00c 	sub	sp, fp, #12
 c0010d0:	e89d6800 	ldm	sp, {fp, sp, lr}
 c0010d4:	e12fff1e 	bx	lr
 c0010d8:	0c00ae28 	.word	0x0c00ae28
 c0010dc:	0c00a524 	.word	0x0c00a524

0c0010e0 <leds_on>:
void led2_off(); // LED 2 apagado
void leds_switch(); // invierte el valor de los LEDs
void Led_Display(int LedStatus); // control directo del LED
/*--- codigo de las funciones ---*/
void leds_on()
{
 c0010e0:	e1a0c00d 	mov	ip, sp
 c0010e4:	e92dd800 	push	{fp, ip, lr, pc}
 c0010e8:	e24cb004 	sub	fp, ip, #4
	Led_Display(0x3);
 c0010ec:	e3a00003 	mov	r0, #3
 c0010f0:	eb00005a 	bl	c001260 <Led_Display>
}
 c0010f4:	e24bd00c 	sub	sp, fp, #12
 c0010f8:	e89d6800 	ldm	sp, {fp, sp, lr}
 c0010fc:	e12fff1e 	bx	lr

0c001100 <leds_off>:
void leds_off()
{
 c001100:	e1a0c00d 	mov	ip, sp
 c001104:	e92dd800 	push	{fp, ip, lr, pc}
 c001108:	e24cb004 	sub	fp, ip, #4
	Led_Display(0x0);
 c00110c:	e3a00000 	mov	r0, #0
 c001110:	eb000052 	bl	c001260 <Led_Display>
}
 c001114:	e24bd00c 	sub	sp, fp, #12
 c001118:	e89d6800 	ldm	sp, {fp, sp, lr}
 c00111c:	e12fff1e 	bx	lr

0c001120 <led1_on>:
void led1_on()
{
 c001120:	e1a0c00d 	mov	ip, sp
 c001124:	e92dd800 	push	{fp, ip, lr, pc}
 c001128:	e24cb004 	sub	fp, ip, #4
	led_state = led_state | 0x1;
 c00112c:	e59f3028 	ldr	r3, [pc, #40]	; c00115c <led1_on+0x3c>
 c001130:	e5933000 	ldr	r3, [r3]
 c001134:	e3832001 	orr	r2, r3, #1
 c001138:	e59f301c 	ldr	r3, [pc, #28]	; c00115c <led1_on+0x3c>
 c00113c:	e5832000 	str	r2, [r3]
	Led_Display(led_state);
 c001140:	e59f3014 	ldr	r3, [pc, #20]	; c00115c <led1_on+0x3c>
 c001144:	e5933000 	ldr	r3, [r3]
 c001148:	e1a00003 	mov	r0, r3
 c00114c:	eb000043 	bl	c001260 <Led_Display>
}
 c001150:	e24bd00c 	sub	sp, fp, #12
 c001154:	e89d6800 	ldm	sp, {fp, sp, lr}
 c001158:	e12fff1e 	bx	lr
 c00115c:	0c00b058 	.word	0x0c00b058

0c001160 <led1_off>:
void led1_off()
{
 c001160:	e1a0c00d 	mov	ip, sp
 c001164:	e92dd800 	push	{fp, ip, lr, pc}
 c001168:	e24cb004 	sub	fp, ip, #4
	led_state = led_state & 0xfe;
 c00116c:	e59f3028 	ldr	r3, [pc, #40]	; c00119c <led1_off+0x3c>
 c001170:	e5933000 	ldr	r3, [r3]
 c001174:	e20320fe 	and	r2, r3, #254	; 0xfe
 c001178:	e59f301c 	ldr	r3, [pc, #28]	; c00119c <led1_off+0x3c>
 c00117c:	e5832000 	str	r2, [r3]
	Led_Display(led_state);
 c001180:	e59f3014 	ldr	r3, [pc, #20]	; c00119c <led1_off+0x3c>
 c001184:	e5933000 	ldr	r3, [r3]
 c001188:	e1a00003 	mov	r0, r3
 c00118c:	eb000033 	bl	c001260 <Led_Display>
}
 c001190:	e24bd00c 	sub	sp, fp, #12
 c001194:	e89d6800 	ldm	sp, {fp, sp, lr}
 c001198:	e12fff1e 	bx	lr
 c00119c:	0c00b058 	.word	0x0c00b058

0c0011a0 <led2_on>:
void led2_on()
{
 c0011a0:	e1a0c00d 	mov	ip, sp
 c0011a4:	e92dd800 	push	{fp, ip, lr, pc}
 c0011a8:	e24cb004 	sub	fp, ip, #4
	led_state = led_state | 0x2;
 c0011ac:	e59f3028 	ldr	r3, [pc, #40]	; c0011dc <led2_on+0x3c>
 c0011b0:	e5933000 	ldr	r3, [r3]
 c0011b4:	e3832002 	orr	r2, r3, #2
 c0011b8:	e59f301c 	ldr	r3, [pc, #28]	; c0011dc <led2_on+0x3c>
 c0011bc:	e5832000 	str	r2, [r3]
	Led_Display(led_state);
 c0011c0:	e59f3014 	ldr	r3, [pc, #20]	; c0011dc <led2_on+0x3c>
 c0011c4:	e5933000 	ldr	r3, [r3]
 c0011c8:	e1a00003 	mov	r0, r3
 c0011cc:	eb000023 	bl	c001260 <Led_Display>
}
 c0011d0:	e24bd00c 	sub	sp, fp, #12
 c0011d4:	e89d6800 	ldm	sp, {fp, sp, lr}
 c0011d8:	e12fff1e 	bx	lr
 c0011dc:	0c00b058 	.word	0x0c00b058

0c0011e0 <led2_off>:
void led2_off()
{
 c0011e0:	e1a0c00d 	mov	ip, sp
 c0011e4:	e92dd800 	push	{fp, ip, lr, pc}
 c0011e8:	e24cb004 	sub	fp, ip, #4
	led_state = led_state & 0xfd;
 c0011ec:	e59f3028 	ldr	r3, [pc, #40]	; c00121c <led2_off+0x3c>
 c0011f0:	e5933000 	ldr	r3, [r3]
 c0011f4:	e20320fd 	and	r2, r3, #253	; 0xfd
 c0011f8:	e59f301c 	ldr	r3, [pc, #28]	; c00121c <led2_off+0x3c>
 c0011fc:	e5832000 	str	r2, [r3]
	Led_Display(led_state);
 c001200:	e59f3014 	ldr	r3, [pc, #20]	; c00121c <led2_off+0x3c>
 c001204:	e5933000 	ldr	r3, [r3]
 c001208:	e1a00003 	mov	r0, r3
 c00120c:	eb000013 	bl	c001260 <Led_Display>
}
 c001210:	e24bd00c 	sub	sp, fp, #12
 c001214:	e89d6800 	ldm	sp, {fp, sp, lr}
 c001218:	e12fff1e 	bx	lr
 c00121c:	0c00b058 	.word	0x0c00b058

0c001220 <leds_switch>:
void leds_switch ()
{
 c001220:	e1a0c00d 	mov	ip, sp
 c001224:	e92dd800 	push	{fp, ip, lr, pc}
 c001228:	e24cb004 	sub	fp, ip, #4
	led_state ^= 0x03;
 c00122c:	e59f3028 	ldr	r3, [pc, #40]	; c00125c <leds_switch+0x3c>
 c001230:	e5933000 	ldr	r3, [r3]
 c001234:	e2232003 	eor	r2, r3, #3
 c001238:	e59f301c 	ldr	r3, [pc, #28]	; c00125c <leds_switch+0x3c>
 c00123c:	e5832000 	str	r2, [r3]
	Led_Display(led_state);
 c001240:	e59f3014 	ldr	r3, [pc, #20]	; c00125c <leds_switch+0x3c>
 c001244:	e5933000 	ldr	r3, [r3]
 c001248:	e1a00003 	mov	r0, r3
 c00124c:	eb000003 	bl	c001260 <Led_Display>
}
 c001250:	e24bd00c 	sub	sp, fp, #12
 c001254:	e89d6800 	ldm	sp, {fp, sp, lr}
 c001258:	e12fff1e 	bx	lr
 c00125c:	0c00b058 	.word	0x0c00b058

0c001260 <Led_Display>:
void Led_Display(int LedStatus)
{
 c001260:	e1a0c00d 	mov	ip, sp
 c001264:	e92dd800 	push	{fp, ip, lr, pc}
 c001268:	e24cb004 	sub	fp, ip, #4
 c00126c:	e24dd008 	sub	sp, sp, #8
 c001270:	e50b0010 	str	r0, [fp, #-16]
	led_state = LedStatus;
 c001274:	e59f308c 	ldr	r3, [pc, #140]	; c001308 <Led_Display+0xa8>
 c001278:	e51b2010 	ldr	r2, [fp, #-16]
 c00127c:	e5832000 	str	r2, [r3]
	if ((LedStatus&0x01) == 0x01)	
 c001280:	e51b3010 	ldr	r3, [fp, #-16]
 c001284:	e2033001 	and	r3, r3, #1
 c001288:	e20330ff 	and	r3, r3, #255	; 0xff
 c00128c:	e3530000 	cmp	r3, #0
 c001290:	0a000005 	beq	c0012ac <Led_Display+0x4c>
		rPDATB=rPDATB & ~(0x01<<9)
 c001294:	e59f3070 	ldr	r3, [pc, #112]	; c00130c <Led_Display+0xac>
 c001298:	e59f206c 	ldr	r2, [pc, #108]	; c00130c <Led_Display+0xac>
 c00129c:	e5922000 	ldr	r2, [r2]
 c0012a0:	e3c22c02 	bic	r2, r2, #512	; 0x200
 c0012a4:	e5832000 	str	r2, [r3]
 c0012a8:	ea000004 	b	c0012c0 <Led_Display+0x60>
	;// poner a 0 el bit 9 del registro de datos del puerto B
	else
		rPDATB=rPDATB |(0x01<<9)
 c0012ac:	e59f3058 	ldr	r3, [pc, #88]	; c00130c <Led_Display+0xac>
 c0012b0:	e59f2054 	ldr	r2, [pc, #84]	; c00130c <Led_Display+0xac>
 c0012b4:	e5922000 	ldr	r2, [r2]
 c0012b8:	e3822c02 	orr	r2, r2, #512	; 0x200
 c0012bc:	e5832000 	str	r2, [r3]
	;// poner a 1 el bit 9 del registro de datos del puerto B
	if ((LedStatus&0x02) == 0x02)
 c0012c0:	e51b3010 	ldr	r3, [fp, #-16]
 c0012c4:	e2033002 	and	r3, r3, #2
 c0012c8:	e3530000 	cmp	r3, #0
 c0012cc:	0a000005 	beq	c0012e8 <Led_Display+0x88>
		rPDATB=rPDATB & ~(0x01<<10)
 c0012d0:	e59f3034 	ldr	r3, [pc, #52]	; c00130c <Led_Display+0xac>
 c0012d4:	e59f2030 	ldr	r2, [pc, #48]	; c00130c <Led_Display+0xac>
 c0012d8:	e5922000 	ldr	r2, [r2]
 c0012dc:	e3c22b01 	bic	r2, r2, #1024	; 0x400
 c0012e0:	e5832000 	str	r2, [r3]
 c0012e4:	ea000004 	b	c0012fc <Led_Display+0x9c>
	;// poner a 0 el bit 10 del registro de datos del puerto B
	else
		rPDATB=rPDATB |(0x01<<10)
 c0012e8:	e59f301c 	ldr	r3, [pc, #28]	; c00130c <Led_Display+0xac>
 c0012ec:	e59f2018 	ldr	r2, [pc, #24]	; c00130c <Led_Display+0xac>
 c0012f0:	e5922000 	ldr	r2, [r2]
 c0012f4:	e3822b01 	orr	r2, r2, #1024	; 0x400
 c0012f8:	e5832000 	str	r2, [r3]
	;// poner a 1 el bit 10 del registro de datos del puerto B
 c0012fc:	e24bd00c 	sub	sp, fp, #12
 c001300:	e89d6800 	ldm	sp, {fp, sp, lr}
 c001304:	e12fff1e 	bx	lr
 c001308:	0c00b058 	.word	0x0c00b058
 c00130c:	01d2000c 	.word	0x01d2000c

0c001310 <Main>:
char str_send[10] = "\nSED-P4 >\0";
char str_error[50] = "\nSe ha producido un desbordamiento!\n\0";
char str[256];

/*--- codigo de la funcion ---*/
int Main(void){
 c001310:	e1a0c00d 	mov	ip, sp
 c001314:	e92dd800 	push	{fp, ip, lr, pc}
 c001318:	e24cb004 	sub	fp, ip, #4
 c00131c:	e24dd008 	sub	sp, sp, #8

	char *pt_str = str;
 c001320:	e59f31dc 	ldr	r3, [pc, #476]	; c001504 <Main+0x1f4>
 c001324:	e50b3014 	str	r3, [fp, #-20]	; 0xffffffec

	sys_init(); // inicializacion de la placa, interrupciones, puertos
 c001328:	ebfffdf7 	bl	c000b0c <sys_init>

    //Inicializamos los botones
    rPCONG = rPCONG & 0xffff0fff;
 c00132c:	e59f31d4 	ldr	r3, [pc, #468]	; c001508 <Main+0x1f8>
 c001330:	e59f21d0 	ldr	r2, [pc, #464]	; c001508 <Main+0x1f8>
 c001334:	e5922000 	ldr	r2, [r2]
 c001338:	e3c22a0f 	bic	r2, r2, #61440	; 0xf000
 c00133c:	e5832000 	str	r2, [r3]
    rPUPG = 0;
 c001340:	e59f31c4 	ldr	r3, [pc, #452]	; c00150c <Main+0x1fc>
 c001344:	e3a02000 	mov	r2, #0
 c001348:	e5832000 	str	r2, [r3]

    Eint4567_init();
 c00134c:	ebfffe22 	bl	c000bdc <Eint4567_init>

    keyboard_init();
 c001350:	ebfffe81 	bl	c000d5c <keyboard_init>

    D8Led_init();
 c001354:	ebfffe08 	bl	c000b7c <D8Led_init>
    D8Led_symbol(0);
 c001358:	e3a00000 	mov	r0, #0
 c00135c:	ebfffe0f 	bl	c000ba0 <D8Led_symbol>

    leds_off();
 c001360:	ebffff66 	bl	c001100 <leds_off>

	Uart_Init(115200); 		// inicializacion de la Uart
 c001364:	e59f01a4 	ldr	r0, [pc, #420]	; c001510 <Main+0x200>
 c001368:	eb00006a 	bl	c001518 <Uart_Init>
	Uart_Config(); 			// configuracin de interrupciones y buffers
 c00136c:	eb0000c9 	bl	c001698 <Uart_Config>
	Uart0_Printf(str_send); // mostrar cabecera
 c001370:	e59f019c 	ldr	r0, [pc, #412]	; c001514 <Main+0x204>
 c001374:	eb00017d 	bl	c001970 <Uart0_Printf>


	while( 1 ) {

		*pt_str = Uart1_Getch(); // leer caracter del pc
 c001378:	eb0000f8 	bl	c001760 <Uart1_Getch>
 c00137c:	e1a03000 	mov	r3, r0
 c001380:	e1a02003 	mov	r2, r3
 c001384:	e51b3014 	ldr	r3, [fp, #-20]	; 0xffffffec
 c001388:	e5c32000 	strb	r2, [r3]

		if ( *pt_str == CR_LEFT) {
 c00138c:	e51b3014 	ldr	r3, [fp, #-20]	; 0xffffffec
 c001390:	e5d33000 	ldrb	r3, [r3]
 c001394:	e353004c 	cmp	r3, #76	; 0x4c
 c001398:	1a000002 	bne	c0013a8 <Main+0x98>
			leds_off();
 c00139c:	ebffff57 	bl	c001100 <leds_off>
			led1_on();
 c0013a0:	ebffff5e 	bl	c001120 <led1_on>
			}

			D8Led_symbol(numero);
		}

	}
 c0013a4:	eafffff3 	b	c001378 <Main+0x68>

		if ( *pt_str == CR_LEFT) {
			leds_off();
			led1_on();
		}
		else if ( *pt_str == CR_RIGHT) {
 c0013a8:	e51b3014 	ldr	r3, [fp, #-20]	; 0xffffffec
 c0013ac:	e5d33000 	ldrb	r3, [r3]
 c0013b0:	e3530052 	cmp	r3, #82	; 0x52
 c0013b4:	1a000002 	bne	c0013c4 <Main+0xb4>
			leds_off();
 c0013b8:	ebffff50 	bl	c001100 <leds_off>
			led2_on();
 c0013bc:	ebffff77 	bl	c0011a0 <led2_on>
			}

			D8Led_symbol(numero);
		}

	}
 c0013c0:	eaffffec 	b	c001378 <Main+0x68>
		}
		else {
			int numero;


			switch(*pt_str) {
 c0013c4:	e51b3014 	ldr	r3, [fp, #-20]	; 0xffffffec
 c0013c8:	e5d33000 	ldrb	r3, [r3]
 c0013cc:	e2433030 	sub	r3, r3, #48	; 0x30
 c0013d0:	e3530016 	cmp	r3, #22
 c0013d4:	979ff103 	ldrls	pc, [pc, r3, lsl #2]
 c0013d8:	ea000046 	b	c0014f8 <Main+0x1e8>
 c0013dc:	0c001438 	.word	0x0c001438
 c0013e0:	0c001444 	.word	0x0c001444
 c0013e4:	0c001450 	.word	0x0c001450
 c0013e8:	0c00145c 	.word	0x0c00145c
 c0013ec:	0c001468 	.word	0x0c001468
 c0013f0:	0c001474 	.word	0x0c001474
 c0013f4:	0c001480 	.word	0x0c001480
 c0013f8:	0c00148c 	.word	0x0c00148c
 c0013fc:	0c001498 	.word	0x0c001498
 c001400:	0c0014a4 	.word	0x0c0014a4
 c001404:	0c0014f8 	.word	0x0c0014f8
 c001408:	0c0014f8 	.word	0x0c0014f8
 c00140c:	0c0014f8 	.word	0x0c0014f8
 c001410:	0c0014f8 	.word	0x0c0014f8
 c001414:	0c0014f8 	.word	0x0c0014f8
 c001418:	0c0014f8 	.word	0x0c0014f8
 c00141c:	0c0014f8 	.word	0x0c0014f8
 c001420:	0c0014b0 	.word	0x0c0014b0
 c001424:	0c0014bc 	.word	0x0c0014bc
 c001428:	0c0014c8 	.word	0x0c0014c8
 c00142c:	0c0014d4 	.word	0x0c0014d4
 c001430:	0c0014e0 	.word	0x0c0014e0
 c001434:	0c0014ec 	.word	0x0c0014ec
				case CR_0: numero = 0; break;
 c001438:	e3a03000 	mov	r3, #0
 c00143c:	e50b3010 	str	r3, [fp, #-16]
 c001440:	ea00002c 	b	c0014f8 <Main+0x1e8>
				case CR_1: numero = 1; break;
 c001444:	e3a03001 	mov	r3, #1
 c001448:	e50b3010 	str	r3, [fp, #-16]
 c00144c:	ea000029 	b	c0014f8 <Main+0x1e8>
				case CR_2: numero = 2; break;
 c001450:	e3a03002 	mov	r3, #2
 c001454:	e50b3010 	str	r3, [fp, #-16]
 c001458:	ea000026 	b	c0014f8 <Main+0x1e8>
				case CR_3: numero = 3; break;
 c00145c:	e3a03003 	mov	r3, #3
 c001460:	e50b3010 	str	r3, [fp, #-16]
 c001464:	ea000023 	b	c0014f8 <Main+0x1e8>
				case CR_4: numero = 4; break;
 c001468:	e3a03004 	mov	r3, #4
 c00146c:	e50b3010 	str	r3, [fp, #-16]
 c001470:	ea000020 	b	c0014f8 <Main+0x1e8>
				case CR_5: numero = 5; break;
 c001474:	e3a03005 	mov	r3, #5
 c001478:	e50b3010 	str	r3, [fp, #-16]
 c00147c:	ea00001d 	b	c0014f8 <Main+0x1e8>
				case CR_6: numero = 6; break;
 c001480:	e3a03006 	mov	r3, #6
 c001484:	e50b3010 	str	r3, [fp, #-16]
 c001488:	ea00001a 	b	c0014f8 <Main+0x1e8>
				case CR_7: numero = 7; break;
 c00148c:	e3a03007 	mov	r3, #7
 c001490:	e50b3010 	str	r3, [fp, #-16]
 c001494:	ea000017 	b	c0014f8 <Main+0x1e8>
				case CR_8: numero = 8; break;
 c001498:	e3a03008 	mov	r3, #8
 c00149c:	e50b3010 	str	r3, [fp, #-16]
 c0014a0:	ea000014 	b	c0014f8 <Main+0x1e8>
				case CR_9: numero = 9; break;
 c0014a4:	e3a03009 	mov	r3, #9
 c0014a8:	e50b3010 	str	r3, [fp, #-16]
 c0014ac:	ea000011 	b	c0014f8 <Main+0x1e8>
				case CR_A: numero = 10; break;
 c0014b0:	e3a0300a 	mov	r3, #10
 c0014b4:	e50b3010 	str	r3, [fp, #-16]
 c0014b8:	ea00000e 	b	c0014f8 <Main+0x1e8>
				case CR_B: numero = 11; break;
 c0014bc:	e3a0300b 	mov	r3, #11
 c0014c0:	e50b3010 	str	r3, [fp, #-16]
 c0014c4:	ea00000b 	b	c0014f8 <Main+0x1e8>
				case CR_C: numero = 12; break;
 c0014c8:	e3a0300c 	mov	r3, #12
 c0014cc:	e50b3010 	str	r3, [fp, #-16]
 c0014d0:	ea000008 	b	c0014f8 <Main+0x1e8>
				case CR_D: numero = 13; break;
 c0014d4:	e3a0300d 	mov	r3, #13
 c0014d8:	e50b3010 	str	r3, [fp, #-16]
 c0014dc:	ea000005 	b	c0014f8 <Main+0x1e8>
				case CR_E: numero = 14; break;
 c0014e0:	e3a0300e 	mov	r3, #14
 c0014e4:	e50b3010 	str	r3, [fp, #-16]
 c0014e8:	ea000002 	b	c0014f8 <Main+0x1e8>
				case CR_F: numero = 15; break;
 c0014ec:	e3a0300f 	mov	r3, #15
 c0014f0:	e50b3010 	str	r3, [fp, #-16]
 c0014f4:	e1a00000 	nop			; (mov r0, r0)
			}

			D8Led_symbol(numero);
 c0014f8:	e51b0010 	ldr	r0, [fp, #-16]
 c0014fc:	ebfffda7 	bl	c000ba0 <D8Led_symbol>
		}

	}
 c001500:	eaffff9c 	b	c001378 <Main+0x68>
 c001504:	0c00b05c 	.word	0x0c00b05c
 c001508:	01d20040 	.word	0x01d20040
 c00150c:	01d20048 	.word	0x01d20048
 c001510:	0001c200 	.word	0x0001c200
 c001514:	0c00a528 	.word	0x0c00a528

0c001518 <Uart_Init>:
#include "uart.h"
#include <stdarg.h>
#include <stdio.h>

/*--- implementacin de las funciones ---*/
void Uart_Init(int baud) {
 c001518:	e1a0c00d 	mov	ip, sp
 c00151c:	e92dd830 	push	{r4, r5, fp, ip, lr, pc}
 c001520:	e24cb004 	sub	fp, ip, #4
 c001524:	e24dd008 	sub	sp, sp, #8
 c001528:	e50b0018 	str	r0, [fp, #-24]	; 0xffffffe8

    
    /* UART0 */
    rULCON0=0x3;     // Modo normal, no paridad, 1b stop, 8b char
 c00152c:	e3a0361d 	mov	r3, #30408704	; 0x1d00000
 c001530:	e3a02003 	mov	r2, #3
 c001534:	e5832000 	str	r2, [r3]
    rUCON0=0x205;    // tx=nivel, rx=flanco, no rx-timeout ni rx-error, normal, int/polling 
 c001538:	e59f3130 	ldr	r3, [pc, #304]	; c001670 <Uart_Init+0x158>
 c00153c:	e59f2130 	ldr	r2, [pc, #304]	; c001674 <Uart_Init+0x15c>
 c001540:	e5832000 	str	r2, [r3]
    rUBRDIV0=( (int)(MCLK/16./baud + 0.5) -1 ); // formula division de frecuencia
 c001544:	e59f512c 	ldr	r5, [pc, #300]	; c001678 <Uart_Init+0x160>
 c001548:	e51b0018 	ldr	r0, [fp, #-24]	; 0xffffffe8
 c00154c:	eb001f95 	bl	c0093a8 <__aeabi_i2d>
 c001550:	e1a03000 	mov	r3, r0
 c001554:	e1a04001 	mov	r4, r1
 c001558:	e28f1f42 	add	r1, pc, #264	; 0x108
 c00155c:	e8910003 	ldm	r1, {r0, r1}
 c001560:	e1a02003 	mov	r2, r3
 c001564:	e1a03004 	mov	r3, r4
 c001568:	eb002069 	bl	c009714 <__aeabi_ddiv>
 c00156c:	e1a03000 	mov	r3, r0
 c001570:	e1a04001 	mov	r4, r1
 c001574:	e1a00003 	mov	r0, r3
 c001578:	e1a01004 	mov	r1, r4
 c00157c:	e3a02000 	mov	r2, #0
 c001580:	e3a035ff 	mov	r3, #1069547520	; 0x3fc00000
 c001584:	e2833602 	add	r3, r3, #2097152	; 0x200000
 c001588:	eb001eb9 	bl	c009074 <__adddf3>
 c00158c:	e1a03000 	mov	r3, r0
 c001590:	e1a04001 	mov	r4, r1
 c001594:	e1a00003 	mov	r0, r3
 c001598:	e1a01004 	mov	r1, r4
 c00159c:	eb002130 	bl	c009a64 <__aeabi_d2iz>
 c0015a0:	e1a03000 	mov	r3, r0
 c0015a4:	e2433001 	sub	r3, r3, #1
 c0015a8:	e5853000 	str	r3, [r5]
    rUFCON0=0x0;     // Desactivar FIFO
 c0015ac:	e59f30c8 	ldr	r3, [pc, #200]	; c00167c <Uart_Init+0x164>
 c0015b0:	e3a02000 	mov	r2, #0
 c0015b4:	e5832000 	str	r2, [r3]
    rUMCON0=0x0;	 // Desactivar control de flujo
 c0015b8:	e59f30c0 	ldr	r3, [pc, #192]	; c001680 <Uart_Init+0x168>
 c0015bc:	e3a02000 	mov	r2, #0
 c0015c0:	e5832000 	str	r2, [r3]

    /* UART1 */
    rULCON1=0x3;     // Modo normal, no paridad, 1b stop, 8b char
 c0015c4:	e59f30b8 	ldr	r3, [pc, #184]	; c001684 <Uart_Init+0x16c>
 c0015c8:	e3a02003 	mov	r2, #3
 c0015cc:	e5832000 	str	r2, [r3]
    rUCON1=0x205;    // tx=nivel, rx=flanco, no rx-timeout ni rx-error, normal, int/polling
 c0015d0:	e59f30b0 	ldr	r3, [pc, #176]	; c001688 <Uart_Init+0x170>
 c0015d4:	e59f2098 	ldr	r2, [pc, #152]	; c001674 <Uart_Init+0x15c>
 c0015d8:	e5832000 	str	r2, [r3]
    rUBRDIV1=( (int)(MCLK/16./baud + 0.5) -1 ); // formula division de frecuencia
 c0015dc:	e59f50a8 	ldr	r5, [pc, #168]	; c00168c <Uart_Init+0x174>
 c0015e0:	e51b0018 	ldr	r0, [fp, #-24]	; 0xffffffe8
 c0015e4:	eb001f6f 	bl	c0093a8 <__aeabi_i2d>
 c0015e8:	e1a03000 	mov	r3, r0
 c0015ec:	e1a04001 	mov	r4, r1
 c0015f0:	e28f1070 	add	r1, pc, #112	; 0x70
 c0015f4:	e8910003 	ldm	r1, {r0, r1}
 c0015f8:	e1a02003 	mov	r2, r3
 c0015fc:	e1a03004 	mov	r3, r4
 c001600:	eb002043 	bl	c009714 <__aeabi_ddiv>
 c001604:	e1a03000 	mov	r3, r0
 c001608:	e1a04001 	mov	r4, r1
 c00160c:	e1a00003 	mov	r0, r3
 c001610:	e1a01004 	mov	r1, r4
 c001614:	e3a02000 	mov	r2, #0
 c001618:	e3a035ff 	mov	r3, #1069547520	; 0x3fc00000
 c00161c:	e2833602 	add	r3, r3, #2097152	; 0x200000
 c001620:	eb001e93 	bl	c009074 <__adddf3>
 c001624:	e1a03000 	mov	r3, r0
 c001628:	e1a04001 	mov	r4, r1
 c00162c:	e1a00003 	mov	r0, r3
 c001630:	e1a01004 	mov	r1, r4
 c001634:	eb00210a 	bl	c009a64 <__aeabi_d2iz>
 c001638:	e1a03000 	mov	r3, r0
 c00163c:	e2433001 	sub	r3, r3, #1
 c001640:	e5853000 	str	r3, [r5]
    rUFCON1=0x0;	// Desactivar FIFO
 c001644:	e59f3044 	ldr	r3, [pc, #68]	; c001690 <Uart_Init+0x178>
 c001648:	e3a02000 	mov	r2, #0
 c00164c:	e5832000 	str	r2, [r3]
    rUMCON1=0x0;	// Desactivar control de flujo
 c001650:	e59f303c 	ldr	r3, [pc, #60]	; c001694 <Uart_Init+0x17c>
 c001654:	e3a02000 	mov	r2, #0
 c001658:	e5832000 	str	r2, [r3]
}
 c00165c:	e24bd014 	sub	sp, fp, #20
 c001660:	e89d6830 	ldm	sp, {r4, r5, fp, sp, lr}
 c001664:	e12fff1e 	bx	lr
 c001668:	00000000 	.word	0x00000000
 c00166c:	414e8480 	.word	0x414e8480
 c001670:	01d00004 	.word	0x01d00004
 c001674:	00000205 	.word	0x00000205
 c001678:	01d00028 	.word	0x01d00028
 c00167c:	01d00008 	.word	0x01d00008
 c001680:	01d0000c 	.word	0x01d0000c
 c001684:	01d04000 	.word	0x01d04000
 c001688:	01d04004 	.word	0x01d04004
 c00168c:	01d04028 	.word	0x01d04028
 c001690:	01d04008 	.word	0x01d04008
 c001694:	01d0400c 	.word	0x01d0400c

0c001698 <Uart_Config>:

void Uart_Config(void)
{
 c001698:	e1a0c00d 	mov	ip, sp
 c00169c:	e92dd800 	push	{fp, ip, lr, pc}
 c0016a0:	e24cb004 	sub	fp, ip, #4
    // Si no se usan interrupciones, no es necesario hacer nada
}
 c0016a4:	e24bd00c 	sub	sp, fp, #12
 c0016a8:	e89d6800 	ldm	sp, {fp, sp, lr}
 c0016ac:	e12fff1e 	bx	lr

0c0016b0 <Uart0_TxEmpty>:

inline void Uart0_TxEmpty(void) {
 c0016b0:	e1a0c00d 	mov	ip, sp
 c0016b4:	e92dd800 	push	{fp, ip, lr, pc}
 c0016b8:	e24cb004 	sub	fp, ip, #4
    while (!(rUTRSTAT0 & 0x4)); 	     // esperar a que el shifter de TX se vacie
 c0016bc:	e1a00000 	nop			; (mov r0, r0)
 c0016c0:	e59f3018 	ldr	r3, [pc, #24]	; c0016e0 <Uart0_TxEmpty+0x30>
 c0016c4:	e5933000 	ldr	r3, [r3]
 c0016c8:	e2033004 	and	r3, r3, #4
 c0016cc:	e3530000 	cmp	r3, #0
 c0016d0:	0afffffa 	beq	c0016c0 <Uart0_TxEmpty+0x10>
}
 c0016d4:	e24bd00c 	sub	sp, fp, #12
 c0016d8:	e89d6800 	ldm	sp, {fp, sp, lr}
 c0016dc:	e12fff1e 	bx	lr
 c0016e0:	01d00010 	.word	0x01d00010

0c0016e4 <Uart1_TxEmpty>:

inline void Uart1_TxEmpty(void) {
 c0016e4:	e1a0c00d 	mov	ip, sp
 c0016e8:	e92dd800 	push	{fp, ip, lr, pc}
 c0016ec:	e24cb004 	sub	fp, ip, #4
    while (!(rUTRSTAT1 & 0x4)); 	     // esperar a que el shifter de TX se vacie
 c0016f0:	e1a00000 	nop			; (mov r0, r0)
 c0016f4:	e59f3018 	ldr	r3, [pc, #24]	; c001714 <Uart1_TxEmpty+0x30>
 c0016f8:	e5933000 	ldr	r3, [r3]
 c0016fc:	e2033004 	and	r3, r3, #4
 c001700:	e3530000 	cmp	r3, #0
 c001704:	0afffffa 	beq	c0016f4 <Uart1_TxEmpty+0x10>
}
 c001708:	e24bd00c 	sub	sp, fp, #12
 c00170c:	e89d6800 	ldm	sp, {fp, sp, lr}
 c001710:	e12fff1e 	bx	lr
 c001714:	01d04010 	.word	0x01d04010

0c001718 <Uart0_Getch>:


char Uart0_Getch(void)
{
 c001718:	e1a0c00d 	mov	ip, sp
 c00171c:	e92dd800 	push	{fp, ip, lr, pc}
 c001720:	e24cb004 	sub	fp, ip, #4
    while (!(rUTRSTAT0 & 0x1));        // esperar a que el buffer contenga datos
 c001724:	e1a00000 	nop			; (mov r0, r0)
 c001728:	e59f3028 	ldr	r3, [pc, #40]	; c001758 <Uart0_Getch+0x40>
 c00172c:	e5933000 	ldr	r3, [r3]
 c001730:	e2033001 	and	r3, r3, #1
 c001734:	e3530000 	cmp	r3, #0
 c001738:	0afffffa 	beq	c001728 <Uart0_Getch+0x10>
	return RdURXH0();		   		   // devolver el caracter
 c00173c:	e59f3018 	ldr	r3, [pc, #24]	; c00175c <Uart0_Getch+0x44>
 c001740:	e5d33000 	ldrb	r3, [r3]
 c001744:	e20330ff 	and	r3, r3, #255	; 0xff
}
 c001748:	e1a00003 	mov	r0, r3
 c00174c:	e24bd00c 	sub	sp, fp, #12
 c001750:	e89d6800 	ldm	sp, {fp, sp, lr}
 c001754:	e12fff1e 	bx	lr
 c001758:	01d00010 	.word	0x01d00010
 c00175c:	01d00024 	.word	0x01d00024

0c001760 <Uart1_Getch>:

char Uart1_Getch(void) {
 c001760:	e1a0c00d 	mov	ip, sp
 c001764:	e92dd800 	push	{fp, ip, lr, pc}
 c001768:	e24cb004 	sub	fp, ip, #4
    while (!(rUTRSTAT1 & 0x1));        // esperar a que el buffer contenga datos
 c00176c:	e1a00000 	nop			; (mov r0, r0)
 c001770:	e59f3028 	ldr	r3, [pc, #40]	; c0017a0 <Uart1_Getch+0x40>
 c001774:	e5933000 	ldr	r3, [r3]
 c001778:	e2033001 	and	r3, r3, #1
 c00177c:	e3530000 	cmp	r3, #0
 c001780:	0afffffa 	beq	c001770 <Uart1_Getch+0x10>
	return RdURXH1();		   		   // devolver el caracter
 c001784:	e59f3018 	ldr	r3, [pc, #24]	; c0017a4 <Uart1_Getch+0x44>
 c001788:	e5d33000 	ldrb	r3, [r3]
 c00178c:	e20330ff 	and	r3, r3, #255	; 0xff
}
 c001790:	e1a00003 	mov	r0, r3
 c001794:	e24bd00c 	sub	sp, fp, #12
 c001798:	e89d6800 	ldm	sp, {fp, sp, lr}
 c00179c:	e12fff1e 	bx	lr
 c0017a0:	01d04010 	.word	0x01d04010
 c0017a4:	01d04024 	.word	0x01d04024

0c0017a8 <Uart0_SendByte>:

void Uart0_SendByte(int data) {
 c0017a8:	e1a0c00d 	mov	ip, sp
 c0017ac:	e92dd800 	push	{fp, ip, lr, pc}
 c0017b0:	e24cb004 	sub	fp, ip, #4
 c0017b4:	e24dd010 	sub	sp, sp, #16
 c0017b8:	e50b0018 	str	r0, [fp, #-24]	; 0xffffffe8
    char localBuf[2] = {'\0','\0'};
 c0017bc:	e3a03000 	mov	r3, #0
 c0017c0:	e54b3010 	strb	r3, [fp, #-16]
 c0017c4:	e3a03000 	mov	r3, #0
 c0017c8:	e54b300f 	strb	r3, [fp, #-15]

    if(data == '\n')		
 c0017cc:	e51b3018 	ldr	r3, [fp, #-24]	; 0xffffffe8
 c0017d0:	e353000a 	cmp	r3, #10
 c0017d4:	1a000009 	bne	c001800 <Uart0_SendByte+0x58>
	{
	   while (!(rUTRSTAT0 & 0x2));     // esperar a que THR se vacie
 c0017d8:	e1a00000 	nop			; (mov r0, r0)
 c0017dc:	e59f3050 	ldr	r3, [pc, #80]	; c001834 <Uart0_SendByte+0x8c>
 c0017e0:	e5933000 	ldr	r3, [r3]
 c0017e4:	e2033002 	and	r3, r3, #2
 c0017e8:	e3530000 	cmp	r3, #0
 c0017ec:	0afffffa 	beq	c0017dc <Uart0_SendByte+0x34>
	   WrUTXH0('\r');			       // escribir retorno de carro (utilizar macro)
 c0017f0:	e59f3040 	ldr	r3, [pc, #64]	; c001838 <Uart0_SendByte+0x90>
 c0017f4:	e3a0200d 	mov	r2, #13
 c0017f8:	e5c32000 	strb	r2, [r3]
	}
	while (!(rUTRSTAT0 & 0x2)); 	   // esperar a que THR se vacie
 c0017fc:	ea000000 	b	c001804 <Uart0_SendByte+0x5c>
 c001800:	e1a00000 	nop			; (mov r0, r0)
 c001804:	e59f3028 	ldr	r3, [pc, #40]	; c001834 <Uart0_SendByte+0x8c>
 c001808:	e5933000 	ldr	r3, [r3]
 c00180c:	e2033002 	and	r3, r3, #2
 c001810:	e3530000 	cmp	r3, #0
 c001814:	0afffffa 	beq	c001804 <Uart0_SendByte+0x5c>
	WrUTXH0(data);				       // escribir data (utilizar macro)
 c001818:	e59f3018 	ldr	r3, [pc, #24]	; c001838 <Uart0_SendByte+0x90>
 c00181c:	e51b2018 	ldr	r2, [fp, #-24]	; 0xffffffe8
 c001820:	e20220ff 	and	r2, r2, #255	; 0xff
 c001824:	e5c32000 	strb	r2, [r3]
}
 c001828:	e24bd00c 	sub	sp, fp, #12
 c00182c:	e89d6800 	ldm	sp, {fp, sp, lr}
 c001830:	e12fff1e 	bx	lr
 c001834:	01d00010 	.word	0x01d00010
 c001838:	01d00020 	.word	0x01d00020

0c00183c <Uart1_SendByte>:

void Uart1_SendByte(int data) {
 c00183c:	e1a0c00d 	mov	ip, sp
 c001840:	e92dd800 	push	{fp, ip, lr, pc}
 c001844:	e24cb004 	sub	fp, ip, #4
 c001848:	e24dd010 	sub	sp, sp, #16
 c00184c:	e50b0018 	str	r0, [fp, #-24]	; 0xffffffe8
    char localBuf[2] = {'\0','\0'};
 c001850:	e3a03000 	mov	r3, #0
 c001854:	e54b3010 	strb	r3, [fp, #-16]
 c001858:	e3a03000 	mov	r3, #0
 c00185c:	e54b300f 	strb	r3, [fp, #-15]

    if(data == '\n') {
 c001860:	e51b3018 	ldr	r3, [fp, #-24]	; 0xffffffe8
 c001864:	e353000a 	cmp	r3, #10
 c001868:	1a000009 	bne	c001894 <Uart1_SendByte+0x58>
	   while (!(rUTRSTAT1 & 0x2));     // esperar a que THR se vacie
 c00186c:	e1a00000 	nop			; (mov r0, r0)
 c001870:	e59f3050 	ldr	r3, [pc, #80]	; c0018c8 <Uart1_SendByte+0x8c>
 c001874:	e5933000 	ldr	r3, [r3]
 c001878:	e2033002 	and	r3, r3, #2
 c00187c:	e3530000 	cmp	r3, #0
 c001880:	0afffffa 	beq	c001870 <Uart1_SendByte+0x34>
	   WrUTXH1('\r');			       // escribir retorno de carro (utilizar macro)
 c001884:	e59f3040 	ldr	r3, [pc, #64]	; c0018cc <Uart1_SendByte+0x90>
 c001888:	e3a0200d 	mov	r2, #13
 c00188c:	e5c32000 	strb	r2, [r3]
	}
	while (!(rUTRSTAT1 & 0x2)); 	   // esperar a que THR se vacie
 c001890:	ea000000 	b	c001898 <Uart1_SendByte+0x5c>
 c001894:	e1a00000 	nop			; (mov r0, r0)
 c001898:	e59f3028 	ldr	r3, [pc, #40]	; c0018c8 <Uart1_SendByte+0x8c>
 c00189c:	e5933000 	ldr	r3, [r3]
 c0018a0:	e2033002 	and	r3, r3, #2
 c0018a4:	e3530000 	cmp	r3, #0
 c0018a8:	0afffffa 	beq	c001898 <Uart1_SendByte+0x5c>
	WrUTXH1(data);				       // escribir data (utilizar macro)
 c0018ac:	e59f3018 	ldr	r3, [pc, #24]	; c0018cc <Uart1_SendByte+0x90>
 c0018b0:	e51b2018 	ldr	r2, [fp, #-24]	; 0xffffffe8
 c0018b4:	e20220ff 	and	r2, r2, #255	; 0xff
 c0018b8:	e5c32000 	strb	r2, [r3]
}
 c0018bc:	e24bd00c 	sub	sp, fp, #12
 c0018c0:	e89d6800 	ldm	sp, {fp, sp, lr}
 c0018c4:	e12fff1e 	bx	lr
 c0018c8:	01d04010 	.word	0x01d04010
 c0018cc:	01d04020 	.word	0x01d04020

0c0018d0 <Uart0_SendString>:

void Uart0_SendString(char *pt) {
 c0018d0:	e1a0c00d 	mov	ip, sp
 c0018d4:	e92dd800 	push	{fp, ip, lr, pc}
 c0018d8:	e24cb004 	sub	fp, ip, #4
 c0018dc:	e24dd008 	sub	sp, sp, #8
 c0018e0:	e50b0010 	str	r0, [fp, #-16]
    while (*pt)						    // mandar byte a byte hasta completar string
 c0018e4:	ea000006 	b	c001904 <Uart0_SendString+0x34>
	Uart0_SendByte(*pt++);
 c0018e8:	e51b3010 	ldr	r3, [fp, #-16]
 c0018ec:	e5d33000 	ldrb	r3, [r3]
 c0018f0:	e51b2010 	ldr	r2, [fp, #-16]
 c0018f4:	e2822001 	add	r2, r2, #1
 c0018f8:	e50b2010 	str	r2, [fp, #-16]
 c0018fc:	e1a00003 	mov	r0, r3
 c001900:	ebffffa8 	bl	c0017a8 <Uart0_SendByte>
	while (!(rUTRSTAT1 & 0x2)); 	   // esperar a que THR se vacie
	WrUTXH1(data);				       // escribir data (utilizar macro)
}

void Uart0_SendString(char *pt) {
    while (*pt)						    // mandar byte a byte hasta completar string
 c001904:	e51b3010 	ldr	r3, [fp, #-16]
 c001908:	e5d33000 	ldrb	r3, [r3]
 c00190c:	e3530000 	cmp	r3, #0
 c001910:	1afffff4 	bne	c0018e8 <Uart0_SendString+0x18>
	Uart0_SendByte(*pt++);
}
 c001914:	e24bd00c 	sub	sp, fp, #12
 c001918:	e89d6800 	ldm	sp, {fp, sp, lr}
 c00191c:	e12fff1e 	bx	lr

0c001920 <Uart1_SendString>:

void Uart1_SendString(char *pt) {
 c001920:	e1a0c00d 	mov	ip, sp
 c001924:	e92dd800 	push	{fp, ip, lr, pc}
 c001928:	e24cb004 	sub	fp, ip, #4
 c00192c:	e24dd008 	sub	sp, sp, #8
 c001930:	e50b0010 	str	r0, [fp, #-16]
    while (*pt)						    // mandar byte a byte hasta completar string
 c001934:	ea000006 	b	c001954 <Uart1_SendString+0x34>
	Uart1_SendByte(*pt++);
 c001938:	e51b3010 	ldr	r3, [fp, #-16]
 c00193c:	e5d33000 	ldrb	r3, [r3]
 c001940:	e51b2010 	ldr	r2, [fp, #-16]
 c001944:	e2822001 	add	r2, r2, #1
 c001948:	e50b2010 	str	r2, [fp, #-16]
 c00194c:	e1a00003 	mov	r0, r3
 c001950:	ebffffb9 	bl	c00183c <Uart1_SendByte>
    while (*pt)						    // mandar byte a byte hasta completar string
	Uart0_SendByte(*pt++);
}

void Uart1_SendString(char *pt) {
    while (*pt)						    // mandar byte a byte hasta completar string
 c001954:	e51b3010 	ldr	r3, [fp, #-16]
 c001958:	e5d33000 	ldrb	r3, [r3]
 c00195c:	e3530000 	cmp	r3, #0
 c001960:	1afffff4 	bne	c001938 <Uart1_SendString+0x18>
	Uart1_SendByte(*pt++);
}
 c001964:	e24bd00c 	sub	sp, fp, #12
 c001968:	e89d6800 	ldm	sp, {fp, sp, lr}
 c00196c:	e12fff1e 	bx	lr

0c001970 <Uart0_Printf>:

void Uart0_Printf(char *fmt,...) {
 c001970:	e1a0c00d 	mov	ip, sp
 c001974:	e92d000f 	push	{r0, r1, r2, r3}
 c001978:	e92dd800 	push	{fp, ip, lr, pc}
 c00197c:	e24cb014 	sub	fp, ip, #20
 c001980:	e24ddf42 	sub	sp, sp, #264	; 0x108
    va_list ap;
    char string[256];

    va_start(ap,fmt);
 c001984:	e28b3008 	add	r3, fp, #8
 c001988:	e50b3010 	str	r3, [fp, #-16]
    vsprintf(string,fmt,ap);
 c00198c:	e24b3e11 	sub	r3, fp, #272	; 0x110
 c001990:	e1a00003 	mov	r0, r3
 c001994:	e59b1004 	ldr	r1, [fp, #4]
 c001998:	e51b2010 	ldr	r2, [fp, #-16]
 c00199c:	eb000019 	bl	c001a08 <vsprintf>
    Uart0_SendString(string);
 c0019a0:	e24b3e11 	sub	r3, fp, #272	; 0x110
 c0019a4:	e1a00003 	mov	r0, r3
 c0019a8:	ebffffc8 	bl	c0018d0 <Uart0_SendString>
    va_end(ap);
}
 c0019ac:	e24bd00c 	sub	sp, fp, #12
 c0019b0:	e89d6800 	ldm	sp, {fp, sp, lr}
 c0019b4:	e12fff1e 	bx	lr

0c0019b8 <_vsprintf_r>:
 c0019b8:	e92d4010 	push	{r4, lr}
 c0019bc:	e3e0c102 	mvn	ip, #-2147483648	; 0x80000000
 c0019c0:	e24dd068 	sub	sp, sp, #104	; 0x68
 c0019c4:	e1a0e001 	mov	lr, r1
 c0019c8:	e58dc008 	str	ip, [sp, #8]
 c0019cc:	e58dc014 	str	ip, [sp, #20]
 c0019d0:	e1a0100d 	mov	r1, sp
 c0019d4:	e3e0c000 	mvn	ip, #0
 c0019d8:	e3a04f82 	mov	r4, #520	; 0x208
 c0019dc:	e1cd40bc 	strh	r4, [sp, #12]
 c0019e0:	e58de000 	str	lr, [sp]
 c0019e4:	e58de010 	str	lr, [sp, #16]
 c0019e8:	e1cdc0be 	strh	ip, [sp, #14]
 c0019ec:	eb000010 	bl	c001a34 <_svfprintf_r>
 c0019f0:	e59d3000 	ldr	r3, [sp]
 c0019f4:	e3a02000 	mov	r2, #0
 c0019f8:	e5c32000 	strb	r2, [r3]
 c0019fc:	e28dd068 	add	sp, sp, #104	; 0x68
 c001a00:	e8bd4010 	pop	{r4, lr}
 c001a04:	e12fff1e 	bx	lr

0c001a08 <vsprintf>:
 c001a08:	e52d4004 	push	{r4}		; (str r4, [sp, #-4]!)
 c001a0c:	e1a03002 	mov	r3, r2
 c001a10:	e59f2018 	ldr	r2, [pc, #24]	; c001a30 <vsprintf+0x28>
 c001a14:	e1a04000 	mov	r4, r0
 c001a18:	e1a0c001 	mov	ip, r1
 c001a1c:	e5920000 	ldr	r0, [r2]
 c001a20:	e1a01004 	mov	r1, r4
 c001a24:	e1a0200c 	mov	r2, ip
 c001a28:	e49d4004 	pop	{r4}		; (ldr r4, [sp], #4)
 c001a2c:	eaffffe1 	b	c0019b8 <_vsprintf_r>
 c001a30:	0c00a568 	.word	0x0c00a568

0c001a34 <_svfprintf_r>:
 c001a34:	e92d4ff0 	push	{r4, r5, r6, r7, r8, r9, sl, fp, lr}
 c001a38:	e24ddf43 	sub	sp, sp, #268	; 0x10c
 c001a3c:	e58d303c 	str	r3, [sp, #60]	; 0x3c
 c001a40:	e58d1024 	str	r1, [sp, #36]	; 0x24
 c001a44:	e1a04002 	mov	r4, r2
 c001a48:	e58d0038 	str	r0, [sp, #56]	; 0x38
 c001a4c:	eb000e62 	bl	c0053dc <_localeconv_r>
 c001a50:	e5900000 	ldr	r0, [r0]
 c001a54:	e58d0054 	str	r0, [sp, #84]	; 0x54
 c001a58:	eb0014e0 	bl	c006de0 <strlen>
 c001a5c:	e58d0060 	str	r0, [sp, #96]	; 0x60
 c001a60:	e59d0024 	ldr	r0, [sp, #36]	; 0x24
 c001a64:	e1d030bc 	ldrh	r3, [r0, #12]
 c001a68:	e3130080 	tst	r3, #128	; 0x80
 c001a6c:	0a000002 	beq	c001a7c <_svfprintf_r+0x48>
 c001a70:	e5903010 	ldr	r3, [r0, #16]
 c001a74:	e3530000 	cmp	r3, #0
 c001a78:	0a000742 	beq	c003788 <_svfprintf_r+0x1d54>
 c001a7c:	e28d10e8 	add	r1, sp, #232	; 0xe8
 c001a80:	e3a03000 	mov	r3, #0
 c001a84:	e28d7074 	add	r7, sp, #116	; 0x74
 c001a88:	e2811007 	add	r1, r1, #7
 c001a8c:	e58d302c 	str	r3, [sp, #44]	; 0x2c
 c001a90:	e58d70dc 	str	r7, [sp, #220]	; 0xdc
 c001a94:	e58d30e4 	str	r3, [sp, #228]	; 0xe4
 c001a98:	e58d30e0 	str	r3, [sp, #224]	; 0xe0
 c001a9c:	e58d401c 	str	r4, [sp, #28]
 c001aa0:	e58d3058 	str	r3, [sp, #88]	; 0x58
 c001aa4:	e58d305c 	str	r3, [sp, #92]	; 0x5c
 c001aa8:	e58d3068 	str	r3, [sp, #104]	; 0x68
 c001aac:	e58d3064 	str	r3, [sp, #100]	; 0x64
 c001ab0:	e58d3030 	str	r3, [sp, #48]	; 0x30
 c001ab4:	e58d106c 	str	r1, [sp, #108]	; 0x6c
 c001ab8:	e1a06007 	mov	r6, r7
 c001abc:	e59d201c 	ldr	r2, [sp, #28]
 c001ac0:	e5d23000 	ldrb	r3, [r2]
 c001ac4:	e3530000 	cmp	r3, #0
 c001ac8:	13530025 	cmpne	r3, #37	; 0x25
 c001acc:	0a0000a4 	beq	c001d64 <_svfprintf_r+0x330>
 c001ad0:	e2823001 	add	r3, r2, #1
 c001ad4:	e1a08003 	mov	r8, r3
 c001ad8:	e5d33000 	ldrb	r3, [r3]
 c001adc:	e3530025 	cmp	r3, #37	; 0x25
 c001ae0:	13530000 	cmpne	r3, #0
 c001ae4:	e2883001 	add	r3, r8, #1
 c001ae8:	1afffff9 	bne	c001ad4 <_svfprintf_r+0xa0>
 c001aec:	e59d301c 	ldr	r3, [sp, #28]
 c001af0:	e058a003 	subs	sl, r8, r3
 c001af4:	0a00000c 	beq	c001b2c <_svfprintf_r+0xf8>
 c001af8:	e28d40e0 	add	r4, sp, #224	; 0xe0
 c001afc:	e8940030 	ldm	r4, {r4, r5}
 c001b00:	e2844001 	add	r4, r4, #1
 c001b04:	e085500a 	add	r5, r5, sl
 c001b08:	e3540007 	cmp	r4, #7
 c001b0c:	e8860408 	stm	r6, {r3, sl}
 c001b10:	e58d50e4 	str	r5, [sp, #228]	; 0xe4
 c001b14:	e58d40e0 	str	r4, [sp, #224]	; 0xe0
 c001b18:	d2866008 	addle	r6, r6, #8
 c001b1c:	ca000078 	bgt	c001d04 <_svfprintf_r+0x2d0>
 c001b20:	e59dc030 	ldr	ip, [sp, #48]	; 0x30
 c001b24:	e08cc00a 	add	ip, ip, sl
 c001b28:	e58dc030 	str	ip, [sp, #48]	; 0x30
 c001b2c:	e5d83000 	ldrb	r3, [r8]
 c001b30:	e3530000 	cmp	r3, #0
 c001b34:	0a00007a 	beq	c001d24 <_svfprintf_r+0x2f0>
 c001b38:	e3a01000 	mov	r1, #0
 c001b3c:	e2882001 	add	r2, r8, #1
 c001b40:	e3a00000 	mov	r0, #0
 c001b44:	e58d1028 	str	r1, [sp, #40]	; 0x28
 c001b48:	e5cd0107 	strb	r0, [sp, #263]	; 0x107
 c001b4c:	e58d201c 	str	r2, [sp, #28]
 c001b50:	e3e05000 	mvn	r5, #0
 c001b54:	e5d83001 	ldrb	r3, [r8, #1]
 c001b58:	e3a04020 	mov	r4, #32
 c001b5c:	e58d1018 	str	r1, [sp, #24]
 c001b60:	e1a0c002 	mov	ip, r2
 c001b64:	e3a0102b 	mov	r1, #43	; 0x2b
 c001b68:	e28cc001 	add	ip, ip, #1
 c001b6c:	e2432020 	sub	r2, r3, #32
 c001b70:	e3520058 	cmp	r2, #88	; 0x58
 c001b74:	979ff102 	ldrls	pc, [pc, r2, lsl #2]
 c001b78:	ea0001cb 	b	c0022ac <_svfprintf_r+0x878>
 c001b7c:	0c0022ec 	.word	0x0c0022ec
 c001b80:	0c0022ac 	.word	0x0c0022ac
 c001b84:	0c0022ac 	.word	0x0c0022ac
 c001b88:	0c002304 	.word	0x0c002304
 c001b8c:	0c0022ac 	.word	0x0c0022ac
 c001b90:	0c0022ac 	.word	0x0c0022ac
 c001b94:	0c0022ac 	.word	0x0c0022ac
 c001b98:	0c0022ac 	.word	0x0c0022ac
 c001b9c:	0c0022ac 	.word	0x0c0022ac
 c001ba0:	0c0022ac 	.word	0x0c0022ac
 c001ba4:	0c002318 	.word	0x0c002318
 c001ba8:	0c001d6c 	.word	0x0c001d6c
 c001bac:	0c0022ac 	.word	0x0c0022ac
 c001bb0:	0c001cf0 	.word	0x0c001cf0
 c001bb4:	0c001d78 	.word	0x0c001d78
 c001bb8:	0c0022ac 	.word	0x0c0022ac
 c001bbc:	0c001dc0 	.word	0x0c001dc0
 c001bc0:	0c001dd4 	.word	0x0c001dd4
 c001bc4:	0c001dd4 	.word	0x0c001dd4
 c001bc8:	0c001dd4 	.word	0x0c001dd4
 c001bcc:	0c001dd4 	.word	0x0c001dd4
 c001bd0:	0c001dd4 	.word	0x0c001dd4
 c001bd4:	0c001dd4 	.word	0x0c001dd4
 c001bd8:	0c001dd4 	.word	0x0c001dd4
 c001bdc:	0c001dd4 	.word	0x0c001dd4
 c001be0:	0c001dd4 	.word	0x0c001dd4
 c001be4:	0c0022ac 	.word	0x0c0022ac
 c001be8:	0c0022ac 	.word	0x0c0022ac
 c001bec:	0c0022ac 	.word	0x0c0022ac
 c001bf0:	0c0022ac 	.word	0x0c0022ac
 c001bf4:	0c0022ac 	.word	0x0c0022ac
 c001bf8:	0c0022ac 	.word	0x0c0022ac
 c001bfc:	0c0022ac 	.word	0x0c0022ac
 c001c00:	0c0022ac 	.word	0x0c0022ac
 c001c04:	0c0022ac 	.word	0x0c0022ac
 c001c08:	0c0022ac 	.word	0x0c0022ac
 c001c0c:	0c001e04 	.word	0x0c001e04
 c001c10:	0c002014 	.word	0x0c002014
 c001c14:	0c0022ac 	.word	0x0c0022ac
 c001c18:	0c002014 	.word	0x0c002014
 c001c1c:	0c0022ac 	.word	0x0c0022ac
 c001c20:	0c0022ac 	.word	0x0c0022ac
 c001c24:	0c0022ac 	.word	0x0c0022ac
 c001c28:	0c0022ac 	.word	0x0c0022ac
 c001c2c:	0c0020d0 	.word	0x0c0020d0
 c001c30:	0c0022ac 	.word	0x0c0022ac
 c001c34:	0c0022ac 	.word	0x0c0022ac
 c001c38:	0c0020e4 	.word	0x0c0020e4
 c001c3c:	0c0022ac 	.word	0x0c0022ac
 c001c40:	0c0022ac 	.word	0x0c0022ac
 c001c44:	0c0022ac 	.word	0x0c0022ac
 c001c48:	0c0022ac 	.word	0x0c0022ac
 c001c4c:	0c0022ac 	.word	0x0c0022ac
 c001c50:	0c002138 	.word	0x0c002138
 c001c54:	0c0022ac 	.word	0x0c0022ac
 c001c58:	0c0022ac 	.word	0x0c0022ac
 c001c5c:	0c002184 	.word	0x0c002184
 c001c60:	0c0022ac 	.word	0x0c0022ac
 c001c64:	0c0022ac 	.word	0x0c0022ac
 c001c68:	0c0022ac 	.word	0x0c0022ac
 c001c6c:	0c0022ac 	.word	0x0c0022ac
 c001c70:	0c0022ac 	.word	0x0c0022ac
 c001c74:	0c0022ac 	.word	0x0c0022ac
 c001c78:	0c0022ac 	.word	0x0c0022ac
 c001c7c:	0c0022ac 	.word	0x0c0022ac
 c001c80:	0c0022ac 	.word	0x0c0022ac
 c001c84:	0c0022ac 	.word	0x0c0022ac
 c001c88:	0c0023d4 	.word	0x0c0023d4
 c001c8c:	0c002388 	.word	0x0c002388
 c001c90:	0c002014 	.word	0x0c002014
 c001c94:	0c002014 	.word	0x0c002014
 c001c98:	0c002014 	.word	0x0c002014
 c001c9c:	0c0023c0 	.word	0x0c0023c0
 c001ca0:	0c002388 	.word	0x0c002388
 c001ca4:	0c0022ac 	.word	0x0c0022ac
 c001ca8:	0c0022ac 	.word	0x0c0022ac
 c001cac:	0c002208 	.word	0x0c002208
 c001cb0:	0c0022ac 	.word	0x0c0022ac
 c001cb4:	0c002230 	.word	0x0c002230
 c001cb8:	0c002268 	.word	0x0c002268
 c001cbc:	0c002420 	.word	0x0c002420
 c001cc0:	0c0021f4 	.word	0x0c0021f4
 c001cc4:	0c0022ac 	.word	0x0c0022ac
 c001cc8:	0c002474 	.word	0x0c002474
 c001ccc:	0c0022ac 	.word	0x0c0022ac
 c001cd0:	0c002340 	.word	0x0c002340
 c001cd4:	0c0022ac 	.word	0x0c0022ac
 c001cd8:	0c0022ac 	.word	0x0c0022ac
 c001cdc:	0c0024f8 	.word	0x0c0024f8
 c001ce0:	e59d0028 	ldr	r0, [sp, #40]	; 0x28
 c001ce4:	e2600000 	rsb	r0, r0, #0
 c001ce8:	e58d0028 	str	r0, [sp, #40]	; 0x28
 c001cec:	e58d203c 	str	r2, [sp, #60]	; 0x3c
 c001cf0:	e59d2018 	ldr	r2, [sp, #24]
 c001cf4:	e3822004 	orr	r2, r2, #4
 c001cf8:	e58d2018 	str	r2, [sp, #24]
 c001cfc:	e5dc3000 	ldrb	r3, [ip]
 c001d00:	eaffff98 	b	c001b68 <_svfprintf_r+0x134>
 c001d04:	e59d0038 	ldr	r0, [sp, #56]	; 0x38
 c001d08:	e59d1024 	ldr	r1, [sp, #36]	; 0x24
 c001d0c:	e28d20dc 	add	r2, sp, #220	; 0xdc
 c001d10:	eb00144a 	bl	c006e40 <__ssprint_r>
 c001d14:	e3500000 	cmp	r0, #0
 c001d18:	1a000007 	bne	c001d3c <_svfprintf_r+0x308>
 c001d1c:	e1a06007 	mov	r6, r7
 c001d20:	eaffff7e 	b	c001b20 <_svfprintf_r+0xec>
 c001d24:	e59d30e4 	ldr	r3, [sp, #228]	; 0xe4
 c001d28:	e3530000 	cmp	r3, #0
 c001d2c:	159d0038 	ldrne	r0, [sp, #56]	; 0x38
 c001d30:	159d1024 	ldrne	r1, [sp, #36]	; 0x24
 c001d34:	128d20dc 	addne	r2, sp, #220	; 0xdc
 c001d38:	1b001440 	blne	c006e40 <__ssprint_r>
 c001d3c:	e59d0024 	ldr	r0, [sp, #36]	; 0x24
 c001d40:	e1d030bc 	ldrh	r3, [r0, #12]
 c001d44:	e59d1030 	ldr	r1, [sp, #48]	; 0x30
 c001d48:	e3130040 	tst	r3, #64	; 0x40
 c001d4c:	13e01000 	mvnne	r1, #0
 c001d50:	e58d1030 	str	r1, [sp, #48]	; 0x30
 c001d54:	e59d0030 	ldr	r0, [sp, #48]	; 0x30
 c001d58:	e28ddf43 	add	sp, sp, #268	; 0x10c
 c001d5c:	e8bd4ff0 	pop	{r4, r5, r6, r7, r8, r9, sl, fp, lr}
 c001d60:	e12fff1e 	bx	lr
 c001d64:	e59d801c 	ldr	r8, [sp, #28]
 c001d68:	eaffff6f 	b	c001b2c <_svfprintf_r+0xf8>
 c001d6c:	e5cd1107 	strb	r1, [sp, #263]	; 0x107
 c001d70:	e5dc3000 	ldrb	r3, [ip]
 c001d74:	eaffff7b 	b	c001b68 <_svfprintf_r+0x134>
 c001d78:	e4dc3001 	ldrb	r3, [ip], #1
 c001d7c:	e353002a 	cmp	r3, #42	; 0x2a
 c001d80:	0a00076a 	beq	c003b30 <_svfprintf_r+0x20fc>
 c001d84:	e2432030 	sub	r2, r3, #48	; 0x30
 c001d88:	e3520009 	cmp	r2, #9
 c001d8c:	83a05000 	movhi	r5, #0
 c001d90:	8a000008 	bhi	c001db8 <_svfprintf_r+0x384>
 c001d94:	e1a0000c 	mov	r0, ip
 c001d98:	e3a05000 	mov	r5, #0
 c001d9c:	e4d03001 	ldrb	r3, [r0], #1
 c001da0:	e0855105 	add	r5, r5, r5, lsl #2
 c001da4:	e0825085 	add	r5, r2, r5, lsl #1
 c001da8:	e2432030 	sub	r2, r3, #48	; 0x30
 c001dac:	e3520009 	cmp	r2, #9
 c001db0:	e1a0c000 	mov	ip, r0
 c001db4:	9afffff8 	bls	c001d9c <_svfprintf_r+0x368>
 c001db8:	e1855fc5 	orr	r5, r5, r5, asr #31
 c001dbc:	eaffff6a 	b	c001b6c <_svfprintf_r+0x138>
 c001dc0:	e59d0018 	ldr	r0, [sp, #24]
 c001dc4:	e3800080 	orr	r0, r0, #128	; 0x80
 c001dc8:	e58d0018 	str	r0, [sp, #24]
 c001dcc:	e5dc3000 	ldrb	r3, [ip]
 c001dd0:	eaffff64 	b	c001b68 <_svfprintf_r+0x134>
 c001dd4:	e1a0000c 	mov	r0, ip
 c001dd8:	e3a02000 	mov	r2, #0
 c001ddc:	e243c030 	sub	ip, r3, #48	; 0x30
 c001de0:	e4d03001 	ldrb	r3, [r0], #1
 c001de4:	e2438030 	sub	r8, r3, #48	; 0x30
 c001de8:	e0822102 	add	r2, r2, r2, lsl #2
 c001dec:	e3580009 	cmp	r8, #9
 c001df0:	e08c2082 	add	r2, ip, r2, lsl #1
 c001df4:	e1a0c000 	mov	ip, r0
 c001df8:	9afffff7 	bls	c001ddc <_svfprintf_r+0x3a8>
 c001dfc:	e58d2028 	str	r2, [sp, #40]	; 0x28
 c001e00:	eaffff59 	b	c001b6c <_svfprintf_r+0x138>
 c001e04:	e58dc01c 	str	ip, [sp, #28]
 c001e08:	e59dc018 	ldr	ip, [sp, #24]
 c001e0c:	e38cc010 	orr	ip, ip, #16
 c001e10:	e58dc018 	str	ip, [sp, #24]
 c001e14:	e59d0018 	ldr	r0, [sp, #24]
 c001e18:	e3100020 	tst	r0, #32
 c001e1c:	e58d3048 	str	r3, [sp, #72]	; 0x48
 c001e20:	0a00015d 	beq	c00239c <_svfprintf_r+0x968>
 c001e24:	e59d103c 	ldr	r1, [sp, #60]	; 0x3c
 c001e28:	e2813007 	add	r3, r1, #7
 c001e2c:	e3c33007 	bic	r3, r3, #7
 c001e30:	e2832008 	add	r2, r3, #8
 c001e34:	e58d203c 	str	r2, [sp, #60]	; 0x3c
 c001e38:	e8930300 	ldm	r3, {r8, r9}
 c001e3c:	e3580000 	cmp	r8, #0
 c001e40:	e2d93000 	sbcs	r3, r9, #0
 c001e44:	ba000470 	blt	c00300c <_svfprintf_r+0x15d8>
 c001e48:	e198c009 	orrs	ip, r8, r9
 c001e4c:	03a02000 	moveq	r2, #0
 c001e50:	13a02001 	movne	r2, #1
 c001e54:	e3a03001 	mov	r3, #1
 c001e58:	e3550000 	cmp	r5, #0
 c001e5c:	a59dc018 	ldrge	ip, [sp, #24]
 c001e60:	a3ccc080 	bicge	ip, ip, #128	; 0x80
 c001e64:	a58dc018 	strge	ip, [sp, #24]
 c001e68:	e3550000 	cmp	r5, #0
 c001e6c:	13822001 	orrne	r2, r2, #1
 c001e70:	e3520000 	cmp	r2, #0
 c001e74:	0a0002c7 	beq	c002998 <_svfprintf_r+0xf64>
 c001e78:	e3530001 	cmp	r3, #1
 c001e7c:	0a0003c4 	beq	c002d94 <_svfprintf_r+0x1360>
 c001e80:	e3530002 	cmp	r3, #2
 c001e84:	0a0003ad 	beq	c002d40 <_svfprintf_r+0x130c>
 c001e88:	e28dc0b4 	add	ip, sp, #180	; 0xb4
 c001e8c:	e28c1027 	add	r1, ip, #39	; 0x27
 c001e90:	e1a021a9 	lsr	r2, r9, #3
 c001e94:	e1a001a8 	lsr	r0, r8, #3
 c001e98:	e1800e89 	orr	r0, r0, r9, lsl #29
 c001e9c:	e1a04002 	mov	r4, r2
 c001ea0:	e1a09004 	mov	r9, r4
 c001ea4:	e2082007 	and	r2, r8, #7
 c001ea8:	e1a08000 	mov	r8, r0
 c001eac:	e2823030 	add	r3, r2, #48	; 0x30
 c001eb0:	e1a00001 	mov	r0, r1
 c001eb4:	e1981009 	orrs	r1, r8, r9
 c001eb8:	e5c03000 	strb	r3, [r0]
 c001ebc:	e2401001 	sub	r1, r0, #1
 c001ec0:	1afffff2 	bne	c001e90 <_svfprintf_r+0x45c>
 c001ec4:	e59d2018 	ldr	r2, [sp, #24]
 c001ec8:	e3120001 	tst	r2, #1
 c001ecc:	e58d0040 	str	r0, [sp, #64]	; 0x40
 c001ed0:	1a000442 	bne	c002fe0 <_svfprintf_r+0x15ac>
 c001ed4:	e28cc028 	add	ip, ip, #40	; 0x28
 c001ed8:	e060c00c 	rsb	ip, r0, ip
 c001edc:	e58dc034 	str	ip, [sp, #52]	; 0x34
 c001ee0:	e59d1034 	ldr	r1, [sp, #52]	; 0x34
 c001ee4:	e3a03000 	mov	r3, #0
 c001ee8:	e1510005 	cmp	r1, r5
 c001eec:	b1a01005 	movlt	r1, r5
 c001ef0:	e58d1020 	str	r1, [sp, #32]
 c001ef4:	e5dd2107 	ldrb	r2, [sp, #263]	; 0x107
 c001ef8:	e58d504c 	str	r5, [sp, #76]	; 0x4c
 c001efc:	e58d3050 	str	r3, [sp, #80]	; 0x50
 c001f00:	e3520000 	cmp	r2, #0
 c001f04:	0a000002 	beq	c001f14 <_svfprintf_r+0x4e0>
 c001f08:	e59d3020 	ldr	r3, [sp, #32]
 c001f0c:	e2833001 	add	r3, r3, #1
 c001f10:	e58d3020 	str	r3, [sp, #32]
 c001f14:	e59dc018 	ldr	ip, [sp, #24]
 c001f18:	e21cb002 	ands	fp, ip, #2
 c001f1c:	159d0020 	ldrne	r0, [sp, #32]
 c001f20:	e59d1018 	ldr	r1, [sp, #24]
 c001f24:	12800002 	addne	r0, r0, #2
 c001f28:	158d0020 	strne	r0, [sp, #32]
 c001f2c:	e2111084 	ands	r1, r1, #132	; 0x84
 c001f30:	e58d1044 	str	r1, [sp, #68]	; 0x44
 c001f34:	1a00017f 	bne	c002538 <_svfprintf_r+0xb04>
 c001f38:	e59d3028 	ldr	r3, [sp, #40]	; 0x28
 c001f3c:	e59dc020 	ldr	ip, [sp, #32]
 c001f40:	e06c8003 	rsb	r8, ip, r3
 c001f44:	e3580000 	cmp	r8, #0
 c001f48:	da00017a 	ble	c002538 <_svfprintf_r+0xb04>
 c001f4c:	e3580010 	cmp	r8, #16
 c001f50:	da00066f 	ble	c003914 <_svfprintf_r+0x1ee0>
 c001f54:	e28d40e0 	add	r4, sp, #224	; 0xe0
 c001f58:	e8940030 	ldm	r4, {r4, r5}
 c001f5c:	e1a01005 	mov	r1, r5
 c001f60:	e1a02004 	mov	r2, r4
 c001f64:	e59faf48 	ldr	sl, [pc, #3912]	; c002eb4 <_svfprintf_r+0x1480>
 c001f68:	e3a09010 	mov	r9, #16
 c001f6c:	e59d4038 	ldr	r4, [sp, #56]	; 0x38
 c001f70:	e59d5024 	ldr	r5, [sp, #36]	; 0x24
 c001f74:	ea000002 	b	c001f84 <_svfprintf_r+0x550>
 c001f78:	e2488010 	sub	r8, r8, #16
 c001f7c:	e3580010 	cmp	r8, #16
 c001f80:	da000016 	ble	c001fe0 <_svfprintf_r+0x5ac>
 c001f84:	e2822001 	add	r2, r2, #1
 c001f88:	e3520007 	cmp	r2, #7
 c001f8c:	e586a000 	str	sl, [r6]
 c001f90:	e5869004 	str	r9, [r6, #4]
 c001f94:	e2811010 	add	r1, r1, #16
 c001f98:	d2866008 	addle	r6, r6, #8
 c001f9c:	e58d10e4 	str	r1, [sp, #228]	; 0xe4
 c001fa0:	e58d20e0 	str	r2, [sp, #224]	; 0xe0
 c001fa4:	d2863008 	addle	r3, r6, #8
 c001fa8:	dafffff2 	ble	c001f78 <_svfprintf_r+0x544>
 c001fac:	e1a00004 	mov	r0, r4
 c001fb0:	e1a01005 	mov	r1, r5
 c001fb4:	e28d20dc 	add	r2, sp, #220	; 0xdc
 c001fb8:	eb0013a0 	bl	c006e40 <__ssprint_r>
 c001fbc:	e3500000 	cmp	r0, #0
 c001fc0:	1affff5d 	bne	c001d3c <_svfprintf_r+0x308>
 c001fc4:	e2488010 	sub	r8, r8, #16
 c001fc8:	e3580010 	cmp	r8, #16
 c001fcc:	e59d10e4 	ldr	r1, [sp, #228]	; 0xe4
 c001fd0:	e59d20e0 	ldr	r2, [sp, #224]	; 0xe0
 c001fd4:	e2873008 	add	r3, r7, #8
 c001fd8:	e1a06007 	mov	r6, r7
 c001fdc:	caffffe8 	bgt	c001f84 <_svfprintf_r+0x550>
 c001fe0:	e1a04002 	mov	r4, r2
 c001fe4:	e1a05001 	mov	r5, r1
 c001fe8:	e2844001 	add	r4, r4, #1
 c001fec:	e0855008 	add	r5, r5, r8
 c001ff0:	e3540007 	cmp	r4, #7
 c001ff4:	e586a000 	str	sl, [r6]
 c001ff8:	e5868004 	str	r8, [r6, #4]
 c001ffc:	e58d50e4 	str	r5, [sp, #228]	; 0xe4
 c002000:	e58d40e0 	str	r4, [sp, #224]	; 0xe0
 c002004:	ca00036c 	bgt	c002dbc <_svfprintf_r+0x1388>
 c002008:	e5dd2107 	ldrb	r2, [sp, #263]	; 0x107
 c00200c:	e1a06003 	mov	r6, r3
 c002010:	ea000149 	b	c00253c <_svfprintf_r+0xb08>
 c002014:	e59d1018 	ldr	r1, [sp, #24]
 c002018:	e3110008 	tst	r1, #8
 c00201c:	e58dc01c 	str	ip, [sp, #28]
 c002020:	e58d3048 	str	r3, [sp, #72]	; 0x48
 c002024:	e1a08003 	mov	r8, r3
 c002028:	0a000416 	beq	c003088 <_svfprintf_r+0x1654>
 c00202c:	e59d203c 	ldr	r2, [sp, #60]	; 0x3c
 c002030:	e2823007 	add	r3, r2, #7
 c002034:	e3c33007 	bic	r3, r3, #7
 c002038:	e5930000 	ldr	r0, [r3]
 c00203c:	e283c008 	add	ip, r3, #8
 c002040:	e5933004 	ldr	r3, [r3, #4]
 c002044:	e58dc03c 	str	ip, [sp, #60]	; 0x3c
 c002048:	e58d0058 	str	r0, [sp, #88]	; 0x58
 c00204c:	e58d305c 	str	r3, [sp, #92]	; 0x5c
 c002050:	e28d0058 	add	r0, sp, #88	; 0x58
 c002054:	e8900003 	ldm	r0, {r0, r1}
 c002058:	eb0012a1 	bl	c006ae4 <__fpclassifyd>
 c00205c:	e3500001 	cmp	r0, #1
 c002060:	1a0003f2 	bne	c003030 <_svfprintf_r+0x15fc>
 c002064:	e3a02000 	mov	r2, #0
 c002068:	e59d105c 	ldr	r1, [sp, #92]	; 0x5c
 c00206c:	e3a03000 	mov	r3, #0
 c002070:	e59d0058 	ldr	r0, [sp, #88]	; 0x58
 c002074:	eb001e62 	bl	c009a04 <__aeabi_dcmplt>
 c002078:	e3a01000 	mov	r1, #0
 c00207c:	e3500000 	cmp	r0, #0
 c002080:	e59dc048 	ldr	ip, [sp, #72]	; 0x48
 c002084:	13a0202d 	movne	r2, #45	; 0x2d
 c002088:	e3a00003 	mov	r0, #3
 c00208c:	e58d104c 	str	r1, [sp, #76]	; 0x4c
 c002090:	e59f1e20 	ldr	r1, [pc, #3616]	; c002eb8 <_svfprintf_r+0x1484>
 c002094:	e59f3e20 	ldr	r3, [pc, #3616]	; c002ebc <_svfprintf_r+0x1488>
 c002098:	05dd2107 	ldrbeq	r2, [sp, #263]	; 0x107
 c00209c:	15cd2107 	strbne	r2, [sp, #263]	; 0x107
 c0020a0:	e58d0020 	str	r0, [sp, #32]
 c0020a4:	e35c0047 	cmp	ip, #71	; 0x47
 c0020a8:	e59d0018 	ldr	r0, [sp, #24]
 c0020ac:	d1a03001 	movle	r3, r1
 c0020b0:	e58d3040 	str	r3, [sp, #64]	; 0x40
 c0020b4:	e3c00080 	bic	r0, r0, #128	; 0x80
 c0020b8:	e3a01003 	mov	r1, #3
 c0020bc:	e3a03000 	mov	r3, #0
 c0020c0:	e58d0018 	str	r0, [sp, #24]
 c0020c4:	e58d1034 	str	r1, [sp, #52]	; 0x34
 c0020c8:	e58d3050 	str	r3, [sp, #80]	; 0x50
 c0020cc:	eaffff8b 	b	c001f00 <_svfprintf_r+0x4cc>
 c0020d0:	e59d2018 	ldr	r2, [sp, #24]
 c0020d4:	e3822008 	orr	r2, r2, #8
 c0020d8:	e58d2018 	str	r2, [sp, #24]
 c0020dc:	e5dc3000 	ldrb	r3, [ip]
 c0020e0:	eafffea0 	b	c001b68 <_svfprintf_r+0x134>
 c0020e4:	e59d1018 	ldr	r1, [sp, #24]
 c0020e8:	e3811010 	orr	r1, r1, #16
 c0020ec:	e58d1018 	str	r1, [sp, #24]
 c0020f0:	e59d2018 	ldr	r2, [sp, #24]
 c0020f4:	e58d3048 	str	r3, [sp, #72]	; 0x48
 c0020f8:	e2123020 	ands	r3, r2, #32
 c0020fc:	e58dc01c 	str	ip, [sp, #28]
 c002100:	0a00005d 	beq	c00227c <_svfprintf_r+0x848>
 c002104:	e59dc03c 	ldr	ip, [sp, #60]	; 0x3c
 c002108:	e28c3007 	add	r3, ip, #7
 c00210c:	e3c33007 	bic	r3, r3, #7
 c002110:	e8930300 	ldm	r3, {r8, r9}
 c002114:	e2833008 	add	r3, r3, #8
 c002118:	e1980009 	orrs	r0, r8, r9
 c00211c:	e58d303c 	str	r3, [sp, #60]	; 0x3c
 c002120:	03a02000 	moveq	r2, #0
 c002124:	13a02001 	movne	r2, #1
 c002128:	e3a03000 	mov	r3, #0
 c00212c:	e3a01000 	mov	r1, #0
 c002130:	e5cd1107 	strb	r1, [sp, #263]	; 0x107
 c002134:	eaffff47 	b	c001e58 <_svfprintf_r+0x424>
 c002138:	e59d0018 	ldr	r0, [sp, #24]
 c00213c:	e3800010 	orr	r0, r0, #16
 c002140:	e58d0018 	str	r0, [sp, #24]
 c002144:	e59d1018 	ldr	r1, [sp, #24]
 c002148:	e3110020 	tst	r1, #32
 c00214c:	e58dc01c 	str	ip, [sp, #28]
 c002150:	e58d3048 	str	r3, [sp, #72]	; 0x48
 c002154:	0a00007e 	beq	c002354 <_svfprintf_r+0x920>
 c002158:	e59d203c 	ldr	r2, [sp, #60]	; 0x3c
 c00215c:	e2823007 	add	r3, r2, #7
 c002160:	e3c33007 	bic	r3, r3, #7
 c002164:	e8930300 	ldm	r3, {r8, r9}
 c002168:	e2833008 	add	r3, r3, #8
 c00216c:	e198c009 	orrs	ip, r8, r9
 c002170:	e58d303c 	str	r3, [sp, #60]	; 0x3c
 c002174:	03a02000 	moveq	r2, #0
 c002178:	13a02001 	movne	r2, #1
 c00217c:	e3a03001 	mov	r3, #1
 c002180:	eaffffe9 	b	c00212c <_svfprintf_r+0x6f8>
 c002184:	e58d3048 	str	r3, [sp, #72]	; 0x48
 c002188:	e59d3018 	ldr	r3, [sp, #24]
 c00218c:	e59f2d2c 	ldr	r2, [pc, #3372]	; c002ec0 <_svfprintf_r+0x148c>
 c002190:	e3130020 	tst	r3, #32
 c002194:	e58dc01c 	str	ip, [sp, #28]
 c002198:	e58d2068 	str	r2, [sp, #104]	; 0x68
 c00219c:	0a0000dc 	beq	c002514 <_svfprintf_r+0xae0>
 c0021a0:	e59dc03c 	ldr	ip, [sp, #60]	; 0x3c
 c0021a4:	e28c3007 	add	r3, ip, #7
 c0021a8:	e3c33007 	bic	r3, r3, #7
 c0021ac:	e2830008 	add	r0, r3, #8
 c0021b0:	e58d003c 	str	r0, [sp, #60]	; 0x3c
 c0021b4:	e8930300 	ldm	r3, {r8, r9}
 c0021b8:	e59d3018 	ldr	r3, [sp, #24]
 c0021bc:	e1981009 	orrs	r1, r8, r9
 c0021c0:	03a02000 	moveq	r2, #0
 c0021c4:	13a02001 	movne	r2, #1
 c0021c8:	e1130002 	tst	r3, r2
 c0021cc:	159d0018 	ldrne	r0, [sp, #24]
 c0021d0:	159dc048 	ldrne	ip, [sp, #72]	; 0x48
 c0021d4:	13a03030 	movne	r3, #48	; 0x30
 c0021d8:	13800002 	orrne	r0, r0, #2
 c0021dc:	15cd3104 	strbne	r3, [sp, #260]	; 0x104
 c0021e0:	15cdc105 	strbne	ip, [sp, #261]	; 0x105
 c0021e4:	158d0018 	strne	r0, [sp, #24]
 c0021e8:	13a02001 	movne	r2, #1
 c0021ec:	e3a03002 	mov	r3, #2
 c0021f0:	eaffffcd 	b	c00212c <_svfprintf_r+0x6f8>
 c0021f4:	e59d3018 	ldr	r3, [sp, #24]
 c0021f8:	e3833020 	orr	r3, r3, #32
 c0021fc:	e58d3018 	str	r3, [sp, #24]
 c002200:	e5dc3000 	ldrb	r3, [ip]
 c002204:	eafffe57 	b	c001b68 <_svfprintf_r+0x134>
 c002208:	e5dc3000 	ldrb	r3, [ip]
 c00220c:	e353006c 	cmp	r3, #108	; 0x6c
 c002210:	059d0018 	ldreq	r0, [sp, #24]
 c002214:	159d2018 	ldrne	r2, [sp, #24]
 c002218:	03800020 	orreq	r0, r0, #32
 c00221c:	058d0018 	streq	r0, [sp, #24]
 c002220:	13822010 	orrne	r2, r2, #16
 c002224:	05fc3001 	ldrbeq	r3, [ip, #1]!
 c002228:	158d2018 	strne	r2, [sp, #24]
 c00222c:	eafffe4d 	b	c001b68 <_svfprintf_r+0x134>
 c002230:	e59d1018 	ldr	r1, [sp, #24]
 c002234:	e3110020 	tst	r1, #32
 c002238:	e58dc01c 	str	ip, [sp, #28]
 c00223c:	0a0003c2 	beq	c00314c <_svfprintf_r+0x1718>
 c002240:	e59d203c 	ldr	r2, [sp, #60]	; 0x3c
 c002244:	e59dc030 	ldr	ip, [sp, #48]	; 0x30
 c002248:	e59d003c 	ldr	r0, [sp, #60]	; 0x3c
 c00224c:	e5923000 	ldr	r3, [r2]
 c002250:	e2800004 	add	r0, r0, #4
 c002254:	e1a0100c 	mov	r1, ip
 c002258:	e1a02fc1 	asr	r2, r1, #31
 c00225c:	e8830006 	stm	r3, {r1, r2}
 c002260:	e58d003c 	str	r0, [sp, #60]	; 0x3c
 c002264:	eafffe14 	b	c001abc <_svfprintf_r+0x88>
 c002268:	e59d2018 	ldr	r2, [sp, #24]
 c00226c:	e58d3048 	str	r3, [sp, #72]	; 0x48
 c002270:	e2123020 	ands	r3, r2, #32
 c002274:	e58dc01c 	str	ip, [sp, #28]
 c002278:	1affffa1 	bne	c002104 <_svfprintf_r+0x6d0>
 c00227c:	e59d1018 	ldr	r1, [sp, #24]
 c002280:	e2112010 	ands	r2, r1, #16
 c002284:	0a000396 	beq	c0030e4 <_svfprintf_r+0x16b0>
 c002288:	e59dc03c 	ldr	ip, [sp, #60]	; 0x3c
 c00228c:	e59c2000 	ldr	r2, [ip]
 c002290:	e28cc004 	add	ip, ip, #4
 c002294:	e1a08002 	mov	r8, r2
 c002298:	e3a09000 	mov	r9, #0
 c00229c:	e2522000 	subs	r2, r2, #0
 c0022a0:	13a02001 	movne	r2, #1
 c0022a4:	e58dc03c 	str	ip, [sp, #60]	; 0x3c
 c0022a8:	eaffff9f 	b	c00212c <_svfprintf_r+0x6f8>
 c0022ac:	e3530000 	cmp	r3, #0
 c0022b0:	e58dc01c 	str	ip, [sp, #28]
 c0022b4:	e58d3048 	str	r3, [sp, #72]	; 0x48
 c0022b8:	0afffe99 	beq	c001d24 <_svfprintf_r+0x2f0>
 c0022bc:	e3a02000 	mov	r2, #0
 c0022c0:	e3a0c001 	mov	ip, #1
 c0022c4:	e3a00000 	mov	r0, #0
 c0022c8:	e28d10b4 	add	r1, sp, #180	; 0xb4
 c0022cc:	e58dc020 	str	ip, [sp, #32]
 c0022d0:	e5cd30b4 	strb	r3, [sp, #180]	; 0xb4
 c0022d4:	e5cd0107 	strb	r0, [sp, #263]	; 0x107
 c0022d8:	e58dc034 	str	ip, [sp, #52]	; 0x34
 c0022dc:	e58d204c 	str	r2, [sp, #76]	; 0x4c
 c0022e0:	e58d2050 	str	r2, [sp, #80]	; 0x50
 c0022e4:	e58d1040 	str	r1, [sp, #64]	; 0x40
 c0022e8:	eaffff09 	b	c001f14 <_svfprintf_r+0x4e0>
 c0022ec:	e5dd3107 	ldrb	r3, [sp, #263]	; 0x107
 c0022f0:	e3530000 	cmp	r3, #0
 c0022f4:	15dc3000 	ldrbne	r3, [ip]
 c0022f8:	05cd4107 	strbeq	r4, [sp, #263]	; 0x107
 c0022fc:	05dc3000 	ldrbeq	r3, [ip]
 c002300:	eafffe18 	b	c001b68 <_svfprintf_r+0x134>
 c002304:	e59d3018 	ldr	r3, [sp, #24]
 c002308:	e3833001 	orr	r3, r3, #1
 c00230c:	e58d3018 	str	r3, [sp, #24]
 c002310:	e5dc3000 	ldrb	r3, [ip]
 c002314:	eafffe13 	b	c001b68 <_svfprintf_r+0x134>
 c002318:	e59d003c 	ldr	r0, [sp, #60]	; 0x3c
 c00231c:	e5900000 	ldr	r0, [r0]
 c002320:	e59d303c 	ldr	r3, [sp, #60]	; 0x3c
 c002324:	e3500000 	cmp	r0, #0
 c002328:	e58d0028 	str	r0, [sp, #40]	; 0x28
 c00232c:	e2832004 	add	r2, r3, #4
 c002330:	bafffe6a 	blt	c001ce0 <_svfprintf_r+0x2ac>
 c002334:	e5dc3000 	ldrb	r3, [ip]
 c002338:	e58d203c 	str	r2, [sp, #60]	; 0x3c
 c00233c:	eafffe09 	b	c001b68 <_svfprintf_r+0x134>
 c002340:	e59d1018 	ldr	r1, [sp, #24]
 c002344:	e3110020 	tst	r1, #32
 c002348:	e58dc01c 	str	ip, [sp, #28]
 c00234c:	e58d3048 	str	r3, [sp, #72]	; 0x48
 c002350:	1affff80 	bne	c002158 <_svfprintf_r+0x724>
 c002354:	e59d0018 	ldr	r0, [sp, #24]
 c002358:	e3100010 	tst	r0, #16
 c00235c:	0a000352 	beq	c0030ac <_svfprintf_r+0x1678>
 c002360:	e59d103c 	ldr	r1, [sp, #60]	; 0x3c
 c002364:	e5912000 	ldr	r2, [r1]
 c002368:	e2811004 	add	r1, r1, #4
 c00236c:	e1a08002 	mov	r8, r2
 c002370:	e3a09000 	mov	r9, #0
 c002374:	e2522000 	subs	r2, r2, #0
 c002378:	e3a03001 	mov	r3, #1
 c00237c:	13a02001 	movne	r2, #1
 c002380:	e58d103c 	str	r1, [sp, #60]	; 0x3c
 c002384:	eaffff68 	b	c00212c <_svfprintf_r+0x6f8>
 c002388:	e59d0018 	ldr	r0, [sp, #24]
 c00238c:	e3100020 	tst	r0, #32
 c002390:	e58dc01c 	str	ip, [sp, #28]
 c002394:	e58d3048 	str	r3, [sp, #72]	; 0x48
 c002398:	1afffea1 	bne	c001e24 <_svfprintf_r+0x3f0>
 c00239c:	e59d3018 	ldr	r3, [sp, #24]
 c0023a0:	e3130010 	tst	r3, #16
 c0023a4:	0a000372 	beq	c003174 <_svfprintf_r+0x1740>
 c0023a8:	e59dc03c 	ldr	ip, [sp, #60]	; 0x3c
 c0023ac:	e59c8000 	ldr	r8, [ip]
 c0023b0:	e28cc004 	add	ip, ip, #4
 c0023b4:	e58dc03c 	str	ip, [sp, #60]	; 0x3c
 c0023b8:	e1a09fc8 	asr	r9, r8, #31
 c0023bc:	eafffe9e 	b	c001e3c <_svfprintf_r+0x408>
 c0023c0:	e59d3018 	ldr	r3, [sp, #24]
 c0023c4:	e3833040 	orr	r3, r3, #64	; 0x40
 c0023c8:	e58d3018 	str	r3, [sp, #24]
 c0023cc:	e5dc3000 	ldrb	r3, [ip]
 c0023d0:	eafffde4 	b	c001b68 <_svfprintf_r+0x134>
 c0023d4:	e58d3048 	str	r3, [sp, #72]	; 0x48
 c0023d8:	e59d303c 	ldr	r3, [sp, #60]	; 0x3c
 c0023dc:	e59d003c 	ldr	r0, [sp, #60]	; 0x3c
 c0023e0:	e5933000 	ldr	r3, [r3]
 c0023e4:	e3a02000 	mov	r2, #0
 c0023e8:	e58dc01c 	str	ip, [sp, #28]
 c0023ec:	e2800004 	add	r0, r0, #4
 c0023f0:	e3a0c001 	mov	ip, #1
 c0023f4:	e5cd30b4 	strb	r3, [sp, #180]	; 0xb4
 c0023f8:	e3a01000 	mov	r1, #0
 c0023fc:	e28d30b4 	add	r3, sp, #180	; 0xb4
 c002400:	e58dc020 	str	ip, [sp, #32]
 c002404:	e58d003c 	str	r0, [sp, #60]	; 0x3c
 c002408:	e5cd1107 	strb	r1, [sp, #263]	; 0x107
 c00240c:	e58dc034 	str	ip, [sp, #52]	; 0x34
 c002410:	e58d204c 	str	r2, [sp, #76]	; 0x4c
 c002414:	e58d2050 	str	r2, [sp, #80]	; 0x50
 c002418:	e58d3040 	str	r3, [sp, #64]	; 0x40
 c00241c:	eafffebc 	b	c001f14 <_svfprintf_r+0x4e0>
 c002420:	e59d303c 	ldr	r3, [sp, #60]	; 0x3c
 c002424:	e58dc01c 	str	ip, [sp, #28]
 c002428:	e5932000 	ldr	r2, [r3]
 c00242c:	e59dc018 	ldr	ip, [sp, #24]
 c002430:	e2833004 	add	r3, r3, #4
 c002434:	e59f0a88 	ldr	r0, [pc, #2696]	; c002ec4 <_svfprintf_r+0x1490>
 c002438:	e3a01078 	mov	r1, #120	; 0x78
 c00243c:	e58d303c 	str	r3, [sp, #60]	; 0x3c
 c002440:	e38cc002 	orr	ip, ip, #2
 c002444:	e3a03030 	mov	r3, #48	; 0x30
 c002448:	e1a08002 	mov	r8, r2
 c00244c:	e3a09000 	mov	r9, #0
 c002450:	e2522000 	subs	r2, r2, #0
 c002454:	e5cd3104 	strb	r3, [sp, #260]	; 0x104
 c002458:	e58dc018 	str	ip, [sp, #24]
 c00245c:	e5cd1105 	strb	r1, [sp, #261]	; 0x105
 c002460:	13a02001 	movne	r2, #1
 c002464:	e58d0068 	str	r0, [sp, #104]	; 0x68
 c002468:	e3a03002 	mov	r3, #2
 c00246c:	e58d1048 	str	r1, [sp, #72]	; 0x48
 c002470:	eaffff2d 	b	c00212c <_svfprintf_r+0x6f8>
 c002474:	e3a01000 	mov	r1, #0
 c002478:	e5cd1107 	strb	r1, [sp, #263]	; 0x107
 c00247c:	e59d203c 	ldr	r2, [sp, #60]	; 0x3c
 c002480:	e5922000 	ldr	r2, [r2]
 c002484:	e58d3048 	str	r3, [sp, #72]	; 0x48
 c002488:	e59d303c 	ldr	r3, [sp, #60]	; 0x3c
 c00248c:	e3520000 	cmp	r2, #0
 c002490:	e58dc01c 	str	ip, [sp, #28]
 c002494:	e58d2040 	str	r2, [sp, #64]	; 0x40
 c002498:	e2834004 	add	r4, r3, #4
 c00249c:	0a000536 	beq	c00397c <_svfprintf_r+0x1f48>
 c0024a0:	e3550000 	cmp	r5, #0
 c0024a4:	ba00050e 	blt	c0038e4 <_svfprintf_r+0x1eb0>
 c0024a8:	e59d0040 	ldr	r0, [sp, #64]	; 0x40
 c0024ac:	e3a01000 	mov	r1, #0
 c0024b0:	e1a02005 	mov	r2, r5
 c0024b4:	eb000d98 	bl	c005b1c <memchr>
 c0024b8:	e3500000 	cmp	r0, #0
 c0024bc:	0a00056b 	beq	c003a70 <_svfprintf_r+0x203c>
 c0024c0:	e59d2040 	ldr	r2, [sp, #64]	; 0x40
 c0024c4:	e0620000 	rsb	r0, r2, r0
 c0024c8:	e1500005 	cmp	r0, r5
 c0024cc:	e58d0034 	str	r0, [sp, #52]	; 0x34
 c0024d0:	da0003e2 	ble	c003460 <_svfprintf_r+0x1a2c>
 c0024d4:	e3a03000 	mov	r3, #0
 c0024d8:	e1c5cfc5 	bic	ip, r5, r5, asr #31
 c0024dc:	e58d304c 	str	r3, [sp, #76]	; 0x4c
 c0024e0:	e58dc020 	str	ip, [sp, #32]
 c0024e4:	e5dd2107 	ldrb	r2, [sp, #263]	; 0x107
 c0024e8:	e58d403c 	str	r4, [sp, #60]	; 0x3c
 c0024ec:	e58d5034 	str	r5, [sp, #52]	; 0x34
 c0024f0:	e58d3050 	str	r3, [sp, #80]	; 0x50
 c0024f4:	eafffe81 	b	c001f00 <_svfprintf_r+0x4cc>
 c0024f8:	e58d3048 	str	r3, [sp, #72]	; 0x48
 c0024fc:	e59d3018 	ldr	r3, [sp, #24]
 c002500:	e59f19bc 	ldr	r1, [pc, #2492]	; c002ec4 <_svfprintf_r+0x1490>
 c002504:	e3130020 	tst	r3, #32
 c002508:	e58dc01c 	str	ip, [sp, #28]
 c00250c:	e58d1068 	str	r1, [sp, #104]	; 0x68
 c002510:	1affff22 	bne	c0021a0 <_svfprintf_r+0x76c>
 c002514:	e59d1018 	ldr	r1, [sp, #24]
 c002518:	e3110010 	tst	r1, #16
 c00251c:	0a0002fe 	beq	c00311c <_svfprintf_r+0x16e8>
 c002520:	e59d203c 	ldr	r2, [sp, #60]	; 0x3c
 c002524:	e5928000 	ldr	r8, [r2]
 c002528:	e2822004 	add	r2, r2, #4
 c00252c:	e58d203c 	str	r2, [sp, #60]	; 0x3c
 c002530:	e3a09000 	mov	r9, #0
 c002534:	eaffff1f 	b	c0021b8 <_svfprintf_r+0x784>
 c002538:	e59d50e4 	ldr	r5, [sp, #228]	; 0xe4
 c00253c:	e3520000 	cmp	r2, #0
 c002540:	0a00000c 	beq	c002578 <_svfprintf_r+0xb44>
 c002544:	e59d40e0 	ldr	r4, [sp, #224]	; 0xe0
 c002548:	e28d3f41 	add	r3, sp, #260	; 0x104
 c00254c:	e2844001 	add	r4, r4, #1
 c002550:	e2833003 	add	r3, r3, #3
 c002554:	e5863000 	str	r3, [r6]
 c002558:	e2855001 	add	r5, r5, #1
 c00255c:	e3540007 	cmp	r4, #7
 c002560:	e3a03001 	mov	r3, #1
 c002564:	e5863004 	str	r3, [r6, #4]
 c002568:	e58d50e4 	str	r5, [sp, #228]	; 0xe4
 c00256c:	e58d40e0 	str	r4, [sp, #224]	; 0xe0
 c002570:	d2866008 	addle	r6, r6, #8
 c002574:	ca00019f 	bgt	c002bf8 <_svfprintf_r+0x11c4>
 c002578:	e35b0000 	cmp	fp, #0
 c00257c:	0a00000b 	beq	c0025b0 <_svfprintf_r+0xb7c>
 c002580:	e59d40e0 	ldr	r4, [sp, #224]	; 0xe0
 c002584:	e28d3f41 	add	r3, sp, #260	; 0x104
 c002588:	e2844001 	add	r4, r4, #1
 c00258c:	e5863000 	str	r3, [r6]
 c002590:	e2855002 	add	r5, r5, #2
 c002594:	e3540007 	cmp	r4, #7
 c002598:	e3a03002 	mov	r3, #2
 c00259c:	e5863004 	str	r3, [r6, #4]
 c0025a0:	e58d50e4 	str	r5, [sp, #228]	; 0xe4
 c0025a4:	e58d40e0 	str	r4, [sp, #224]	; 0xe0
 c0025a8:	d2866008 	addle	r6, r6, #8
 c0025ac:	ca00019a 	bgt	c002c1c <_svfprintf_r+0x11e8>
 c0025b0:	e59d0044 	ldr	r0, [sp, #68]	; 0x44
 c0025b4:	e3500080 	cmp	r0, #128	; 0x80
 c0025b8:	0a000102 	beq	c0029c8 <_svfprintf_r+0xf94>
 c0025bc:	e59d304c 	ldr	r3, [sp, #76]	; 0x4c
 c0025c0:	e59dc034 	ldr	ip, [sp, #52]	; 0x34
 c0025c4:	e06c8003 	rsb	r8, ip, r3
 c0025c8:	e3580000 	cmp	r8, #0
 c0025cc:	da00013b 	ble	c002ac0 <_svfprintf_r+0x108c>
 c0025d0:	e3580010 	cmp	r8, #16
 c0025d4:	da000352 	ble	c003324 <_svfprintf_r+0x18f0>
 c0025d8:	e59d40e0 	ldr	r4, [sp, #224]	; 0xe0
 c0025dc:	e59fa8fc 	ldr	sl, [pc, #2300]	; c002ee0 <_svfprintf_r+0x14ac>
 c0025e0:	e1a03004 	mov	r3, r4
 c0025e4:	e3a0b010 	mov	fp, #16
 c0025e8:	e59d9038 	ldr	r9, [sp, #56]	; 0x38
 c0025ec:	e59d4024 	ldr	r4, [sp, #36]	; 0x24
 c0025f0:	ea000002 	b	c002600 <_svfprintf_r+0xbcc>
 c0025f4:	e2488010 	sub	r8, r8, #16
 c0025f8:	e3580010 	cmp	r8, #16
 c0025fc:	da000015 	ble	c002658 <_svfprintf_r+0xc24>
 c002600:	e2833001 	add	r3, r3, #1
 c002604:	e3530007 	cmp	r3, #7
 c002608:	e8860c00 	stm	r6, {sl, fp}
 c00260c:	e2855010 	add	r5, r5, #16
 c002610:	d2866008 	addle	r6, r6, #8
 c002614:	e58d50e4 	str	r5, [sp, #228]	; 0xe4
 c002618:	e58d30e0 	str	r3, [sp, #224]	; 0xe0
 c00261c:	d2862008 	addle	r2, r6, #8
 c002620:	dafffff3 	ble	c0025f4 <_svfprintf_r+0xbc0>
 c002624:	e1a00009 	mov	r0, r9
 c002628:	e1a01004 	mov	r1, r4
 c00262c:	e28d20dc 	add	r2, sp, #220	; 0xdc
 c002630:	eb001202 	bl	c006e40 <__ssprint_r>
 c002634:	e3500000 	cmp	r0, #0
 c002638:	1afffdbf 	bne	c001d3c <_svfprintf_r+0x308>
 c00263c:	e2488010 	sub	r8, r8, #16
 c002640:	e3580010 	cmp	r8, #16
 c002644:	e28d30e0 	add	r3, sp, #224	; 0xe0
 c002648:	e8930028 	ldm	r3, {r3, r5}
 c00264c:	e2872008 	add	r2, r7, #8
 c002650:	e1a06007 	mov	r6, r7
 c002654:	caffffe9 	bgt	c002600 <_svfprintf_r+0xbcc>
 c002658:	e1a09002 	mov	r9, r2
 c00265c:	e1a04003 	mov	r4, r3
 c002660:	e2844001 	add	r4, r4, #1
 c002664:	e0855008 	add	r5, r5, r8
 c002668:	e3540007 	cmp	r4, #7
 c00266c:	e586a000 	str	sl, [r6]
 c002670:	e5868004 	str	r8, [r6, #4]
 c002674:	e58d50e4 	str	r5, [sp, #228]	; 0xe4
 c002678:	e58d40e0 	str	r4, [sp, #224]	; 0xe0
 c00267c:	ca000154 	bgt	c002bd4 <_svfprintf_r+0x11a0>
 c002680:	e59d0018 	ldr	r0, [sp, #24]
 c002684:	e3100c01 	tst	r0, #256	; 0x100
 c002688:	1a000075 	bne	c002864 <_svfprintf_r+0xe30>
 c00268c:	e59d40e0 	ldr	r4, [sp, #224]	; 0xe0
 c002690:	e59d1034 	ldr	r1, [sp, #52]	; 0x34
 c002694:	e2844001 	add	r4, r4, #1
 c002698:	e59d2040 	ldr	r2, [sp, #64]	; 0x40
 c00269c:	e0855001 	add	r5, r5, r1
 c0026a0:	e3540007 	cmp	r4, #7
 c0026a4:	e5892000 	str	r2, [r9]
 c0026a8:	e5891004 	str	r1, [r9, #4]
 c0026ac:	e58d50e4 	str	r5, [sp, #228]	; 0xe4
 c0026b0:	e58d40e0 	str	r4, [sp, #224]	; 0xe0
 c0026b4:	ca000061 	bgt	c002840 <_svfprintf_r+0xe0c>
 c0026b8:	e2899008 	add	r9, r9, #8
 c0026bc:	e59d3018 	ldr	r3, [sp, #24]
 c0026c0:	e3130004 	tst	r3, #4
 c0026c4:	0a000037 	beq	c0027a8 <_svfprintf_r+0xd74>
 c0026c8:	e59dc028 	ldr	ip, [sp, #40]	; 0x28
 c0026cc:	e59d0020 	ldr	r0, [sp, #32]
 c0026d0:	e060600c 	rsb	r6, r0, ip
 c0026d4:	e3560000 	cmp	r6, #0
 c0026d8:	da000032 	ble	c0027a8 <_svfprintf_r+0xd74>
 c0026dc:	e3560010 	cmp	r6, #16
 c0026e0:	d59d40e0 	ldrle	r4, [sp, #224]	; 0xe0
 c0026e4:	d59fa7c8 	ldrle	sl, [pc, #1992]	; c002eb4 <_svfprintf_r+0x1480>
 c0026e8:	da00001f 	ble	c00276c <_svfprintf_r+0xd38>
 c0026ec:	e59d40e0 	ldr	r4, [sp, #224]	; 0xe0
 c0026f0:	e59fa7bc 	ldr	sl, [pc, #1980]	; c002eb4 <_svfprintf_r+0x1480>
 c0026f4:	e1a03004 	mov	r3, r4
 c0026f8:	e3a08010 	mov	r8, #16
 c0026fc:	e59db038 	ldr	fp, [sp, #56]	; 0x38
 c002700:	e59d4024 	ldr	r4, [sp, #36]	; 0x24
 c002704:	ea000002 	b	c002714 <_svfprintf_r+0xce0>
 c002708:	e2466010 	sub	r6, r6, #16
 c00270c:	e3560010 	cmp	r6, #16
 c002710:	da000014 	ble	c002768 <_svfprintf_r+0xd34>
 c002714:	e2833001 	add	r3, r3, #1
 c002718:	e3530007 	cmp	r3, #7
 c00271c:	e2855010 	add	r5, r5, #16
 c002720:	e589a000 	str	sl, [r9]
 c002724:	e5898004 	str	r8, [r9, #4]
 c002728:	e58d50e4 	str	r5, [sp, #228]	; 0xe4
 c00272c:	e58d30e0 	str	r3, [sp, #224]	; 0xe0
 c002730:	d2899008 	addle	r9, r9, #8
 c002734:	dafffff3 	ble	c002708 <_svfprintf_r+0xcd4>
 c002738:	e1a0000b 	mov	r0, fp
 c00273c:	e1a01004 	mov	r1, r4
 c002740:	e28d20dc 	add	r2, sp, #220	; 0xdc
 c002744:	eb0011bd 	bl	c006e40 <__ssprint_r>
 c002748:	e3500000 	cmp	r0, #0
 c00274c:	1afffd7a 	bne	c001d3c <_svfprintf_r+0x308>
 c002750:	e2466010 	sub	r6, r6, #16
 c002754:	e3560010 	cmp	r6, #16
 c002758:	e28d30e0 	add	r3, sp, #224	; 0xe0
 c00275c:	e8930028 	ldm	r3, {r3, r5}
 c002760:	e1a09007 	mov	r9, r7
 c002764:	caffffea 	bgt	c002714 <_svfprintf_r+0xce0>
 c002768:	e1a04003 	mov	r4, r3
 c00276c:	e2844001 	add	r4, r4, #1
 c002770:	e0865005 	add	r5, r6, r5
 c002774:	e3540007 	cmp	r4, #7
 c002778:	e589a000 	str	sl, [r9]
 c00277c:	e5896004 	str	r6, [r9, #4]
 c002780:	e58d50e4 	str	r5, [sp, #228]	; 0xe4
 c002784:	e58d40e0 	str	r4, [sp, #224]	; 0xe0
 c002788:	da000006 	ble	c0027a8 <_svfprintf_r+0xd74>
 c00278c:	e59d0038 	ldr	r0, [sp, #56]	; 0x38
 c002790:	e59d1024 	ldr	r1, [sp, #36]	; 0x24
 c002794:	e28d20dc 	add	r2, sp, #220	; 0xdc
 c002798:	eb0011a8 	bl	c006e40 <__ssprint_r>
 c00279c:	e3500000 	cmp	r0, #0
 c0027a0:	1afffd65 	bne	c001d3c <_svfprintf_r+0x308>
 c0027a4:	e59d50e4 	ldr	r5, [sp, #228]	; 0xe4
 c0027a8:	e59d1030 	ldr	r1, [sp, #48]	; 0x30
 c0027ac:	e59d2020 	ldr	r2, [sp, #32]
 c0027b0:	e59d3028 	ldr	r3, [sp, #40]	; 0x28
 c0027b4:	e1520003 	cmp	r2, r3
 c0027b8:	a0811002 	addge	r1, r1, r2
 c0027bc:	b0811003 	addlt	r1, r1, r3
 c0027c0:	e3550000 	cmp	r5, #0
 c0027c4:	e58d1030 	str	r1, [sp, #48]	; 0x30
 c0027c8:	1a0000f6 	bne	c002ba8 <_svfprintf_r+0x1174>
 c0027cc:	e3a0c000 	mov	ip, #0
 c0027d0:	e58dc0e0 	str	ip, [sp, #224]	; 0xe0
 c0027d4:	e1a06007 	mov	r6, r7
 c0027d8:	eafffcb7 	b	c001abc <_svfprintf_r+0x88>
 c0027dc:	e59d2018 	ldr	r2, [sp, #24]
 c0027e0:	e3120001 	tst	r2, #1
 c0027e4:	1a0000ba 	bne	c002ad4 <_svfprintf_r+0x10a0>
 c0027e8:	e59d40e0 	ldr	r4, [sp, #224]	; 0xe0
 c0027ec:	e59d1040 	ldr	r1, [sp, #64]	; 0x40
 c0027f0:	e2844001 	add	r4, r4, #1
 c0027f4:	e2855001 	add	r5, r5, #1
 c0027f8:	e3a03001 	mov	r3, #1
 c0027fc:	e3540007 	cmp	r4, #7
 c002800:	e889000a 	stm	r9, {r1, r3}
 c002804:	e58d50e4 	str	r5, [sp, #228]	; 0xe4
 c002808:	e58d40e0 	str	r4, [sp, #224]	; 0xe0
 c00280c:	ca0003ff 	bgt	c003810 <_svfprintf_r+0x1ddc>
 c002810:	e289b008 	add	fp, r9, #8
 c002814:	e28b9008 	add	r9, fp, #8
 c002818:	e59d2064 	ldr	r2, [sp, #100]	; 0x64
 c00281c:	e2844001 	add	r4, r4, #1
 c002820:	e0855002 	add	r5, r5, r2
 c002824:	e28d30f0 	add	r3, sp, #240	; 0xf0
 c002828:	e3540007 	cmp	r4, #7
 c00282c:	e58b3000 	str	r3, [fp]
 c002830:	e58b2004 	str	r2, [fp, #4]
 c002834:	e58d50e4 	str	r5, [sp, #228]	; 0xe4
 c002838:	e58d40e0 	str	r4, [sp, #224]	; 0xe0
 c00283c:	daffff9e 	ble	c0026bc <_svfprintf_r+0xc88>
 c002840:	e59d0038 	ldr	r0, [sp, #56]	; 0x38
 c002844:	e59d1024 	ldr	r1, [sp, #36]	; 0x24
 c002848:	e28d20dc 	add	r2, sp, #220	; 0xdc
 c00284c:	eb00117b 	bl	c006e40 <__ssprint_r>
 c002850:	e3500000 	cmp	r0, #0
 c002854:	1afffd38 	bne	c001d3c <_svfprintf_r+0x308>
 c002858:	e1a09007 	mov	r9, r7
 c00285c:	e59d50e4 	ldr	r5, [sp, #228]	; 0xe4
 c002860:	eaffff95 	b	c0026bc <_svfprintf_r+0xc88>
 c002864:	e59d3048 	ldr	r3, [sp, #72]	; 0x48
 c002868:	e3530065 	cmp	r3, #101	; 0x65
 c00286c:	da000095 	ble	c002ac8 <_svfprintf_r+0x1094>
 c002870:	e28d0058 	add	r0, sp, #88	; 0x58
 c002874:	e8900003 	ldm	r0, {r0, r1}
 c002878:	e3a02000 	mov	r2, #0
 c00287c:	e3a03000 	mov	r3, #0
 c002880:	eb001c59 	bl	c0099ec <__aeabi_dcmpeq>
 c002884:	e3500000 	cmp	r0, #0
 c002888:	0a0000ec 	beq	c002c40 <_svfprintf_r+0x120c>
 c00288c:	e59d40e0 	ldr	r4, [sp, #224]	; 0xe0
 c002890:	e59f3638 	ldr	r3, [pc, #1592]	; c002ed0 <_svfprintf_r+0x149c>
 c002894:	e2844001 	add	r4, r4, #1
 c002898:	e5893000 	str	r3, [r9]
 c00289c:	e2855001 	add	r5, r5, #1
 c0028a0:	e3540007 	cmp	r4, #7
 c0028a4:	e3a03001 	mov	r3, #1
 c0028a8:	e5893004 	str	r3, [r9, #4]
 c0028ac:	e58d50e4 	str	r5, [sp, #228]	; 0xe4
 c0028b0:	e58d40e0 	str	r4, [sp, #224]	; 0xe0
 c0028b4:	d2899008 	addle	r9, r9, #8
 c0028b8:	ca00029d 	bgt	c003334 <_svfprintf_r+0x1900>
 c0028bc:	e59d3100 	ldr	r3, [sp, #256]	; 0x100
 c0028c0:	e59dc02c 	ldr	ip, [sp, #44]	; 0x2c
 c0028c4:	e153000c 	cmp	r3, ip
 c0028c8:	ba000002 	blt	c0028d8 <_svfprintf_r+0xea4>
 c0028cc:	e59d0018 	ldr	r0, [sp, #24]
 c0028d0:	e3100001 	tst	r0, #1
 c0028d4:	0affff78 	beq	c0026bc <_svfprintf_r+0xc88>
 c0028d8:	e59d40e0 	ldr	r4, [sp, #224]	; 0xe0
 c0028dc:	e59d1060 	ldr	r1, [sp, #96]	; 0x60
 c0028e0:	e2844001 	add	r4, r4, #1
 c0028e4:	e59d2054 	ldr	r2, [sp, #84]	; 0x54
 c0028e8:	e0855001 	add	r5, r5, r1
 c0028ec:	e3540007 	cmp	r4, #7
 c0028f0:	e5892000 	str	r2, [r9]
 c0028f4:	e5891004 	str	r1, [r9, #4]
 c0028f8:	d2893008 	addle	r3, r9, #8
 c0028fc:	e58d50e4 	str	r5, [sp, #228]	; 0xe4
 c002900:	e58d40e0 	str	r4, [sp, #224]	; 0xe0
 c002904:	ca00037f 	bgt	c003708 <_svfprintf_r+0x1cd4>
 c002908:	e59dc02c 	ldr	ip, [sp, #44]	; 0x2c
 c00290c:	e24c6001 	sub	r6, ip, #1
 c002910:	e3560000 	cmp	r6, #0
 c002914:	da000280 	ble	c00331c <_svfprintf_r+0x18e8>
 c002918:	e3560010 	cmp	r6, #16
 c00291c:	da00046a 	ble	c003acc <_svfprintf_r+0x2098>
 c002920:	e59d40e0 	ldr	r4, [sp, #224]	; 0xe0
 c002924:	e59fa5b4 	ldr	sl, [pc, #1460]	; c002ee0 <_svfprintf_r+0x14ac>
 c002928:	e3a08010 	mov	r8, #16
 c00292c:	e59db038 	ldr	fp, [sp, #56]	; 0x38
 c002930:	e59d9024 	ldr	r9, [sp, #36]	; 0x24
 c002934:	ea000002 	b	c002944 <_svfprintf_r+0xf10>
 c002938:	e2466010 	sub	r6, r6, #16
 c00293c:	e3560010 	cmp	r6, #16
 c002940:	da000167 	ble	c002ee4 <_svfprintf_r+0x14b0>
 c002944:	e2844001 	add	r4, r4, #1
 c002948:	e3540007 	cmp	r4, #7
 c00294c:	e583a000 	str	sl, [r3]
 c002950:	e5838004 	str	r8, [r3, #4]
 c002954:	e2855010 	add	r5, r5, #16
 c002958:	d2833008 	addle	r3, r3, #8
 c00295c:	e58d50e4 	str	r5, [sp, #228]	; 0xe4
 c002960:	e58d40e0 	str	r4, [sp, #224]	; 0xe0
 c002964:	d2832008 	addle	r2, r3, #8
 c002968:	dafffff2 	ble	c002938 <_svfprintf_r+0xf04>
 c00296c:	e1a0000b 	mov	r0, fp
 c002970:	e1a01009 	mov	r1, r9
 c002974:	e28d20dc 	add	r2, sp, #220	; 0xdc
 c002978:	eb001130 	bl	c006e40 <__ssprint_r>
 c00297c:	e3500000 	cmp	r0, #0
 c002980:	1afffced 	bne	c001d3c <_svfprintf_r+0x308>
 c002984:	e28d40e0 	add	r4, sp, #224	; 0xe0
 c002988:	e8940030 	ldm	r4, {r4, r5}
 c00298c:	e2872008 	add	r2, r7, #8
 c002990:	e1a03007 	mov	r3, r7
 c002994:	eaffffe7 	b	c002938 <_svfprintf_r+0xf04>
 c002998:	e3530000 	cmp	r3, #0
 c00299c:	1a000088 	bne	c002bc4 <_svfprintf_r+0x1190>
 c0029a0:	e59d1018 	ldr	r1, [sp, #24]
 c0029a4:	e3110001 	tst	r1, #1
 c0029a8:	0a0000e0 	beq	c002d30 <_svfprintf_r+0x12fc>
 c0029ac:	e3a03030 	mov	r3, #48	; 0x30
 c0029b0:	e5cd30db 	strb	r3, [sp, #219]	; 0xdb
 c0029b4:	e3a02001 	mov	r2, #1
 c0029b8:	e28d30db 	add	r3, sp, #219	; 0xdb
 c0029bc:	e58d2034 	str	r2, [sp, #52]	; 0x34
 c0029c0:	e58d3040 	str	r3, [sp, #64]	; 0x40
 c0029c4:	eafffd45 	b	c001ee0 <_svfprintf_r+0x4ac>
 c0029c8:	e59d1028 	ldr	r1, [sp, #40]	; 0x28
 c0029cc:	e59d2020 	ldr	r2, [sp, #32]
 c0029d0:	e0628001 	rsb	r8, r2, r1
 c0029d4:	e3580000 	cmp	r8, #0
 c0029d8:	dafffef7 	ble	c0025bc <_svfprintf_r+0xb88>
 c0029dc:	e3580010 	cmp	r8, #16
 c0029e0:	da000413 	ble	c003a34 <_svfprintf_r+0x2000>
 c0029e4:	e1a03006 	mov	r3, r6
 c0029e8:	e59d40e0 	ldr	r4, [sp, #224]	; 0xe0
 c0029ec:	e59fa4ec 	ldr	sl, [pc, #1260]	; c002ee0 <_svfprintf_r+0x14ac>
 c0029f0:	e3a09010 	mov	r9, #16
 c0029f4:	e59db038 	ldr	fp, [sp, #56]	; 0x38
 c0029f8:	e59d6024 	ldr	r6, [sp, #36]	; 0x24
 c0029fc:	ea000002 	b	c002a0c <_svfprintf_r+0xfd8>
 c002a00:	e2488010 	sub	r8, r8, #16
 c002a04:	e3580010 	cmp	r8, #16
 c002a08:	da000016 	ble	c002a68 <_svfprintf_r+0x1034>
 c002a0c:	e2844001 	add	r4, r4, #1
 c002a10:	e3540007 	cmp	r4, #7
 c002a14:	e583a000 	str	sl, [r3]
 c002a18:	e5839004 	str	r9, [r3, #4]
 c002a1c:	e2855010 	add	r5, r5, #16
 c002a20:	d2833008 	addle	r3, r3, #8
 c002a24:	e58d50e4 	str	r5, [sp, #228]	; 0xe4
 c002a28:	e58d40e0 	str	r4, [sp, #224]	; 0xe0
 c002a2c:	d2832008 	addle	r2, r3, #8
 c002a30:	dafffff2 	ble	c002a00 <_svfprintf_r+0xfcc>
 c002a34:	e1a0000b 	mov	r0, fp
 c002a38:	e1a01006 	mov	r1, r6
 c002a3c:	e28d20dc 	add	r2, sp, #220	; 0xdc
 c002a40:	eb0010fe 	bl	c006e40 <__ssprint_r>
 c002a44:	e3500000 	cmp	r0, #0
 c002a48:	1afffcbb 	bne	c001d3c <_svfprintf_r+0x308>
 c002a4c:	e2488010 	sub	r8, r8, #16
 c002a50:	e3580010 	cmp	r8, #16
 c002a54:	e28d40e0 	add	r4, sp, #224	; 0xe0
 c002a58:	e8940030 	ldm	r4, {r4, r5}
 c002a5c:	e2872008 	add	r2, r7, #8
 c002a60:	e1a03007 	mov	r3, r7
 c002a64:	caffffe8 	bgt	c002a0c <_svfprintf_r+0xfd8>
 c002a68:	e1a06002 	mov	r6, r2
 c002a6c:	e2844001 	add	r4, r4, #1
 c002a70:	e0855008 	add	r5, r5, r8
 c002a74:	e3540007 	cmp	r4, #7
 c002a78:	e583a000 	str	sl, [r3]
 c002a7c:	e5838004 	str	r8, [r3, #4]
 c002a80:	e58d50e4 	str	r5, [sp, #228]	; 0xe4
 c002a84:	e58d40e0 	str	r4, [sp, #224]	; 0xe0
 c002a88:	dafffecb 	ble	c0025bc <_svfprintf_r+0xb88>
 c002a8c:	e59d0038 	ldr	r0, [sp, #56]	; 0x38
 c002a90:	e59d1024 	ldr	r1, [sp, #36]	; 0x24
 c002a94:	e28d20dc 	add	r2, sp, #220	; 0xdc
 c002a98:	eb0010e8 	bl	c006e40 <__ssprint_r>
 c002a9c:	e3500000 	cmp	r0, #0
 c002aa0:	1afffca5 	bne	c001d3c <_svfprintf_r+0x308>
 c002aa4:	e59d304c 	ldr	r3, [sp, #76]	; 0x4c
 c002aa8:	e59dc034 	ldr	ip, [sp, #52]	; 0x34
 c002aac:	e06c8003 	rsb	r8, ip, r3
 c002ab0:	e3580000 	cmp	r8, #0
 c002ab4:	e59d50e4 	ldr	r5, [sp, #228]	; 0xe4
 c002ab8:	e1a06007 	mov	r6, r7
 c002abc:	cafffec3 	bgt	c0025d0 <_svfprintf_r+0xb9c>
 c002ac0:	e1a09006 	mov	r9, r6
 c002ac4:	eafffeed 	b	c002680 <_svfprintf_r+0xc4c>
 c002ac8:	e59d102c 	ldr	r1, [sp, #44]	; 0x2c
 c002acc:	e3510001 	cmp	r1, #1
 c002ad0:	daffff41 	ble	c0027dc <_svfprintf_r+0xda8>
 c002ad4:	e59d40e0 	ldr	r4, [sp, #224]	; 0xe0
 c002ad8:	e59d3040 	ldr	r3, [sp, #64]	; 0x40
 c002adc:	e2844001 	add	r4, r4, #1
 c002ae0:	e5893000 	str	r3, [r9]
 c002ae4:	e3540007 	cmp	r4, #7
 c002ae8:	e3a03001 	mov	r3, #1
 c002aec:	e5893004 	str	r3, [r9, #4]
 c002af0:	e2855001 	add	r5, r5, #1
 c002af4:	d2899008 	addle	r9, r9, #8
 c002af8:	e58d50e4 	str	r5, [sp, #228]	; 0xe4
 c002afc:	e58d40e0 	str	r4, [sp, #224]	; 0xe0
 c002b00:	d2896008 	addle	r6, r9, #8
 c002b04:	ca00010b 	bgt	c002f38 <_svfprintf_r+0x1504>
 c002b08:	e59dc060 	ldr	ip, [sp, #96]	; 0x60
 c002b0c:	e2844001 	add	r4, r4, #1
 c002b10:	e59d0054 	ldr	r0, [sp, #84]	; 0x54
 c002b14:	e085500c 	add	r5, r5, ip
 c002b18:	e3540007 	cmp	r4, #7
 c002b1c:	e8891001 	stm	r9, {r0, ip}
 c002b20:	d286b008 	addle	fp, r6, #8
 c002b24:	e58d50e4 	str	r5, [sp, #228]	; 0xe4
 c002b28:	e58d40e0 	str	r4, [sp, #224]	; 0xe0
 c002b2c:	ca0000f6 	bgt	c002f0c <_svfprintf_r+0x14d8>
 c002b30:	e28d0058 	add	r0, sp, #88	; 0x58
 c002b34:	e8900003 	ldm	r0, {r0, r1}
 c002b38:	e3a02000 	mov	r2, #0
 c002b3c:	e3a03000 	mov	r3, #0
 c002b40:	eb001ba9 	bl	c0099ec <__aeabi_dcmpeq>
 c002b44:	e3500000 	cmp	r0, #0
 c002b48:	1a0000a5 	bne	c002de4 <_svfprintf_r+0x13b0>
 c002b4c:	e59d102c 	ldr	r1, [sp, #44]	; 0x2c
 c002b50:	e59dc040 	ldr	ip, [sp, #64]	; 0x40
 c002b54:	e2412001 	sub	r2, r1, #1
 c002b58:	e2844001 	add	r4, r4, #1
 c002b5c:	e28c3001 	add	r3, ip, #1
 c002b60:	e0855002 	add	r5, r5, r2
 c002b64:	e3540007 	cmp	r4, #7
 c002b68:	e5863000 	str	r3, [r6]
 c002b6c:	e5862004 	str	r2, [r6, #4]
 c002b70:	e58d50e4 	str	r5, [sp, #228]	; 0xe4
 c002b74:	e58d40e0 	str	r4, [sp, #224]	; 0xe0
 c002b78:	daffff25 	ble	c002814 <_svfprintf_r+0xde0>
 c002b7c:	e59d0038 	ldr	r0, [sp, #56]	; 0x38
 c002b80:	e59d1024 	ldr	r1, [sp, #36]	; 0x24
 c002b84:	e28d20dc 	add	r2, sp, #220	; 0xdc
 c002b88:	eb0010ac 	bl	c006e40 <__ssprint_r>
 c002b8c:	e3500000 	cmp	r0, #0
 c002b90:	1afffc69 	bne	c001d3c <_svfprintf_r+0x308>
 c002b94:	e2879008 	add	r9, r7, #8
 c002b98:	e1a0b007 	mov	fp, r7
 c002b9c:	e28d40e0 	add	r4, sp, #224	; 0xe0
 c002ba0:	e8940030 	ldm	r4, {r4, r5}
 c002ba4:	eaffff1b 	b	c002818 <_svfprintf_r+0xde4>
 c002ba8:	e59d0038 	ldr	r0, [sp, #56]	; 0x38
 c002bac:	e59d1024 	ldr	r1, [sp, #36]	; 0x24
 c002bb0:	e28d20dc 	add	r2, sp, #220	; 0xdc
 c002bb4:	eb0010a1 	bl	c006e40 <__ssprint_r>
 c002bb8:	e3500000 	cmp	r0, #0
 c002bbc:	0affff02 	beq	c0027cc <_svfprintf_r+0xd98>
 c002bc0:	eafffc5d 	b	c001d3c <_svfprintf_r+0x308>
 c002bc4:	e28dc0dc 	add	ip, sp, #220	; 0xdc
 c002bc8:	e58d2034 	str	r2, [sp, #52]	; 0x34
 c002bcc:	e58dc040 	str	ip, [sp, #64]	; 0x40
 c002bd0:	eafffcc2 	b	c001ee0 <_svfprintf_r+0x4ac>
 c002bd4:	e59d0038 	ldr	r0, [sp, #56]	; 0x38
 c002bd8:	e59d1024 	ldr	r1, [sp, #36]	; 0x24
 c002bdc:	e28d20dc 	add	r2, sp, #220	; 0xdc
 c002be0:	eb001096 	bl	c006e40 <__ssprint_r>
 c002be4:	e3500000 	cmp	r0, #0
 c002be8:	1afffc53 	bne	c001d3c <_svfprintf_r+0x308>
 c002bec:	e1a09007 	mov	r9, r7
 c002bf0:	e59d50e4 	ldr	r5, [sp, #228]	; 0xe4
 c002bf4:	eafffea1 	b	c002680 <_svfprintf_r+0xc4c>
 c002bf8:	e59d0038 	ldr	r0, [sp, #56]	; 0x38
 c002bfc:	e59d1024 	ldr	r1, [sp, #36]	; 0x24
 c002c00:	e28d20dc 	add	r2, sp, #220	; 0xdc
 c002c04:	eb00108d 	bl	c006e40 <__ssprint_r>
 c002c08:	e3500000 	cmp	r0, #0
 c002c0c:	1afffc4a 	bne	c001d3c <_svfprintf_r+0x308>
 c002c10:	e59d50e4 	ldr	r5, [sp, #228]	; 0xe4
 c002c14:	e1a06007 	mov	r6, r7
 c002c18:	eafffe56 	b	c002578 <_svfprintf_r+0xb44>
 c002c1c:	e59d0038 	ldr	r0, [sp, #56]	; 0x38
 c002c20:	e59d1024 	ldr	r1, [sp, #36]	; 0x24
 c002c24:	e28d20dc 	add	r2, sp, #220	; 0xdc
 c002c28:	eb001084 	bl	c006e40 <__ssprint_r>
 c002c2c:	e3500000 	cmp	r0, #0
 c002c30:	1afffc41 	bne	c001d3c <_svfprintf_r+0x308>
 c002c34:	e59d50e4 	ldr	r5, [sp, #228]	; 0xe4
 c002c38:	e1a06007 	mov	r6, r7
 c002c3c:	eafffe5b 	b	c0025b0 <_svfprintf_r+0xb7c>
 c002c40:	e59d6100 	ldr	r6, [sp, #256]	; 0x100
 c002c44:	e3560000 	cmp	r6, #0
 c002c48:	da0001c2 	ble	c003358 <_svfprintf_r+0x1924>
 c002c4c:	e59d602c 	ldr	r6, [sp, #44]	; 0x2c
 c002c50:	e59d1050 	ldr	r1, [sp, #80]	; 0x50
 c002c54:	e59d2040 	ldr	r2, [sp, #64]	; 0x40
 c002c58:	e1560001 	cmp	r6, r1
 c002c5c:	a1a06001 	movge	r6, r1
 c002c60:	e59d302c 	ldr	r3, [sp, #44]	; 0x2c
 c002c64:	e3560000 	cmp	r6, #0
 c002c68:	e082b003 	add	fp, r2, r3
 c002c6c:	da000008 	ble	c002c94 <_svfprintf_r+0x1260>
 c002c70:	e59d40e0 	ldr	r4, [sp, #224]	; 0xe0
 c002c74:	e2844001 	add	r4, r4, #1
 c002c78:	e0855006 	add	r5, r5, r6
 c002c7c:	e3540007 	cmp	r4, #7
 c002c80:	e8890044 	stm	r9, {r2, r6}
 c002c84:	e58d50e4 	str	r5, [sp, #228]	; 0xe4
 c002c88:	e58d40e0 	str	r4, [sp, #224]	; 0xe0
 c002c8c:	d2899008 	addle	r9, r9, #8
 c002c90:	ca000324 	bgt	c003928 <_svfprintf_r+0x1ef4>
 c002c94:	e59dc050 	ldr	ip, [sp, #80]	; 0x50
 c002c98:	e1c66fc6 	bic	r6, r6, r6, asr #31
 c002c9c:	e066600c 	rsb	r6, r6, ip
 c002ca0:	e3560000 	cmp	r6, #0
 c002ca4:	da00030c 	ble	c0038dc <_svfprintf_r+0x1ea8>
 c002ca8:	e3560010 	cmp	r6, #16
 c002cac:	da00038f 	ble	c003af0 <_svfprintf_r+0x20bc>
 c002cb0:	e59d40e0 	ldr	r4, [sp, #224]	; 0xe0
 c002cb4:	e1a01005 	mov	r1, r5
 c002cb8:	e1a02004 	mov	r2, r4
 c002cbc:	e59fa21c 	ldr	sl, [pc, #540]	; c002ee0 <_svfprintf_r+0x14ac>
 c002cc0:	e3a08010 	mov	r8, #16
 c002cc4:	e59d4038 	ldr	r4, [sp, #56]	; 0x38
 c002cc8:	e59d5024 	ldr	r5, [sp, #36]	; 0x24
 c002ccc:	ea000002 	b	c002cdc <_svfprintf_r+0x12a8>
 c002cd0:	e2466010 	sub	r6, r6, #16
 c002cd4:	e3560010 	cmp	r6, #16
 c002cd8:	da000131 	ble	c0031a4 <_svfprintf_r+0x1770>
 c002cdc:	e2822001 	add	r2, r2, #1
 c002ce0:	e3520007 	cmp	r2, #7
 c002ce4:	e589a000 	str	sl, [r9]
 c002ce8:	e5898004 	str	r8, [r9, #4]
 c002cec:	e2811010 	add	r1, r1, #16
 c002cf0:	d2899008 	addle	r9, r9, #8
 c002cf4:	e58d10e4 	str	r1, [sp, #228]	; 0xe4
 c002cf8:	e58d20e0 	str	r2, [sp, #224]	; 0xe0
 c002cfc:	d2893008 	addle	r3, r9, #8
 c002d00:	dafffff2 	ble	c002cd0 <_svfprintf_r+0x129c>
 c002d04:	e1a00004 	mov	r0, r4
 c002d08:	e1a01005 	mov	r1, r5
 c002d0c:	e28d20dc 	add	r2, sp, #220	; 0xdc
 c002d10:	eb00104a 	bl	c006e40 <__ssprint_r>
 c002d14:	e3500000 	cmp	r0, #0
 c002d18:	1afffc07 	bne	c001d3c <_svfprintf_r+0x308>
 c002d1c:	e59d10e4 	ldr	r1, [sp, #228]	; 0xe4
 c002d20:	e59d20e0 	ldr	r2, [sp, #224]	; 0xe0
 c002d24:	e2873008 	add	r3, r7, #8
 c002d28:	e1a09007 	mov	r9, r7
 c002d2c:	eaffffe7 	b	c002cd0 <_svfprintf_r+0x129c>
 c002d30:	e28d00dc 	add	r0, sp, #220	; 0xdc
 c002d34:	e58d3034 	str	r3, [sp, #52]	; 0x34
 c002d38:	e58d0040 	str	r0, [sp, #64]	; 0x40
 c002d3c:	eafffc67 	b	c001ee0 <_svfprintf_r+0x4ac>
 c002d40:	e28dc0b4 	add	ip, sp, #180	; 0xb4
 c002d44:	e59da068 	ldr	sl, [sp, #104]	; 0x68
 c002d48:	e28c1027 	add	r1, ip, #39	; 0x27
 c002d4c:	e1a02229 	lsr	r2, r9, #4
 c002d50:	e1a00228 	lsr	r0, r8, #4
 c002d54:	e1800e09 	orr	r0, r0, r9, lsl #28
 c002d58:	e208800f 	and	r8, r8, #15
 c002d5c:	e1a04002 	mov	r4, r2
 c002d60:	e1a09004 	mov	r9, r4
 c002d64:	e7da2008 	ldrb	r2, [sl, r8]
 c002d68:	e1a08000 	mov	r8, r0
 c002d6c:	e1980009 	orrs	r0, r8, r9
 c002d70:	e1a03001 	mov	r3, r1
 c002d74:	e5c12000 	strb	r2, [r1]
 c002d78:	e2411001 	sub	r1, r1, #1
 c002d7c:	1afffff2 	bne	c002d4c <_svfprintf_r+0x1318>
 c002d80:	e28cc028 	add	ip, ip, #40	; 0x28
 c002d84:	e063c00c 	rsb	ip, r3, ip
 c002d88:	e58d3040 	str	r3, [sp, #64]	; 0x40
 c002d8c:	e58dc034 	str	ip, [sp, #52]	; 0x34
 c002d90:	eafffc52 	b	c001ee0 <_svfprintf_r+0x4ac>
 c002d94:	e3590000 	cmp	r9, #0
 c002d98:	03580009 	cmpeq	r8, #9
 c002d9c:	8a000070 	bhi	c002f64 <_svfprintf_r+0x1530>
 c002da0:	e2888030 	add	r8, r8, #48	; 0x30
 c002da4:	e3a0c001 	mov	ip, #1
 c002da8:	e28d00db 	add	r0, sp, #219	; 0xdb
 c002dac:	e5cd80db 	strb	r8, [sp, #219]	; 0xdb
 c002db0:	e58dc034 	str	ip, [sp, #52]	; 0x34
 c002db4:	e58d0040 	str	r0, [sp, #64]	; 0x40
 c002db8:	eafffc48 	b	c001ee0 <_svfprintf_r+0x4ac>
 c002dbc:	e59d0038 	ldr	r0, [sp, #56]	; 0x38
 c002dc0:	e59d1024 	ldr	r1, [sp, #36]	; 0x24
 c002dc4:	e28d20dc 	add	r2, sp, #220	; 0xdc
 c002dc8:	eb00101c 	bl	c006e40 <__ssprint_r>
 c002dcc:	e3500000 	cmp	r0, #0
 c002dd0:	1afffbd9 	bne	c001d3c <_svfprintf_r+0x308>
 c002dd4:	e5dd2107 	ldrb	r2, [sp, #263]	; 0x107
 c002dd8:	e59d50e4 	ldr	r5, [sp, #228]	; 0xe4
 c002ddc:	e1a06007 	mov	r6, r7
 c002de0:	eafffdd5 	b	c00253c <_svfprintf_r+0xb08>
 c002de4:	e59d002c 	ldr	r0, [sp, #44]	; 0x2c
 c002de8:	e2408001 	sub	r8, r0, #1
 c002dec:	e3580000 	cmp	r8, #0
 c002df0:	d2869008 	addle	r9, r6, #8
 c002df4:	d1a0b006 	movle	fp, r6
 c002df8:	dafffe86 	ble	c002818 <_svfprintf_r+0xde4>
 c002dfc:	e3580010 	cmp	r8, #16
 c002e00:	d59fa0d8 	ldrle	sl, [pc, #216]	; c002ee0 <_svfprintf_r+0x14ac>
 c002e04:	da000021 	ble	c002e90 <_svfprintf_r+0x145c>
 c002e08:	e1a03004 	mov	r3, r4
 c002e0c:	e59fa0cc 	ldr	sl, [pc, #204]	; c002ee0 <_svfprintf_r+0x14ac>
 c002e10:	e3a09010 	mov	r9, #16
 c002e14:	e59db038 	ldr	fp, [sp, #56]	; 0x38
 c002e18:	e59d4024 	ldr	r4, [sp, #36]	; 0x24
 c002e1c:	ea000002 	b	c002e2c <_svfprintf_r+0x13f8>
 c002e20:	e2488010 	sub	r8, r8, #16
 c002e24:	e3580010 	cmp	r8, #16
 c002e28:	da000016 	ble	c002e88 <_svfprintf_r+0x1454>
 c002e2c:	e2833001 	add	r3, r3, #1
 c002e30:	e3530007 	cmp	r3, #7
 c002e34:	e586a000 	str	sl, [r6]
 c002e38:	e5869004 	str	r9, [r6, #4]
 c002e3c:	e2855010 	add	r5, r5, #16
 c002e40:	d2866008 	addle	r6, r6, #8
 c002e44:	e58d50e4 	str	r5, [sp, #228]	; 0xe4
 c002e48:	e58d30e0 	str	r3, [sp, #224]	; 0xe0
 c002e4c:	d2862008 	addle	r2, r6, #8
 c002e50:	dafffff2 	ble	c002e20 <_svfprintf_r+0x13ec>
 c002e54:	e1a0000b 	mov	r0, fp
 c002e58:	e1a01004 	mov	r1, r4
 c002e5c:	e28d20dc 	add	r2, sp, #220	; 0xdc
 c002e60:	eb000ff6 	bl	c006e40 <__ssprint_r>
 c002e64:	e3500000 	cmp	r0, #0
 c002e68:	1afffbb3 	bne	c001d3c <_svfprintf_r+0x308>
 c002e6c:	e2488010 	sub	r8, r8, #16
 c002e70:	e3580010 	cmp	r8, #16
 c002e74:	e28d30e0 	add	r3, sp, #224	; 0xe0
 c002e78:	e8930028 	ldm	r3, {r3, r5}
 c002e7c:	e2872008 	add	r2, r7, #8
 c002e80:	e1a06007 	mov	r6, r7
 c002e84:	caffffe8 	bgt	c002e2c <_svfprintf_r+0x13f8>
 c002e88:	e1a0b002 	mov	fp, r2
 c002e8c:	e1a04003 	mov	r4, r3
 c002e90:	e2844001 	add	r4, r4, #1
 c002e94:	e0855008 	add	r5, r5, r8
 c002e98:	e3540007 	cmp	r4, #7
 c002e9c:	e586a000 	str	sl, [r6]
 c002ea0:	e5868004 	str	r8, [r6, #4]
 c002ea4:	e58d50e4 	str	r5, [sp, #228]	; 0xe4
 c002ea8:	e58d40e0 	str	r4, [sp, #224]	; 0xe0
 c002eac:	dafffe58 	ble	c002814 <_svfprintf_r+0xde0>
 c002eb0:	eaffff31 	b	c002b7c <_svfprintf_r+0x1148>
 c002eb4:	0c00ae30 	.word	0x0c00ae30
 c002eb8:	0c00af9c 	.word	0x0c00af9c
 c002ebc:	0c00afa0 	.word	0x0c00afa0
 c002ec0:	0c00afac 	.word	0x0c00afac
 c002ec4:	0c00afc0 	.word	0x0c00afc0
 c002ec8:	0c00afa4 	.word	0x0c00afa4
 c002ecc:	0c00afa8 	.word	0x0c00afa8
 c002ed0:	0c00afdc 	.word	0x0c00afdc
 c002ed4:	66666667 	.word	0x66666667
 c002ed8:	0c00ae30 	.word	0x0c00ae30
 c002edc:	0c00afd4 	.word	0x0c00afd4
 c002ee0:	0c00ae40 	.word	0x0c00ae40
 c002ee4:	e1a09002 	mov	r9, r2
 c002ee8:	e2844001 	add	r4, r4, #1
 c002eec:	e0855006 	add	r5, r5, r6
 c002ef0:	e3540007 	cmp	r4, #7
 c002ef4:	e583a000 	str	sl, [r3]
 c002ef8:	e5836004 	str	r6, [r3, #4]
 c002efc:	e58d50e4 	str	r5, [sp, #228]	; 0xe4
 c002f00:	e58d40e0 	str	r4, [sp, #224]	; 0xe0
 c002f04:	dafffdec 	ble	c0026bc <_svfprintf_r+0xc88>
 c002f08:	eafffe4c 	b	c002840 <_svfprintf_r+0xe0c>
 c002f0c:	e59d0038 	ldr	r0, [sp, #56]	; 0x38
 c002f10:	e59d1024 	ldr	r1, [sp, #36]	; 0x24
 c002f14:	e28d20dc 	add	r2, sp, #220	; 0xdc
 c002f18:	eb000fc8 	bl	c006e40 <__ssprint_r>
 c002f1c:	e3500000 	cmp	r0, #0
 c002f20:	1afffb85 	bne	c001d3c <_svfprintf_r+0x308>
 c002f24:	e28d40e0 	add	r4, sp, #224	; 0xe0
 c002f28:	e8940030 	ldm	r4, {r4, r5}
 c002f2c:	e287b008 	add	fp, r7, #8
 c002f30:	e1a06007 	mov	r6, r7
 c002f34:	eafffefd 	b	c002b30 <_svfprintf_r+0x10fc>
 c002f38:	e59d0038 	ldr	r0, [sp, #56]	; 0x38
 c002f3c:	e59d1024 	ldr	r1, [sp, #36]	; 0x24
 c002f40:	e28d20dc 	add	r2, sp, #220	; 0xdc
 c002f44:	eb000fbd 	bl	c006e40 <__ssprint_r>
 c002f48:	e3500000 	cmp	r0, #0
 c002f4c:	1afffb7a 	bne	c001d3c <_svfprintf_r+0x308>
 c002f50:	e28d40e0 	add	r4, sp, #224	; 0xe0
 c002f54:	e8940030 	ldm	r4, {r4, r5}
 c002f58:	e2876008 	add	r6, r7, #8
 c002f5c:	e1a09007 	mov	r9, r7
 c002f60:	eafffee8 	b	c002b08 <_svfprintf_r+0x10d4>
 c002f64:	e28dc0b4 	add	ip, sp, #180	; 0xb4
 c002f68:	e1a0a006 	mov	sl, r6
 c002f6c:	e28c4027 	add	r4, ip, #39	; 0x27
 c002f70:	e1a06005 	mov	r6, r5
 c002f74:	e1a0b00c 	mov	fp, ip
 c002f78:	e1a00008 	mov	r0, r8
 c002f7c:	e1a01009 	mov	r1, r9
 c002f80:	e3a0200a 	mov	r2, #10
 c002f84:	e3a03000 	mov	r3, #0
 c002f88:	eb001acc 	bl	c009ac0 <__aeabi_uldivmod>
 c002f8c:	e2822030 	add	r2, r2, #48	; 0x30
 c002f90:	e5c42000 	strb	r2, [r4]
 c002f94:	e1a00008 	mov	r0, r8
 c002f98:	e1a01009 	mov	r1, r9
 c002f9c:	e3a0200a 	mov	r2, #10
 c002fa0:	e3a03000 	mov	r3, #0
 c002fa4:	eb001ac5 	bl	c009ac0 <__aeabi_uldivmod>
 c002fa8:	e1a08000 	mov	r8, r0
 c002fac:	e1a09001 	mov	r9, r1
 c002fb0:	e1981009 	orrs	r1, r8, r9
 c002fb4:	e1a05004 	mov	r5, r4
 c002fb8:	e2444001 	sub	r4, r4, #1
 c002fbc:	1affffed 	bne	c002f78 <_svfprintf_r+0x1544>
 c002fc0:	e58d5040 	str	r5, [sp, #64]	; 0x40
 c002fc4:	e59d2040 	ldr	r2, [sp, #64]	; 0x40
 c002fc8:	e28bc028 	add	ip, fp, #40	; 0x28
 c002fcc:	e062c00c 	rsb	ip, r2, ip
 c002fd0:	e1a05006 	mov	r5, r6
 c002fd4:	e58dc034 	str	ip, [sp, #52]	; 0x34
 c002fd8:	e1a0600a 	mov	r6, sl
 c002fdc:	eafffbbf 	b	c001ee0 <_svfprintf_r+0x4ac>
 c002fe0:	e3530030 	cmp	r3, #48	; 0x30
 c002fe4:	059d3040 	ldreq	r3, [sp, #64]	; 0x40
 c002fe8:	028cc028 	addeq	ip, ip, #40	; 0x28
 c002fec:	128cc028 	addne	ip, ip, #40	; 0x28
 c002ff0:	0063c00c 	rsbeq	ip, r3, ip
 c002ff4:	13a03030 	movne	r3, #48	; 0x30
 c002ff8:	1061c00c 	rsbne	ip, r1, ip
 c002ffc:	158d1040 	strne	r1, [sp, #64]	; 0x40
 c003000:	15c13000 	strbne	r3, [r1]
 c003004:	e58dc034 	str	ip, [sp, #52]	; 0x34
 c003008:	eafffbb4 	b	c001ee0 <_svfprintf_r+0x4ac>
 c00300c:	e2788000 	rsbs	r8, r8, #0
 c003010:	e2e99000 	rsc	r9, r9, #0
 c003014:	e3a0302d 	mov	r3, #45	; 0x2d
 c003018:	e1980009 	orrs	r0, r8, r9
 c00301c:	e5cd3107 	strb	r3, [sp, #263]	; 0x107
 c003020:	03a02000 	moveq	r2, #0
 c003024:	13a02001 	movne	r2, #1
 c003028:	e3a03001 	mov	r3, #1
 c00302c:	eafffb89 	b	c001e58 <_svfprintf_r+0x424>
 c003030:	e28d0058 	add	r0, sp, #88	; 0x58
 c003034:	e8900003 	ldm	r0, {r0, r1}
 c003038:	eb000ea9 	bl	c006ae4 <__fpclassifyd>
 c00303c:	e3500000 	cmp	r0, #0
 c003040:	1a00010f 	bne	c003484 <_svfprintf_r+0x1a50>
 c003044:	e58d004c 	str	r0, [sp, #76]	; 0x4c
 c003048:	e59d0048 	ldr	r0, [sp, #72]	; 0x48
 c00304c:	e51f218c 	ldr	r2, [pc, #-396]	; c002ec8 <_svfprintf_r+0x1494>
 c003050:	e51f318c 	ldr	r3, [pc, #-396]	; c002ecc <_svfprintf_r+0x1498>
 c003054:	e3500047 	cmp	r0, #71	; 0x47
 c003058:	d1a03002 	movle	r3, r2
 c00305c:	e59d1018 	ldr	r1, [sp, #24]
 c003060:	e58d3040 	str	r3, [sp, #64]	; 0x40
 c003064:	e59d304c 	ldr	r3, [sp, #76]	; 0x4c
 c003068:	e3a0c003 	mov	ip, #3
 c00306c:	e3c11080 	bic	r1, r1, #128	; 0x80
 c003070:	e58dc020 	str	ip, [sp, #32]
 c003074:	e58d1018 	str	r1, [sp, #24]
 c003078:	e5dd2107 	ldrb	r2, [sp, #263]	; 0x107
 c00307c:	e58dc034 	str	ip, [sp, #52]	; 0x34
 c003080:	e58d3050 	str	r3, [sp, #80]	; 0x50
 c003084:	eafffb9d 	b	c001f00 <_svfprintf_r+0x4cc>
 c003088:	e59d103c 	ldr	r1, [sp, #60]	; 0x3c
 c00308c:	e2813007 	add	r3, r1, #7
 c003090:	e3c33007 	bic	r3, r3, #7
 c003094:	e8931004 	ldm	r3, {r2, ip}
 c003098:	e2833008 	add	r3, r3, #8
 c00309c:	e58d2058 	str	r2, [sp, #88]	; 0x58
 c0030a0:	e58dc05c 	str	ip, [sp, #92]	; 0x5c
 c0030a4:	e58d303c 	str	r3, [sp, #60]	; 0x3c
 c0030a8:	eafffbe8 	b	c002050 <_svfprintf_r+0x61c>
 c0030ac:	e59d2018 	ldr	r2, [sp, #24]
 c0030b0:	e3120040 	tst	r2, #64	; 0x40
 c0030b4:	0a0001a6 	beq	c003754 <_svfprintf_r+0x1d20>
 c0030b8:	e59d303c 	ldr	r3, [sp, #60]	; 0x3c
 c0030bc:	e59dc03c 	ldr	ip, [sp, #60]	; 0x3c
 c0030c0:	e1d320b0 	ldrh	r2, [r3]
 c0030c4:	e28cc004 	add	ip, ip, #4
 c0030c8:	e1a08002 	mov	r8, r2
 c0030cc:	e3a09000 	mov	r9, #0
 c0030d0:	e2522000 	subs	r2, r2, #0
 c0030d4:	e3a03001 	mov	r3, #1
 c0030d8:	13a02001 	movne	r2, #1
 c0030dc:	e58dc03c 	str	ip, [sp, #60]	; 0x3c
 c0030e0:	eafffc11 	b	c00212c <_svfprintf_r+0x6f8>
 c0030e4:	e59d0018 	ldr	r0, [sp, #24]
 c0030e8:	e2103040 	ands	r3, r0, #64	; 0x40
 c0030ec:	0a0001a2 	beq	c00377c <_svfprintf_r+0x1d48>
 c0030f0:	e59d303c 	ldr	r3, [sp, #60]	; 0x3c
 c0030f4:	e59dc03c 	ldr	ip, [sp, #60]	; 0x3c
 c0030f8:	e1d310b0 	ldrh	r1, [r3]
 c0030fc:	e28cc004 	add	ip, ip, #4
 c003100:	e1a03002 	mov	r3, r2
 c003104:	e2512000 	subs	r2, r1, #0
 c003108:	e1a08001 	mov	r8, r1
 c00310c:	e3a09000 	mov	r9, #0
 c003110:	13a02001 	movne	r2, #1
 c003114:	e58dc03c 	str	ip, [sp, #60]	; 0x3c
 c003118:	eafffc03 	b	c00212c <_svfprintf_r+0x6f8>
 c00311c:	e59d3018 	ldr	r3, [sp, #24]
 c003120:	e3130040 	tst	r3, #64	; 0x40
 c003124:	159dc03c 	ldrne	ip, [sp, #60]	; 0x3c
 c003128:	059d003c 	ldreq	r0, [sp, #60]	; 0x3c
 c00312c:	11dc80b0 	ldrhne	r8, [ip]
 c003130:	05908000 	ldreq	r8, [r0]
 c003134:	128cc004 	addne	ip, ip, #4
 c003138:	02800004 	addeq	r0, r0, #4
 c00313c:	158dc03c 	strne	ip, [sp, #60]	; 0x3c
 c003140:	058d003c 	streq	r0, [sp, #60]	; 0x3c
 c003144:	e3a09000 	mov	r9, #0
 c003148:	eafffc1a 	b	c0021b8 <_svfprintf_r+0x784>
 c00314c:	e59d1018 	ldr	r1, [sp, #24]
 c003150:	e3110010 	tst	r1, #16
 c003154:	0a000174 	beq	c00372c <_svfprintf_r+0x1cf8>
 c003158:	e59d203c 	ldr	r2, [sp, #60]	; 0x3c
 c00315c:	e59dc030 	ldr	ip, [sp, #48]	; 0x30
 c003160:	e5923000 	ldr	r3, [r2]
 c003164:	e2822004 	add	r2, r2, #4
 c003168:	e58d203c 	str	r2, [sp, #60]	; 0x3c
 c00316c:	e583c000 	str	ip, [r3]
 c003170:	eafffa51 	b	c001abc <_svfprintf_r+0x88>
 c003174:	e59d0018 	ldr	r0, [sp, #24]
 c003178:	e3100040 	tst	r0, #64	; 0x40
 c00317c:	159d103c 	ldrne	r1, [sp, #60]	; 0x3c
 c003180:	059d203c 	ldreq	r2, [sp, #60]	; 0x3c
 c003184:	11d180f0 	ldrshne	r8, [r1]
 c003188:	05928000 	ldreq	r8, [r2]
 c00318c:	12811004 	addne	r1, r1, #4
 c003190:	02822004 	addeq	r2, r2, #4
 c003194:	158d103c 	strne	r1, [sp, #60]	; 0x3c
 c003198:	058d203c 	streq	r2, [sp, #60]	; 0x3c
 c00319c:	e1a09fc8 	asr	r9, r8, #31
 c0031a0:	eafffb25 	b	c001e3c <_svfprintf_r+0x408>
 c0031a4:	e1a04002 	mov	r4, r2
 c0031a8:	e1a05001 	mov	r5, r1
 c0031ac:	e2844001 	add	r4, r4, #1
 c0031b0:	e0855006 	add	r5, r5, r6
 c0031b4:	e3540007 	cmp	r4, #7
 c0031b8:	e589a000 	str	sl, [r9]
 c0031bc:	e5896004 	str	r6, [r9, #4]
 c0031c0:	e58d50e4 	str	r5, [sp, #228]	; 0xe4
 c0031c4:	e58d40e0 	str	r4, [sp, #224]	; 0xe0
 c0031c8:	ca0001f6 	bgt	c0039a8 <_svfprintf_r+0x1f74>
 c0031cc:	e59d2100 	ldr	r2, [sp, #256]	; 0x100
 c0031d0:	e59d002c 	ldr	r0, [sp, #44]	; 0x2c
 c0031d4:	e1520000 	cmp	r2, r0
 c0031d8:	ba00003a 	blt	c0032c8 <_svfprintf_r+0x1894>
 c0031dc:	e59d1018 	ldr	r1, [sp, #24]
 c0031e0:	e3110001 	tst	r1, #1
 c0031e4:	1a000037 	bne	c0032c8 <_svfprintf_r+0x1894>
 c0031e8:	e59dc040 	ldr	ip, [sp, #64]	; 0x40
 c0031ec:	e59d0050 	ldr	r0, [sp, #80]	; 0x50
 c0031f0:	e08c1000 	add	r1, ip, r0
 c0031f4:	e59dc02c 	ldr	ip, [sp, #44]	; 0x2c
 c0031f8:	e061800b 	rsb	r8, r1, fp
 c0031fc:	e062200c 	rsb	r2, r2, ip
 c003200:	e1520008 	cmp	r2, r8
 c003204:	b1a08002 	movlt	r8, r2
 c003208:	a1a08008 	movge	r8, r8
 c00320c:	e3580000 	cmp	r8, #0
 c003210:	da000008 	ble	c003238 <_svfprintf_r+0x1804>
 c003214:	e59d40e0 	ldr	r4, [sp, #224]	; 0xe0
 c003218:	e2844001 	add	r4, r4, #1
 c00321c:	e0855008 	add	r5, r5, r8
 c003220:	e3540007 	cmp	r4, #7
 c003224:	e8830102 	stm	r3, {r1, r8}
 c003228:	e58d50e4 	str	r5, [sp, #228]	; 0xe4
 c00322c:	e58d40e0 	str	r4, [sp, #224]	; 0xe0
 c003230:	d2833008 	addle	r3, r3, #8
 c003234:	ca0001c4 	bgt	c00394c <_svfprintf_r+0x1f18>
 c003238:	e1c86fc8 	bic	r6, r8, r8, asr #31
 c00323c:	e0666002 	rsb	r6, r6, r2
 c003240:	e3560000 	cmp	r6, #0
 c003244:	da000034 	ble	c00331c <_svfprintf_r+0x18e8>
 c003248:	e3560010 	cmp	r6, #16
 c00324c:	da00021e 	ble	c003acc <_svfprintf_r+0x2098>
 c003250:	e59d40e0 	ldr	r4, [sp, #224]	; 0xe0
 c003254:	e51fa37c 	ldr	sl, [pc, #-892]	; c002ee0 <_svfprintf_r+0x14ac>
 c003258:	e3a08010 	mov	r8, #16
 c00325c:	e59db038 	ldr	fp, [sp, #56]	; 0x38
 c003260:	e59d9024 	ldr	r9, [sp, #36]	; 0x24
 c003264:	ea000002 	b	c003274 <_svfprintf_r+0x1840>
 c003268:	e2466010 	sub	r6, r6, #16
 c00326c:	e3560010 	cmp	r6, #16
 c003270:	daffff1b 	ble	c002ee4 <_svfprintf_r+0x14b0>
 c003274:	e2844001 	add	r4, r4, #1
 c003278:	e3540007 	cmp	r4, #7
 c00327c:	e583a000 	str	sl, [r3]
 c003280:	e5838004 	str	r8, [r3, #4]
 c003284:	e2855010 	add	r5, r5, #16
 c003288:	d2833008 	addle	r3, r3, #8
 c00328c:	e58d50e4 	str	r5, [sp, #228]	; 0xe4
 c003290:	e58d40e0 	str	r4, [sp, #224]	; 0xe0
 c003294:	d2832008 	addle	r2, r3, #8
 c003298:	dafffff2 	ble	c003268 <_svfprintf_r+0x1834>
 c00329c:	e1a0000b 	mov	r0, fp
 c0032a0:	e1a01009 	mov	r1, r9
 c0032a4:	e28d20dc 	add	r2, sp, #220	; 0xdc
 c0032a8:	eb000ee4 	bl	c006e40 <__ssprint_r>
 c0032ac:	e3500000 	cmp	r0, #0
 c0032b0:	1afffaa1 	bne	c001d3c <_svfprintf_r+0x308>
 c0032b4:	e28d40e0 	add	r4, sp, #224	; 0xe0
 c0032b8:	e8940030 	ldm	r4, {r4, r5}
 c0032bc:	e2872008 	add	r2, r7, #8
 c0032c0:	e1a03007 	mov	r3, r7
 c0032c4:	eaffffe7 	b	c003268 <_svfprintf_r+0x1834>
 c0032c8:	e59d40e0 	ldr	r4, [sp, #224]	; 0xe0
 c0032cc:	e59dc060 	ldr	ip, [sp, #96]	; 0x60
 c0032d0:	e2844001 	add	r4, r4, #1
 c0032d4:	e59d0054 	ldr	r0, [sp, #84]	; 0x54
 c0032d8:	e085500c 	add	r5, r5, ip
 c0032dc:	e3540007 	cmp	r4, #7
 c0032e0:	e8831001 	stm	r3, {r0, ip}
 c0032e4:	e58d50e4 	str	r5, [sp, #228]	; 0xe4
 c0032e8:	e58d40e0 	str	r4, [sp, #224]	; 0xe0
 c0032ec:	d2833008 	addle	r3, r3, #8
 c0032f0:	daffffbc 	ble	c0031e8 <_svfprintf_r+0x17b4>
 c0032f4:	e59d0038 	ldr	r0, [sp, #56]	; 0x38
 c0032f8:	e59d1024 	ldr	r1, [sp, #36]	; 0x24
 c0032fc:	e28d20dc 	add	r2, sp, #220	; 0xdc
 c003300:	eb000ece 	bl	c006e40 <__ssprint_r>
 c003304:	e3500000 	cmp	r0, #0
 c003308:	1afffa8b 	bne	c001d3c <_svfprintf_r+0x308>
 c00330c:	e59d2100 	ldr	r2, [sp, #256]	; 0x100
 c003310:	e59d50e4 	ldr	r5, [sp, #228]	; 0xe4
 c003314:	e1a03007 	mov	r3, r7
 c003318:	eaffffb2 	b	c0031e8 <_svfprintf_r+0x17b4>
 c00331c:	e1a09003 	mov	r9, r3
 c003320:	eafffce5 	b	c0026bc <_svfprintf_r+0xc88>
 c003324:	e2869008 	add	r9, r6, #8
 c003328:	e59d40e0 	ldr	r4, [sp, #224]	; 0xe0
 c00332c:	e51fa454 	ldr	sl, [pc, #-1108]	; c002ee0 <_svfprintf_r+0x14ac>
 c003330:	eafffcca 	b	c002660 <_svfprintf_r+0xc2c>
 c003334:	e59d0038 	ldr	r0, [sp, #56]	; 0x38
 c003338:	e59d1024 	ldr	r1, [sp, #36]	; 0x24
 c00333c:	e28d20dc 	add	r2, sp, #220	; 0xdc
 c003340:	eb000ebe 	bl	c006e40 <__ssprint_r>
 c003344:	e3500000 	cmp	r0, #0
 c003348:	1afffa7b 	bne	c001d3c <_svfprintf_r+0x308>
 c00334c:	e59d50e4 	ldr	r5, [sp, #228]	; 0xe4
 c003350:	e1a09007 	mov	r9, r7
 c003354:	eafffd58 	b	c0028bc <_svfprintf_r+0xe88>
 c003358:	e59d40e0 	ldr	r4, [sp, #224]	; 0xe0
 c00335c:	e51f3494 	ldr	r3, [pc, #-1172]	; c002ed0 <_svfprintf_r+0x149c>
 c003360:	e2844001 	add	r4, r4, #1
 c003364:	e5893000 	str	r3, [r9]
 c003368:	e2855001 	add	r5, r5, #1
 c00336c:	e3540007 	cmp	r4, #7
 c003370:	e3a03001 	mov	r3, #1
 c003374:	e5893004 	str	r3, [r9, #4]
 c003378:	e58d50e4 	str	r5, [sp, #228]	; 0xe4
 c00337c:	e58d40e0 	str	r4, [sp, #224]	; 0xe0
 c003380:	d2899008 	addle	r9, r9, #8
 c003384:	ca000117 	bgt	c0037e8 <_svfprintf_r+0x1db4>
 c003388:	e3560000 	cmp	r6, #0
 c00338c:	1a000005 	bne	c0033a8 <_svfprintf_r+0x1974>
 c003390:	e59d002c 	ldr	r0, [sp, #44]	; 0x2c
 c003394:	e3500000 	cmp	r0, #0
 c003398:	1a000002 	bne	c0033a8 <_svfprintf_r+0x1974>
 c00339c:	e59d1018 	ldr	r1, [sp, #24]
 c0033a0:	e3110001 	tst	r1, #1
 c0033a4:	0afffcc4 	beq	c0026bc <_svfprintf_r+0xc88>
 c0033a8:	e59d40e0 	ldr	r4, [sp, #224]	; 0xe0
 c0033ac:	e59d2060 	ldr	r2, [sp, #96]	; 0x60
 c0033b0:	e2844001 	add	r4, r4, #1
 c0033b4:	e59d3054 	ldr	r3, [sp, #84]	; 0x54
 c0033b8:	e0855002 	add	r5, r5, r2
 c0033bc:	e3540007 	cmp	r4, #7
 c0033c0:	e5893000 	str	r3, [r9]
 c0033c4:	e5892004 	str	r2, [r9, #4]
 c0033c8:	e58d50e4 	str	r5, [sp, #228]	; 0xe4
 c0033cc:	e58d40e0 	str	r4, [sp, #224]	; 0xe0
 c0033d0:	d2899008 	addle	r9, r9, #8
 c0033d4:	ca000135 	bgt	c0038b0 <_svfprintf_r+0x1e7c>
 c0033d8:	e2666000 	rsb	r6, r6, #0
 c0033dc:	e3560000 	cmp	r6, #0
 c0033e0:	da000128 	ble	c003888 <_svfprintf_r+0x1e54>
 c0033e4:	e3560010 	cmp	r6, #16
 c0033e8:	d51fa510 	ldrle	sl, [pc, #-1296]	; c002ee0 <_svfprintf_r+0x14ac>
 c0033ec:	da000113 	ble	c003840 <_svfprintf_r+0x1e0c>
 c0033f0:	e1a03004 	mov	r3, r4
 c0033f4:	e51fa51c 	ldr	sl, [pc, #-1308]	; c002ee0 <_svfprintf_r+0x14ac>
 c0033f8:	e3a08010 	mov	r8, #16
 c0033fc:	e59db038 	ldr	fp, [sp, #56]	; 0x38
 c003400:	e59d4024 	ldr	r4, [sp, #36]	; 0x24
 c003404:	ea000002 	b	c003414 <_svfprintf_r+0x19e0>
 c003408:	e2466010 	sub	r6, r6, #16
 c00340c:	e3560010 	cmp	r6, #16
 c003410:	da000109 	ble	c00383c <_svfprintf_r+0x1e08>
 c003414:	e2833001 	add	r3, r3, #1
 c003418:	e3530007 	cmp	r3, #7
 c00341c:	e2855010 	add	r5, r5, #16
 c003420:	e589a000 	str	sl, [r9]
 c003424:	e5898004 	str	r8, [r9, #4]
 c003428:	e58d50e4 	str	r5, [sp, #228]	; 0xe4
 c00342c:	e58d30e0 	str	r3, [sp, #224]	; 0xe0
 c003430:	d2899008 	addle	r9, r9, #8
 c003434:	dafffff3 	ble	c003408 <_svfprintf_r+0x19d4>
 c003438:	e1a0000b 	mov	r0, fp
 c00343c:	e1a01004 	mov	r1, r4
 c003440:	e28d20dc 	add	r2, sp, #220	; 0xdc
 c003444:	eb000e7d 	bl	c006e40 <__ssprint_r>
 c003448:	e3500000 	cmp	r0, #0
 c00344c:	1afffa3a 	bne	c001d3c <_svfprintf_r+0x308>
 c003450:	e28d30e0 	add	r3, sp, #224	; 0xe0
 c003454:	e8930028 	ldm	r3, {r3, r5}
 c003458:	e1a09007 	mov	r9, r7
 c00345c:	eaffffe9 	b	c003408 <_svfprintf_r+0x19d4>
 c003460:	e59d1034 	ldr	r1, [sp, #52]	; 0x34
 c003464:	e3a00000 	mov	r0, #0
 c003468:	e1c11fc1 	bic	r1, r1, r1, asr #31
 c00346c:	e58d004c 	str	r0, [sp, #76]	; 0x4c
 c003470:	e58d1020 	str	r1, [sp, #32]
 c003474:	e5dd2107 	ldrb	r2, [sp, #263]	; 0x107
 c003478:	e58d403c 	str	r4, [sp, #60]	; 0x3c
 c00347c:	e58d0050 	str	r0, [sp, #80]	; 0x50
 c003480:	eafffa9e 	b	c001f00 <_svfprintf_r+0x4cc>
 c003484:	e3750001 	cmn	r5, #1
 c003488:	03a05006 	moveq	r5, #6
 c00348c:	0a000005 	beq	c0034a8 <_svfprintf_r+0x1a74>
 c003490:	e59dc048 	ldr	ip, [sp, #72]	; 0x48
 c003494:	e35c0067 	cmp	ip, #103	; 0x67
 c003498:	135c0047 	cmpne	ip, #71	; 0x47
 c00349c:	1a000001 	bne	c0034a8 <_svfprintf_r+0x1a74>
 c0034a0:	e3550000 	cmp	r5, #0
 c0034a4:	03a05001 	moveq	r5, #1
 c0034a8:	e59d305c 	ldr	r3, [sp, #92]	; 0x5c
 c0034ac:	e59d0018 	ldr	r0, [sp, #24]
 c0034b0:	e59d1048 	ldr	r1, [sp, #72]	; 0x48
 c0034b4:	e3530000 	cmp	r3, #0
 c0034b8:	e3800c01 	orr	r0, r0, #256	; 0x100
 c0034bc:	b2839102 	addlt	r9, r3, #-2147483648	; 0x80000000
 c0034c0:	b3a0b02d 	movlt	fp, #45	; 0x2d
 c0034c4:	a59d905c 	ldrge	r9, [sp, #92]	; 0x5c
 c0034c8:	a3a0b000 	movge	fp, #0
 c0034cc:	e3510066 	cmp	r1, #102	; 0x66
 c0034d0:	13510046 	cmpne	r1, #70	; 0x46
 c0034d4:	e58d0018 	str	r0, [sp, #24]
 c0034d8:	13a04000 	movne	r4, #0
 c0034dc:	03a04001 	moveq	r4, #1
 c0034e0:	01a0a005 	moveq	sl, r5
 c0034e4:	03a01003 	moveq	r1, #3
 c0034e8:	0a000005 	beq	c003504 <_svfprintf_r+0x1ad0>
 c0034ec:	e3510065 	cmp	r1, #101	; 0x65
 c0034f0:	13510045 	cmpne	r1, #69	; 0x45
 c0034f4:	0285a001 	addeq	sl, r5, #1
 c0034f8:	03a01002 	moveq	r1, #2
 c0034fc:	11a0a005 	movne	sl, r5
 c003500:	13a01002 	movne	r1, #2
 c003504:	e58d1000 	str	r1, [sp]
 c003508:	e28d1c01 	add	r1, sp, #256	; 0x100
 c00350c:	e58d1008 	str	r1, [sp, #8]
 c003510:	e28d10fc 	add	r1, sp, #252	; 0xfc
 c003514:	e59d2058 	ldr	r2, [sp, #88]	; 0x58
 c003518:	e58d100c 	str	r1, [sp, #12]
 c00351c:	e1a03009 	mov	r3, r9
 c003520:	e28d10f8 	add	r1, sp, #248	; 0xf8
 c003524:	e59d0038 	ldr	r0, [sp, #56]	; 0x38
 c003528:	e58da004 	str	sl, [sp, #4]
 c00352c:	e58d1010 	str	r1, [sp, #16]
 c003530:	eb000202 	bl	c003d40 <_dtoa_r>
 c003534:	e59d2048 	ldr	r2, [sp, #72]	; 0x48
 c003538:	e3520047 	cmp	r2, #71	; 0x47
 c00353c:	13520067 	cmpne	r2, #103	; 0x67
 c003540:	e58d0040 	str	r0, [sp, #64]	; 0x40
 c003544:	0a0000a2 	beq	c0037d4 <_svfprintf_r+0x1da0>
 c003548:	e59dc040 	ldr	ip, [sp, #64]	; 0x40
 c00354c:	e3540000 	cmp	r4, #0
 c003550:	e08c400a 	add	r4, ip, sl
 c003554:	0a00000c 	beq	c00358c <_svfprintf_r+0x1b58>
 c003558:	e5dc3000 	ldrb	r3, [ip]
 c00355c:	e3530030 	cmp	r3, #48	; 0x30
 c003560:	1a000007 	bne	c003584 <_svfprintf_r+0x1b50>
 c003564:	e59d0058 	ldr	r0, [sp, #88]	; 0x58
 c003568:	e1a01009 	mov	r1, r9
 c00356c:	e3a02000 	mov	r2, #0
 c003570:	e3a03000 	mov	r3, #0
 c003574:	eb00191c 	bl	c0099ec <__aeabi_dcmpeq>
 c003578:	e3500000 	cmp	r0, #0
 c00357c:	026aa001 	rsbeq	sl, sl, #1
 c003580:	058da100 	streq	sl, [sp, #256]	; 0x100
 c003584:	e59d3100 	ldr	r3, [sp, #256]	; 0x100
 c003588:	e0844003 	add	r4, r4, r3
 c00358c:	e3a03000 	mov	r3, #0
 c003590:	e59d0058 	ldr	r0, [sp, #88]	; 0x58
 c003594:	e1a01009 	mov	r1, r9
 c003598:	e3a02000 	mov	r2, #0
 c00359c:	eb001912 	bl	c0099ec <__aeabi_dcmpeq>
 c0035a0:	e3500000 	cmp	r0, #0
 c0035a4:	158d40f8 	strne	r4, [sp, #248]	; 0xf8
 c0035a8:	11a03004 	movne	r3, r4
 c0035ac:	1a000007 	bne	c0035d0 <_svfprintf_r+0x1b9c>
 c0035b0:	e59d30f8 	ldr	r3, [sp, #248]	; 0xf8
 c0035b4:	e1540003 	cmp	r4, r3
 c0035b8:	9a000004 	bls	c0035d0 <_svfprintf_r+0x1b9c>
 c0035bc:	e3a02030 	mov	r2, #48	; 0x30
 c0035c0:	e4c32001 	strb	r2, [r3], #1
 c0035c4:	e1530004 	cmp	r3, r4
 c0035c8:	e58d30f8 	str	r3, [sp, #248]	; 0xf8
 c0035cc:	1afffffb 	bne	c0035c0 <_svfprintf_r+0x1b8c>
 c0035d0:	e59d0048 	ldr	r0, [sp, #72]	; 0x48
 c0035d4:	e59d1040 	ldr	r1, [sp, #64]	; 0x40
 c0035d8:	e3500067 	cmp	r0, #103	; 0x67
 c0035dc:	13500047 	cmpne	r0, #71	; 0x47
 c0035e0:	e0613003 	rsb	r3, r1, r3
 c0035e4:	e58d302c 	str	r3, [sp, #44]	; 0x2c
 c0035e8:	1a0000ff 	bne	c0039ec <_svfprintf_r+0x1fb8>
 c0035ec:	e59d3100 	ldr	r3, [sp, #256]	; 0x100
 c0035f0:	e3730003 	cmn	r3, #3
 c0035f4:	e58d3034 	str	r3, [sp, #52]	; 0x34
 c0035f8:	ba000001 	blt	c003604 <_svfprintf_r+0x1bd0>
 c0035fc:	e1550003 	cmp	r5, r3
 c003600:	aa000110 	bge	c003a48 <_svfprintf_r+0x2014>
 c003604:	e59d2048 	ldr	r2, [sp, #72]	; 0x48
 c003608:	e2422002 	sub	r2, r2, #2
 c00360c:	e58d2048 	str	r2, [sp, #72]	; 0x48
 c003610:	e2433001 	sub	r3, r3, #1
 c003614:	e3530000 	cmp	r3, #0
 c003618:	e58d3100 	str	r3, [sp, #256]	; 0x100
 c00361c:	e59dc048 	ldr	ip, [sp, #72]	; 0x48
 c003620:	b2633000 	rsblt	r3, r3, #0
 c003624:	b3a0202d 	movlt	r2, #45	; 0x2d
 c003628:	a3a0202b 	movge	r2, #43	; 0x2b
 c00362c:	e3530009 	cmp	r3, #9
 c003630:	e5cdc0f0 	strb	ip, [sp, #240]	; 0xf0
 c003634:	e5cd20f1 	strb	r2, [sp, #241]	; 0xf1
 c003638:	da000114 	ble	c003a90 <_svfprintf_r+0x205c>
 c00363c:	e51fc770 	ldr	ip, [pc, #-1904]	; c002ed4 <_svfprintf_r+0x14a0>
 c003640:	e28d00ee 	add	r0, sp, #238	; 0xee
 c003644:	e0c1239c 	smull	r2, r1, ip, r3
 c003648:	e1a02fc3 	asr	r2, r3, #31
 c00364c:	e0622141 	rsb	r2, r2, r1, asr #2
 c003650:	e0821102 	add	r1, r2, r2, lsl #2
 c003654:	e0431081 	sub	r1, r3, r1, lsl #1
 c003658:	e2811030 	add	r1, r1, #48	; 0x30
 c00365c:	e3520009 	cmp	r2, #9
 c003660:	e1a03002 	mov	r3, r2
 c003664:	e1a02000 	mov	r2, r0
 c003668:	e4401001 	strb	r1, [r0], #-1
 c00366c:	cafffff4 	bgt	c003644 <_svfprintf_r+0x1c10>
 c003670:	e59dc06c 	ldr	ip, [sp, #108]	; 0x6c
 c003674:	e2421001 	sub	r1, r2, #1
 c003678:	e151000c 	cmp	r1, ip
 c00367c:	e2833030 	add	r3, r3, #48	; 0x30
 c003680:	e5423001 	strb	r3, [r2, #-1]
 c003684:	228d00f0 	addcs	r0, sp, #240	; 0xf0
 c003688:	228d10f2 	addcs	r1, sp, #242	; 0xf2
 c00368c:	2a000008 	bcs	c0036b4 <_svfprintf_r+0x1c80>
 c003690:	e28d00f0 	add	r0, sp, #240	; 0xf0
 c003694:	e59dc06c 	ldr	ip, [sp, #108]	; 0x6c
 c003698:	e1a02001 	mov	r2, r1
 c00369c:	e2803002 	add	r3, r0, #2
 c0036a0:	e4d21001 	ldrb	r1, [r2], #1
 c0036a4:	e4c31001 	strb	r1, [r3], #1
 c0036a8:	e15c0002 	cmp	ip, r2
 c0036ac:	e1a01003 	mov	r1, r3
 c0036b0:	8afffffa 	bhi	c0036a0 <_svfprintf_r+0x1c6c>
 c0036b4:	e0600001 	rsb	r0, r0, r1
 c0036b8:	e58d0064 	str	r0, [sp, #100]	; 0x64
 c0036bc:	e59d1064 	ldr	r1, [sp, #100]	; 0x64
 c0036c0:	e59d002c 	ldr	r0, [sp, #44]	; 0x2c
 c0036c4:	e0811000 	add	r1, r1, r0
 c0036c8:	e3500001 	cmp	r0, #1
 c0036cc:	e58d1034 	str	r1, [sp, #52]	; 0x34
 c0036d0:	da000101 	ble	c003adc <_svfprintf_r+0x20a8>
 c0036d4:	e59d3034 	ldr	r3, [sp, #52]	; 0x34
 c0036d8:	e3a0c000 	mov	ip, #0
 c0036dc:	e2833001 	add	r3, r3, #1
 c0036e0:	e58d3034 	str	r3, [sp, #52]	; 0x34
 c0036e4:	e58dc050 	str	ip, [sp, #80]	; 0x50
 c0036e8:	e35b0000 	cmp	fp, #0
 c0036ec:	1a0000b6 	bne	c0039cc <_svfprintf_r+0x1f98>
 c0036f0:	e59d3034 	ldr	r3, [sp, #52]	; 0x34
 c0036f4:	e1c33fc3 	bic	r3, r3, r3, asr #31
 c0036f8:	e58d3020 	str	r3, [sp, #32]
 c0036fc:	e5dd2107 	ldrb	r2, [sp, #263]	; 0x107
 c003700:	e58db04c 	str	fp, [sp, #76]	; 0x4c
 c003704:	eafff9fd 	b	c001f00 <_svfprintf_r+0x4cc>
 c003708:	e59d0038 	ldr	r0, [sp, #56]	; 0x38
 c00370c:	e59d1024 	ldr	r1, [sp, #36]	; 0x24
 c003710:	e28d20dc 	add	r2, sp, #220	; 0xdc
 c003714:	eb000dc9 	bl	c006e40 <__ssprint_r>
 c003718:	e3500000 	cmp	r0, #0
 c00371c:	1afff986 	bne	c001d3c <_svfprintf_r+0x308>
 c003720:	e59d50e4 	ldr	r5, [sp, #228]	; 0xe4
 c003724:	e1a03007 	mov	r3, r7
 c003728:	eafffc76 	b	c002908 <_svfprintf_r+0xed4>
 c00372c:	e59d0018 	ldr	r0, [sp, #24]
 c003730:	e3100040 	tst	r0, #64	; 0x40
 c003734:	0a00001f 	beq	c0037b8 <_svfprintf_r+0x1d84>
 c003738:	e59d103c 	ldr	r1, [sp, #60]	; 0x3c
 c00373c:	e59d2030 	ldr	r2, [sp, #48]	; 0x30
 c003740:	e5913000 	ldr	r3, [r1]
 c003744:	e2811004 	add	r1, r1, #4
 c003748:	e58d103c 	str	r1, [sp, #60]	; 0x3c
 c00374c:	e1c320b0 	strh	r2, [r3]
 c003750:	eafff8d9 	b	c001abc <_svfprintf_r+0x88>
 c003754:	e59d003c 	ldr	r0, [sp, #60]	; 0x3c
 c003758:	e5902000 	ldr	r2, [r0]
 c00375c:	e3a03001 	mov	r3, #1
 c003760:	e1a08002 	mov	r8, r2
 c003764:	e3a09000 	mov	r9, #0
 c003768:	e2800004 	add	r0, r0, #4
 c00376c:	e2522000 	subs	r2, r2, #0
 c003770:	13a02001 	movne	r2, #1
 c003774:	e58d003c 	str	r0, [sp, #60]	; 0x3c
 c003778:	eafffa6b 	b	c00212c <_svfprintf_r+0x6f8>
 c00377c:	e59d003c 	ldr	r0, [sp, #60]	; 0x3c
 c003780:	e5902000 	ldr	r2, [r0]
 c003784:	eafffff5 	b	c003760 <_svfprintf_r+0x1d2c>
 c003788:	e3a01040 	mov	r1, #64	; 0x40
 c00378c:	e59d0038 	ldr	r0, [sp, #56]	; 0x38
 c003790:	eb00071e 	bl	c005410 <_malloc_r>
 c003794:	e59d1024 	ldr	r1, [sp, #36]	; 0x24
 c003798:	e3500000 	cmp	r0, #0
 c00379c:	e5810000 	str	r0, [r1]
 c0037a0:	e5810010 	str	r0, [r1, #16]
 c0037a4:	0a0000ea 	beq	c003b54 <_svfprintf_r+0x2120>
 c0037a8:	e59dc024 	ldr	ip, [sp, #36]	; 0x24
 c0037ac:	e3a03040 	mov	r3, #64	; 0x40
 c0037b0:	e58c3014 	str	r3, [ip, #20]
 c0037b4:	eafff8b0 	b	c001a7c <_svfprintf_r+0x48>
 c0037b8:	e59dc03c 	ldr	ip, [sp, #60]	; 0x3c
 c0037bc:	e59d0030 	ldr	r0, [sp, #48]	; 0x30
 c0037c0:	e59c3000 	ldr	r3, [ip]
 c0037c4:	e28cc004 	add	ip, ip, #4
 c0037c8:	e58dc03c 	str	ip, [sp, #60]	; 0x3c
 c0037cc:	e5830000 	str	r0, [r3]
 c0037d0:	eafff8b9 	b	c001abc <_svfprintf_r+0x88>
 c0037d4:	e59d3018 	ldr	r3, [sp, #24]
 c0037d8:	e3130001 	tst	r3, #1
 c0037dc:	059d30f8 	ldreq	r3, [sp, #248]	; 0xf8
 c0037e0:	1affff58 	bne	c003548 <_svfprintf_r+0x1b14>
 c0037e4:	eaffff79 	b	c0035d0 <_svfprintf_r+0x1b9c>
 c0037e8:	e59d0038 	ldr	r0, [sp, #56]	; 0x38
 c0037ec:	e59d1024 	ldr	r1, [sp, #36]	; 0x24
 c0037f0:	e28d20dc 	add	r2, sp, #220	; 0xdc
 c0037f4:	eb000d91 	bl	c006e40 <__ssprint_r>
 c0037f8:	e3500000 	cmp	r0, #0
 c0037fc:	1afff94e 	bne	c001d3c <_svfprintf_r+0x308>
 c003800:	e59d6100 	ldr	r6, [sp, #256]	; 0x100
 c003804:	e59d50e4 	ldr	r5, [sp, #228]	; 0xe4
 c003808:	e1a09007 	mov	r9, r7
 c00380c:	eafffedd 	b	c003388 <_svfprintf_r+0x1954>
 c003810:	e59d0038 	ldr	r0, [sp, #56]	; 0x38
 c003814:	e59d1024 	ldr	r1, [sp, #36]	; 0x24
 c003818:	e28d20dc 	add	r2, sp, #220	; 0xdc
 c00381c:	eb000d87 	bl	c006e40 <__ssprint_r>
 c003820:	e3500000 	cmp	r0, #0
 c003824:	1afff944 	bne	c001d3c <_svfprintf_r+0x308>
 c003828:	e28d40e0 	add	r4, sp, #224	; 0xe0
 c00382c:	e8940030 	ldm	r4, {r4, r5}
 c003830:	e2879008 	add	r9, r7, #8
 c003834:	e1a0b007 	mov	fp, r7
 c003838:	eafffbf6 	b	c002818 <_svfprintf_r+0xde4>
 c00383c:	e1a04003 	mov	r4, r3
 c003840:	e2844001 	add	r4, r4, #1
 c003844:	e0855006 	add	r5, r5, r6
 c003848:	e3540007 	cmp	r4, #7
 c00384c:	e589a000 	str	sl, [r9]
 c003850:	e5896004 	str	r6, [r9, #4]
 c003854:	e58d50e4 	str	r5, [sp, #228]	; 0xe4
 c003858:	e58d40e0 	str	r4, [sp, #224]	; 0xe0
 c00385c:	d2899008 	addle	r9, r9, #8
 c003860:	da000008 	ble	c003888 <_svfprintf_r+0x1e54>
 c003864:	e59d0038 	ldr	r0, [sp, #56]	; 0x38
 c003868:	e59d1024 	ldr	r1, [sp, #36]	; 0x24
 c00386c:	e28d20dc 	add	r2, sp, #220	; 0xdc
 c003870:	eb000d72 	bl	c006e40 <__ssprint_r>
 c003874:	e3500000 	cmp	r0, #0
 c003878:	1afff92f 	bne	c001d3c <_svfprintf_r+0x308>
 c00387c:	e28d40e0 	add	r4, sp, #224	; 0xe0
 c003880:	e8940030 	ldm	r4, {r4, r5}
 c003884:	e1a09007 	mov	r9, r7
 c003888:	e59dc02c 	ldr	ip, [sp, #44]	; 0x2c
 c00388c:	e2844001 	add	r4, r4, #1
 c003890:	e59d0040 	ldr	r0, [sp, #64]	; 0x40
 c003894:	e085500c 	add	r5, r5, ip
 c003898:	e3540007 	cmp	r4, #7
 c00389c:	e8891001 	stm	r9, {r0, ip}
 c0038a0:	e58d50e4 	str	r5, [sp, #228]	; 0xe4
 c0038a4:	e58d40e0 	str	r4, [sp, #224]	; 0xe0
 c0038a8:	dafffb82 	ble	c0026b8 <_svfprintf_r+0xc84>
 c0038ac:	eafffbe3 	b	c002840 <_svfprintf_r+0xe0c>
 c0038b0:	e59d0038 	ldr	r0, [sp, #56]	; 0x38
 c0038b4:	e59d1024 	ldr	r1, [sp, #36]	; 0x24
 c0038b8:	e28d20dc 	add	r2, sp, #220	; 0xdc
 c0038bc:	eb000d5f 	bl	c006e40 <__ssprint_r>
 c0038c0:	e3500000 	cmp	r0, #0
 c0038c4:	1afff91c 	bne	c001d3c <_svfprintf_r+0x308>
 c0038c8:	e59d6100 	ldr	r6, [sp, #256]	; 0x100
 c0038cc:	e28d40e0 	add	r4, sp, #224	; 0xe0
 c0038d0:	e8940030 	ldm	r4, {r4, r5}
 c0038d4:	e1a09007 	mov	r9, r7
 c0038d8:	eafffebe 	b	c0033d8 <_svfprintf_r+0x19a4>
 c0038dc:	e1a03009 	mov	r3, r9
 c0038e0:	eafffe39 	b	c0031cc <_svfprintf_r+0x1798>
 c0038e4:	e59d0040 	ldr	r0, [sp, #64]	; 0x40
 c0038e8:	eb000d3c 	bl	c006de0 <strlen>
 c0038ec:	e3a02000 	mov	r2, #0
 c0038f0:	e1c03fc0 	bic	r3, r0, r0, asr #31
 c0038f4:	e3a0c000 	mov	ip, #0
 c0038f8:	e58d204c 	str	r2, [sp, #76]	; 0x4c
 c0038fc:	e58d0034 	str	r0, [sp, #52]	; 0x34
 c003900:	e58d3020 	str	r3, [sp, #32]
 c003904:	e5dd2107 	ldrb	r2, [sp, #263]	; 0x107
 c003908:	e58d403c 	str	r4, [sp, #60]	; 0x3c
 c00390c:	e58dc050 	str	ip, [sp, #80]	; 0x50
 c003910:	eafff97a 	b	c001f00 <_svfprintf_r+0x4cc>
 c003914:	e2863008 	add	r3, r6, #8
 c003918:	e28d40e0 	add	r4, sp, #224	; 0xe0
 c00391c:	e8940030 	ldm	r4, {r4, r5}
 c003920:	e51faa50 	ldr	sl, [pc, #-2640]	; c002ed8 <_svfprintf_r+0x14a4>
 c003924:	eafff9af 	b	c001fe8 <_svfprintf_r+0x5b4>
 c003928:	e59d0038 	ldr	r0, [sp, #56]	; 0x38
 c00392c:	e59d1024 	ldr	r1, [sp, #36]	; 0x24
 c003930:	e28d20dc 	add	r2, sp, #220	; 0xdc
 c003934:	eb000d41 	bl	c006e40 <__ssprint_r>
 c003938:	e3500000 	cmp	r0, #0
 c00393c:	1afff8fe 	bne	c001d3c <_svfprintf_r+0x308>
 c003940:	e59d50e4 	ldr	r5, [sp, #228]	; 0xe4
 c003944:	e1a09007 	mov	r9, r7
 c003948:	eafffcd1 	b	c002c94 <_svfprintf_r+0x1260>
 c00394c:	e59d0038 	ldr	r0, [sp, #56]	; 0x38
 c003950:	e59d1024 	ldr	r1, [sp, #36]	; 0x24
 c003954:	e28d20dc 	add	r2, sp, #220	; 0xdc
 c003958:	eb000d38 	bl	c006e40 <__ssprint_r>
 c00395c:	e3500000 	cmp	r0, #0
 c003960:	1afff8f5 	bne	c001d3c <_svfprintf_r+0x308>
 c003964:	e59d2100 	ldr	r2, [sp, #256]	; 0x100
 c003968:	e59d002c 	ldr	r0, [sp, #44]	; 0x2c
 c00396c:	e59d50e4 	ldr	r5, [sp, #228]	; 0xe4
 c003970:	e0622000 	rsb	r2, r2, r0
 c003974:	e1a03007 	mov	r3, r7
 c003978:	eafffe2e 	b	c003238 <_svfprintf_r+0x1804>
 c00397c:	e3550006 	cmp	r5, #6
 c003980:	23a05006 	movcs	r5, #6
 c003984:	e51f0ab0 	ldr	r0, [pc, #-2736]	; c002edc <_svfprintf_r+0x14a8>
 c003988:	e1c5cfc5 	bic	ip, r5, r5, asr #31
 c00398c:	e58d5034 	str	r5, [sp, #52]	; 0x34
 c003990:	e58dc020 	str	ip, [sp, #32]
 c003994:	e58d403c 	str	r4, [sp, #60]	; 0x3c
 c003998:	e58d204c 	str	r2, [sp, #76]	; 0x4c
 c00399c:	e58d2050 	str	r2, [sp, #80]	; 0x50
 c0039a0:	e58d0040 	str	r0, [sp, #64]	; 0x40
 c0039a4:	eafff955 	b	c001f00 <_svfprintf_r+0x4cc>
 c0039a8:	e59d0038 	ldr	r0, [sp, #56]	; 0x38
 c0039ac:	e59d1024 	ldr	r1, [sp, #36]	; 0x24
 c0039b0:	e28d20dc 	add	r2, sp, #220	; 0xdc
 c0039b4:	eb000d21 	bl	c006e40 <__ssprint_r>
 c0039b8:	e3500000 	cmp	r0, #0
 c0039bc:	1afff8de 	bne	c001d3c <_svfprintf_r+0x308>
 c0039c0:	e1a03007 	mov	r3, r7
 c0039c4:	e59d50e4 	ldr	r5, [sp, #228]	; 0xe4
 c0039c8:	eafffdff 	b	c0031cc <_svfprintf_r+0x1798>
 c0039cc:	e59dc034 	ldr	ip, [sp, #52]	; 0x34
 c0039d0:	e3a0202d 	mov	r2, #45	; 0x2d
 c0039d4:	e1cccfcc 	bic	ip, ip, ip, asr #31
 c0039d8:	e3a00000 	mov	r0, #0
 c0039dc:	e5cd2107 	strb	r2, [sp, #263]	; 0x107
 c0039e0:	e58dc020 	str	ip, [sp, #32]
 c0039e4:	e58d004c 	str	r0, [sp, #76]	; 0x4c
 c0039e8:	eafff946 	b	c001f08 <_svfprintf_r+0x4d4>
 c0039ec:	e59d3048 	ldr	r3, [sp, #72]	; 0x48
 c0039f0:	e3530066 	cmp	r3, #102	; 0x66
 c0039f4:	1a000041 	bne	c003b00 <_svfprintf_r+0x20cc>
 c0039f8:	e59d3100 	ldr	r3, [sp, #256]	; 0x100
 c0039fc:	e3530000 	cmp	r3, #0
 c003a00:	e58d3034 	str	r3, [sp, #52]	; 0x34
 c003a04:	da00003f 	ble	c003b08 <_svfprintf_r+0x20d4>
 c003a08:	e3550000 	cmp	r5, #0
 c003a0c:	1a000002 	bne	c003a1c <_svfprintf_r+0x1fe8>
 c003a10:	e59d0018 	ldr	r0, [sp, #24]
 c003a14:	e3100001 	tst	r0, #1
 c003a18:	0a000002 	beq	c003a28 <_svfprintf_r+0x1ff4>
 c003a1c:	e2832001 	add	r2, r3, #1
 c003a20:	e0822005 	add	r2, r2, r5
 c003a24:	e58d2034 	str	r2, [sp, #52]	; 0x34
 c003a28:	e58d3050 	str	r3, [sp, #80]	; 0x50
 c003a2c:	e58d8048 	str	r8, [sp, #72]	; 0x48
 c003a30:	eaffff2c 	b	c0036e8 <_svfprintf_r+0x1cb4>
 c003a34:	e1a03006 	mov	r3, r6
 c003a38:	e59d40e0 	ldr	r4, [sp, #224]	; 0xe0
 c003a3c:	e2866008 	add	r6, r6, #8
 c003a40:	e51fab68 	ldr	sl, [pc, #-2920]	; c002ee0 <_svfprintf_r+0x14ac>
 c003a44:	eafffc08 	b	c002a6c <_svfprintf_r+0x1038>
 c003a48:	e59d202c 	ldr	r2, [sp, #44]	; 0x2c
 c003a4c:	e1530002 	cmp	r3, r2
 c003a50:	ba000015 	blt	c003aac <_svfprintf_r+0x2078>
 c003a54:	e59dc018 	ldr	ip, [sp, #24]
 c003a58:	e31c0001 	tst	ip, #1
 c003a5c:	12830001 	addne	r0, r3, #1
 c003a60:	158d0034 	strne	r0, [sp, #52]	; 0x34
 c003a64:	13a08067 	movne	r8, #103	; 0x67
 c003a68:	03a08067 	moveq	r8, #103	; 0x67
 c003a6c:	eaffffed 	b	c003a28 <_svfprintf_r+0x1ff4>
 c003a70:	e1c51fc5 	bic	r1, r5, r5, asr #31
 c003a74:	e58d004c 	str	r0, [sp, #76]	; 0x4c
 c003a78:	e58d1020 	str	r1, [sp, #32]
 c003a7c:	e5dd2107 	ldrb	r2, [sp, #263]	; 0x107
 c003a80:	e58d403c 	str	r4, [sp, #60]	; 0x3c
 c003a84:	e58d5034 	str	r5, [sp, #52]	; 0x34
 c003a88:	e58d0050 	str	r0, [sp, #80]	; 0x50
 c003a8c:	eafff91b 	b	c001f00 <_svfprintf_r+0x4cc>
 c003a90:	e2832030 	add	r2, r3, #48	; 0x30
 c003a94:	e28d00f0 	add	r0, sp, #240	; 0xf0
 c003a98:	e3a03030 	mov	r3, #48	; 0x30
 c003a9c:	e5cd30f2 	strb	r3, [sp, #242]	; 0xf2
 c003aa0:	e5cd20f3 	strb	r2, [sp, #243]	; 0xf3
 c003aa4:	e2801004 	add	r1, r0, #4
 c003aa8:	eaffff01 	b	c0036b4 <_svfprintf_r+0x1c80>
 c003aac:	e3530000 	cmp	r3, #0
 c003ab0:	e59d102c 	ldr	r1, [sp, #44]	; 0x2c
 c003ab4:	d2632002 	rsble	r2, r3, #2
 c003ab8:	c3a02001 	movgt	r2, #1
 c003abc:	e0822001 	add	r2, r2, r1
 c003ac0:	e58d2034 	str	r2, [sp, #52]	; 0x34
 c003ac4:	e3a08067 	mov	r8, #103	; 0x67
 c003ac8:	eaffffd6 	b	c003a28 <_svfprintf_r+0x1ff4>
 c003acc:	e2839008 	add	r9, r3, #8
 c003ad0:	e59d40e0 	ldr	r4, [sp, #224]	; 0xe0
 c003ad4:	e51fabfc 	ldr	sl, [pc, #-3068]	; c002ee0 <_svfprintf_r+0x14ac>
 c003ad8:	eafffd02 	b	c002ee8 <_svfprintf_r+0x14b4>
 c003adc:	e59d2018 	ldr	r2, [sp, #24]
 c003ae0:	e2123001 	ands	r3, r2, #1
 c003ae4:	058d3050 	streq	r3, [sp, #80]	; 0x50
 c003ae8:	0afffefe 	beq	c0036e8 <_svfprintf_r+0x1cb4>
 c003aec:	eafffef8 	b	c0036d4 <_svfprintf_r+0x1ca0>
 c003af0:	e2893008 	add	r3, r9, #8
 c003af4:	e59d40e0 	ldr	r4, [sp, #224]	; 0xe0
 c003af8:	e51fac20 	ldr	sl, [pc, #-3104]	; c002ee0 <_svfprintf_r+0x14ac>
 c003afc:	eafffdaa 	b	c0031ac <_svfprintf_r+0x1778>
 c003b00:	e59d3100 	ldr	r3, [sp, #256]	; 0x100
 c003b04:	eafffec1 	b	c003610 <_svfprintf_r+0x1bdc>
 c003b08:	e3550000 	cmp	r5, #0
 c003b0c:	1a000004 	bne	c003b24 <_svfprintf_r+0x20f0>
 c003b10:	e59d1018 	ldr	r1, [sp, #24]
 c003b14:	e3110001 	tst	r1, #1
 c003b18:	03a02001 	moveq	r2, #1
 c003b1c:	058d2034 	streq	r2, [sp, #52]	; 0x34
 c003b20:	0affffc0 	beq	c003a28 <_svfprintf_r+0x1ff4>
 c003b24:	e2855002 	add	r5, r5, #2
 c003b28:	e58d5034 	str	r5, [sp, #52]	; 0x34
 c003b2c:	eaffffbd 	b	c003a28 <_svfprintf_r+0x1ff4>
 c003b30:	e59d303c 	ldr	r3, [sp, #60]	; 0x3c
 c003b34:	e5935000 	ldr	r5, [r3]
 c003b38:	e2832004 	add	r2, r3, #4
 c003b3c:	e3550000 	cmp	r5, #0
 c003b40:	b5dc3000 	ldrblt	r3, [ip]
 c003b44:	b3e05000 	mvnlt	r5, #0
 c003b48:	b58d203c 	strlt	r2, [sp, #60]	; 0x3c
 c003b4c:	aafff9f8 	bge	c002334 <_svfprintf_r+0x900>
 c003b50:	eafff804 	b	c001b68 <_svfprintf_r+0x134>
 c003b54:	e59d2038 	ldr	r2, [sp, #56]	; 0x38
 c003b58:	e3a0300c 	mov	r3, #12
 c003b5c:	e5823000 	str	r3, [r2]
 c003b60:	e3e03000 	mvn	r3, #0
 c003b64:	e58d3030 	str	r3, [sp, #48]	; 0x30
 c003b68:	eafff879 	b	c001d54 <_svfprintf_r+0x320>
 c003b6c:	00000000 	andeq	r0, r0, r0

0c003b70 <quorem>:
 c003b70:	e92d4ff8 	push	{r3, r4, r5, r6, r7, r8, r9, sl, fp, lr}
 c003b74:	e5903010 	ldr	r3, [r0, #16]
 c003b78:	e5915010 	ldr	r5, [r1, #16]
 c003b7c:	e1550003 	cmp	r5, r3
 c003b80:	e1a0a000 	mov	sl, r0
 c003b84:	e1a09001 	mov	r9, r1
 c003b88:	c3a00000 	movgt	r0, #0
 c003b8c:	ca000069 	bgt	c003d38 <quorem+0x1c8>
 c003b90:	e2853003 	add	r3, r5, #3
 c003b94:	e1a03103 	lsl	r3, r3, #2
 c003b98:	e0817003 	add	r7, r1, r3
 c003b9c:	e5971004 	ldr	r1, [r7, #4]
 c003ba0:	e0803003 	add	r3, r0, r3
 c003ba4:	e5930004 	ldr	r0, [r3, #4]
 c003ba8:	e2811001 	add	r1, r1, #1
 c003bac:	eb001495 	bl	c008e08 <__aeabi_uidiv>
 c003bb0:	e2506000 	subs	r6, r0, #0
 c003bb4:	e2455001 	sub	r5, r5, #1
 c003bb8:	e2877004 	add	r7, r7, #4
 c003bbc:	e2894014 	add	r4, r9, #20
 c003bc0:	e28a8014 	add	r8, sl, #20
 c003bc4:	0a00002e 	beq	c003c84 <quorem+0x114>
 c003bc8:	e3a00000 	mov	r0, #0
 c003bcc:	e1a02008 	mov	r2, r8
 c003bd0:	e1a03004 	mov	r3, r4
 c003bd4:	e1a01000 	mov	r1, r0
 c003bd8:	e493e004 	ldr	lr, [r3], #4
 c003bdc:	e1a0b80e 	lsl	fp, lr, #16
 c003be0:	e1a0b82b 	lsr	fp, fp, #16
 c003be4:	e1a0e82e 	lsr	lr, lr, #16
 c003be8:	e02b0b96 	mla	fp, r6, fp, r0
 c003bec:	e000069e 	mul	r0, lr, r6
 c003bf0:	e592e000 	ldr	lr, [r2]
 c003bf4:	e080082b 	add	r0, r0, fp, lsr #16
 c003bf8:	e1a0c80e 	lsl	ip, lr, #16
 c003bfc:	e081c82c 	add	ip, r1, ip, lsr #16
 c003c00:	e1a0b80b 	lsl	fp, fp, #16
 c003c04:	e1a01800 	lsl	r1, r0, #16
 c003c08:	e04cc82b 	sub	ip, ip, fp, lsr #16
 c003c0c:	e1a01821 	lsr	r1, r1, #16
 c003c10:	e061182e 	rsb	r1, r1, lr, lsr #16
 c003c14:	e1a0b80c 	lsl	fp, ip, #16
 c003c18:	e081184c 	add	r1, r1, ip, asr #16
 c003c1c:	e1a0c82b 	lsr	ip, fp, #16
 c003c20:	e18cc801 	orr	ip, ip, r1, lsl #16
 c003c24:	e1570003 	cmp	r7, r3
 c003c28:	e1a00820 	lsr	r0, r0, #16
 c003c2c:	e1a01841 	asr	r1, r1, #16
 c003c30:	e482c004 	str	ip, [r2], #4
 c003c34:	2affffe7 	bcs	c003bd8 <quorem+0x68>
 c003c38:	e2852004 	add	r2, r5, #4
 c003c3c:	e08a3102 	add	r3, sl, r2, lsl #2
 c003c40:	e5931004 	ldr	r1, [r3, #4]
 c003c44:	e3510000 	cmp	r1, #0
 c003c48:	1a00000d 	bne	c003c84 <quorem+0x114>
 c003c4c:	e1580003 	cmp	r8, r3
 c003c50:	2a00000a 	bcs	c003c80 <quorem+0x110>
 c003c54:	e79a2102 	ldr	r2, [sl, r2, lsl #2]
 c003c58:	e3520000 	cmp	r2, #0
 c003c5c:	1a000007 	bne	c003c80 <quorem+0x110>
 c003c60:	e2433004 	sub	r3, r3, #4
 c003c64:	ea000002 	b	c003c74 <quorem+0x104>
 c003c68:	e4132004 	ldr	r2, [r3], #-4
 c003c6c:	e3520000 	cmp	r2, #0
 c003c70:	1a000002 	bne	c003c80 <quorem+0x110>
 c003c74:	e1580003 	cmp	r8, r3
 c003c78:	e2455001 	sub	r5, r5, #1
 c003c7c:	3afffff9 	bcc	c003c68 <quorem+0xf8>
 c003c80:	e58a5010 	str	r5, [sl, #16]
 c003c84:	e1a0000a 	mov	r0, sl
 c003c88:	e1a01009 	mov	r1, r9
 c003c8c:	eb000a29 	bl	c006538 <__mcmp>
 c003c90:	e3500000 	cmp	r0, #0
 c003c94:	ba000026 	blt	c003d34 <quorem+0x1c4>
 c003c98:	e2866001 	add	r6, r6, #1
 c003c9c:	e1a03008 	mov	r3, r8
 c003ca0:	e3a02000 	mov	r2, #0
 c003ca4:	e494c004 	ldr	ip, [r4], #4
 c003ca8:	e5930000 	ldr	r0, [r3]
 c003cac:	e1a0180c 	lsl	r1, ip, #16
 c003cb0:	e1a09800 	lsl	r9, r0, #16
 c003cb4:	e1a01821 	lsr	r1, r1, #16
 c003cb8:	e0611829 	rsb	r1, r1, r9, lsr #16
 c003cbc:	e0811002 	add	r1, r1, r2
 c003cc0:	e1a0282c 	lsr	r2, ip, #16
 c003cc4:	e0622820 	rsb	r2, r2, r0, lsr #16
 c003cc8:	e1a09801 	lsl	r9, r1, #16
 c003ccc:	e0822841 	add	r2, r2, r1, asr #16
 c003cd0:	e1a01829 	lsr	r1, r9, #16
 c003cd4:	e1811802 	orr	r1, r1, r2, lsl #16
 c003cd8:	e1570004 	cmp	r7, r4
 c003cdc:	e1a02842 	asr	r2, r2, #16
 c003ce0:	e4831004 	str	r1, [r3], #4
 c003ce4:	2affffee 	bcs	c003ca4 <quorem+0x134>
 c003ce8:	e2852004 	add	r2, r5, #4
 c003cec:	e08a3102 	add	r3, sl, r2, lsl #2
 c003cf0:	e5931004 	ldr	r1, [r3, #4]
 c003cf4:	e3510000 	cmp	r1, #0
 c003cf8:	1a00000d 	bne	c003d34 <quorem+0x1c4>
 c003cfc:	e1580003 	cmp	r8, r3
 c003d00:	2a00000a 	bcs	c003d30 <quorem+0x1c0>
 c003d04:	e79a2102 	ldr	r2, [sl, r2, lsl #2]
 c003d08:	e3520000 	cmp	r2, #0
 c003d0c:	1a000007 	bne	c003d30 <quorem+0x1c0>
 c003d10:	e2433004 	sub	r3, r3, #4
 c003d14:	ea000002 	b	c003d24 <quorem+0x1b4>
 c003d18:	e4132004 	ldr	r2, [r3], #-4
 c003d1c:	e3520000 	cmp	r2, #0
 c003d20:	1a000002 	bne	c003d30 <quorem+0x1c0>
 c003d24:	e1580003 	cmp	r8, r3
 c003d28:	e2455001 	sub	r5, r5, #1
 c003d2c:	3afffff9 	bcc	c003d18 <quorem+0x1a8>
 c003d30:	e58a5010 	str	r5, [sl, #16]
 c003d34:	e1a00006 	mov	r0, r6
 c003d38:	e8bd4ff8 	pop	{r3, r4, r5, r6, r7, r8, r9, sl, fp, lr}
 c003d3c:	e12fff1e 	bx	lr

0c003d40 <_dtoa_r>:
 c003d40:	e92d4ff0 	push	{r4, r5, r6, r7, r8, r9, sl, fp, lr}
 c003d44:	e5901040 	ldr	r1, [r0, #64]	; 0x40
 c003d48:	e24dd08c 	sub	sp, sp, #140	; 0x8c
 c003d4c:	e3510000 	cmp	r1, #0
 c003d50:	e1a04000 	mov	r4, r0
 c003d54:	e28d80bc 	add	r8, sp, #188	; 0xbc
 c003d58:	e8980900 	ldm	r8, {r8, fp}
 c003d5c:	e1a05002 	mov	r5, r2
 c003d60:	e1a06003 	mov	r6, r3
 c003d64:	0a000007 	beq	c003d88 <_dtoa_r+0x48>
 c003d68:	e5903044 	ldr	r3, [r0, #68]	; 0x44
 c003d6c:	e3a02001 	mov	r2, #1
 c003d70:	e1a02312 	lsl	r2, r2, r3
 c003d74:	e5813004 	str	r3, [r1, #4]
 c003d78:	e5812008 	str	r2, [r1, #8]
 c003d7c:	eb00083b 	bl	c005e70 <_Bfree>
 c003d80:	e3a03000 	mov	r3, #0
 c003d84:	e5843040 	str	r3, [r4, #64]	; 0x40
 c003d88:	e2567000 	subs	r7, r6, #0
 c003d8c:	b3a03001 	movlt	r3, #1
 c003d90:	a3a03000 	movge	r3, #0
 c003d94:	b5883000 	strlt	r3, [r8]
 c003d98:	a5883000 	strge	r3, [r8]
 c003d9c:	e59f34e0 	ldr	r3, [pc, #1248]	; c004284 <_dtoa_r+0x544>
 c003da0:	b3c77102 	biclt	r7, r7, #-2147483648	; 0x80000000
 c003da4:	e59f24d8 	ldr	r2, [pc, #1240]	; c004284 <_dtoa_r+0x544>
 c003da8:	e0073003 	and	r3, r7, r3
 c003dac:	b1a06007 	movlt	r6, r7
 c003db0:	e1530002 	cmp	r3, r2
 c003db4:	0a000016 	beq	c003e14 <_dtoa_r+0xd4>
 c003db8:	e3a03000 	mov	r3, #0
 c003dbc:	e1a00005 	mov	r0, r5
 c003dc0:	e1a01006 	mov	r1, r6
 c003dc4:	e3a02000 	mov	r2, #0
 c003dc8:	eb001707 	bl	c0099ec <__aeabi_dcmpeq>
 c003dcc:	e3500000 	cmp	r0, #0
 c003dd0:	e3a03001 	mov	r3, #1
 c003dd4:	13a03000 	movne	r3, #0
 c003dd8:	e31300ff 	tst	r3, #255	; 0xff
 c003ddc:	e1a09005 	mov	r9, r5
 c003de0:	e1a0a006 	mov	sl, r6
 c003de4:	1a000018 	bne	c003e4c <_dtoa_r+0x10c>
 c003de8:	e59d20b8 	ldr	r2, [sp, #184]	; 0xb8
 c003dec:	e35b0000 	cmp	fp, #0
 c003df0:	e3a03001 	mov	r3, #1
 c003df4:	e5823000 	str	r3, [r2]
 c003df8:	059f0450 	ldreq	r0, [pc, #1104]	; c004250 <_dtoa_r+0x510>
 c003dfc:	159f0450 	ldrne	r0, [pc, #1104]	; c004254 <_dtoa_r+0x514>
 c003e00:	158b0000 	strne	r0, [fp]
 c003e04:	12400001 	subne	r0, r0, #1
 c003e08:	e28dd08c 	add	sp, sp, #140	; 0x8c
 c003e0c:	e8bd4ff0 	pop	{r4, r5, r6, r7, r8, r9, sl, fp, lr}
 c003e10:	e12fff1e 	bx	lr
 c003e14:	e59f343c 	ldr	r3, [pc, #1084]	; c004258 <_dtoa_r+0x518>
 c003e18:	e59d10b8 	ldr	r1, [sp, #184]	; 0xb8
 c003e1c:	e3550000 	cmp	r5, #0
 c003e20:	e5813000 	str	r3, [r1]
 c003e24:	159f0430 	ldrne	r0, [pc, #1072]	; c00425c <_dtoa_r+0x51c>
 c003e28:	0a000086 	beq	c004048 <_dtoa_r+0x308>
 c003e2c:	e35b0000 	cmp	fp, #0
 c003e30:	0afffff4 	beq	c003e08 <_dtoa_r+0xc8>
 c003e34:	e5d03003 	ldrb	r3, [r0, #3]
 c003e38:	e3530000 	cmp	r3, #0
 c003e3c:	e2803003 	add	r3, r0, #3
 c003e40:	12803008 	addne	r3, r0, #8
 c003e44:	e58b3000 	str	r3, [fp]
 c003e48:	eaffffee 	b	c003e08 <_dtoa_r+0xc8>
 c003e4c:	e28d1080 	add	r1, sp, #128	; 0x80
 c003e50:	e1a03006 	mov	r3, r6
 c003e54:	e58d1000 	str	r1, [sp]
 c003e58:	e1a00004 	mov	r0, r4
 c003e5c:	e28d1084 	add	r1, sp, #132	; 0x84
 c003e60:	e1a02005 	mov	r2, r5
 c003e64:	e58d1004 	str	r1, [sp, #4]
 c003e68:	eb000a69 	bl	c006814 <__d2b>
 c003e6c:	e1a03087 	lsl	r3, r7, #1
 c003e70:	e1b03aa3 	lsrs	r3, r3, #21
 c003e74:	e1a08000 	mov	r8, r0
 c003e78:	1a00007a 	bne	c004068 <_dtoa_r+0x328>
 c003e7c:	e28d3080 	add	r3, sp, #128	; 0x80
 c003e80:	e8930208 	ldm	r3, {r3, r9}
 c003e84:	e0893003 	add	r3, r9, r3
 c003e88:	e2833e43 	add	r3, r3, #1072	; 0x430
 c003e8c:	e283a002 	add	sl, r3, #2
 c003e90:	e35a0020 	cmp	sl, #32
 c003e94:	c243301e 	subgt	r3, r3, #30
 c003e98:	c1a03335 	lsrgt	r3, r5, r3
 c003e9c:	c26a0040 	rsbgt	r0, sl, #64	; 0x40
 c003ea0:	d26a0020 	rsble	r0, sl, #32
 c003ea4:	c1830017 	orrgt	r0, r3, r7, lsl r0
 c003ea8:	d1a00015 	lslle	r0, r5, r0
 c003eac:	eb001534 	bl	c009384 <__aeabi_ui2d>
 c003eb0:	e1a03001 	mov	r3, r1
 c003eb4:	e1a02000 	mov	r2, r0
 c003eb8:	e58d2038 	str	r2, [sp, #56]	; 0x38
 c003ebc:	e58d303c 	str	r3, [sp, #60]	; 0x3c
 c003ec0:	e59d303c 	ldr	r3, [sp, #60]	; 0x3c
 c003ec4:	e3a0c001 	mov	ip, #1
 c003ec8:	e243361f 	sub	r3, r3, #32505856	; 0x1f00000
 c003ecc:	e24aae43 	sub	sl, sl, #1072	; 0x430
 c003ed0:	e58d303c 	str	r3, [sp, #60]	; 0x3c
 c003ed4:	e58dc068 	str	ip, [sp, #104]	; 0x68
 c003ed8:	e24aa003 	sub	sl, sl, #3
 c003edc:	e3a02000 	mov	r2, #0
 c003ee0:	e59f3378 	ldr	r3, [pc, #888]	; c004260 <_dtoa_r+0x520>
 c003ee4:	e28d1038 	add	r1, sp, #56	; 0x38
 c003ee8:	e8910003 	ldm	r1, {r0, r1}
 c003eec:	eb00145f 	bl	c009070 <__aeabi_dsub>
 c003ef0:	e28f3d0d 	add	r3, pc, #832	; 0x340
 c003ef4:	e893000c 	ldm	r3, {r2, r3}
 c003ef8:	eb001561 	bl	c009484 <__aeabi_dmul>
 c003efc:	e28f3fcf 	add	r3, pc, #828	; 0x33c
 c003f00:	e893000c 	ldm	r3, {r2, r3}
 c003f04:	eb00145a 	bl	c009074 <__adddf3>
 c003f08:	e58d0020 	str	r0, [sp, #32]
 c003f0c:	e58d1024 	str	r1, [sp, #36]	; 0x24
 c003f10:	e1a0000a 	mov	r0, sl
 c003f14:	eb001523 	bl	c0093a8 <__aeabi_i2d>
 c003f18:	e28f3fca 	add	r3, pc, #808	; 0x328
 c003f1c:	e893000c 	ldm	r3, {r2, r3}
 c003f20:	eb001557 	bl	c009484 <__aeabi_dmul>
 c003f24:	e1a02000 	mov	r2, r0
 c003f28:	e1a03001 	mov	r3, r1
 c003f2c:	e28d1020 	add	r1, sp, #32
 c003f30:	e8910003 	ldm	r1, {r0, r1}
 c003f34:	eb00144e 	bl	c009074 <__adddf3>
 c003f38:	e58d0020 	str	r0, [sp, #32]
 c003f3c:	e58d1024 	str	r1, [sp, #36]	; 0x24
 c003f40:	eb0016c7 	bl	c009a64 <__aeabi_d2iz>
 c003f44:	e3a02000 	mov	r2, #0
 c003f48:	e1a07000 	mov	r7, r0
 c003f4c:	e3a03000 	mov	r3, #0
 c003f50:	e28d1020 	add	r1, sp, #32
 c003f54:	e8910003 	ldm	r1, {r0, r1}
 c003f58:	eb0016a9 	bl	c009a04 <__aeabi_dcmplt>
 c003f5c:	e3500000 	cmp	r0, #0
 c003f60:	0a000006 	beq	c003f80 <_dtoa_r+0x240>
 c003f64:	e1a00007 	mov	r0, r7
 c003f68:	eb00150e 	bl	c0093a8 <__aeabi_i2d>
 c003f6c:	e28d3020 	add	r3, sp, #32
 c003f70:	e893000c 	ldm	r3, {r2, r3}
 c003f74:	eb00169c 	bl	c0099ec <__aeabi_dcmpeq>
 c003f78:	e3500000 	cmp	r0, #0
 c003f7c:	02477001 	subeq	r7, r7, #1
 c003f80:	e3570016 	cmp	r7, #22
 c003f84:	83a02001 	movhi	r2, #1
 c003f88:	858d2064 	strhi	r2, [sp, #100]	; 0x64
 c003f8c:	8a00000b 	bhi	c003fc0 <_dtoa_r+0x280>
 c003f90:	e59f32e0 	ldr	r3, [pc, #736]	; c004278 <_dtoa_r+0x538>
 c003f94:	e0833187 	add	r3, r3, r7, lsl #3
 c003f98:	e8930003 	ldm	r3, {r0, r1}
 c003f9c:	e1a02005 	mov	r2, r5
 c003fa0:	e1a03006 	mov	r3, r6
 c003fa4:	eb0016a8 	bl	c009a4c <__aeabi_dcmpgt>
 c003fa8:	e3500000 	cmp	r0, #0
 c003fac:	13a01000 	movne	r1, #0
 c003fb0:	03a03000 	moveq	r3, #0
 c003fb4:	158d1064 	strne	r1, [sp, #100]	; 0x64
 c003fb8:	058d3064 	streq	r3, [sp, #100]	; 0x64
 c003fbc:	12477001 	subne	r7, r7, #1
 c003fc0:	e2499001 	sub	r9, r9, #1
 c003fc4:	e059900a 	subs	r9, r9, sl
 c003fc8:	42699000 	rsbmi	r9, r9, #0
 c003fcc:	43a0c000 	movmi	ip, #0
 c003fd0:	53a01000 	movpl	r1, #0
 c003fd4:	458d9044 	strmi	r9, [sp, #68]	; 0x44
 c003fd8:	458dc034 	strmi	ip, [sp, #52]	; 0x34
 c003fdc:	558d9034 	strpl	r9, [sp, #52]	; 0x34
 c003fe0:	558d1044 	strpl	r1, [sp, #68]	; 0x44
 c003fe4:	e3570000 	cmp	r7, #0
 c003fe8:	ba000203 	blt	c0047fc <_dtoa_r+0xabc>
 c003fec:	e59d2034 	ldr	r2, [sp, #52]	; 0x34
 c003ff0:	e3a03000 	mov	r3, #0
 c003ff4:	e0822007 	add	r2, r2, r7
 c003ff8:	e58d2034 	str	r2, [sp, #52]	; 0x34
 c003ffc:	e58d7054 	str	r7, [sp, #84]	; 0x54
 c004000:	e58d304c 	str	r3, [sp, #76]	; 0x4c
 c004004:	e59d30b0 	ldr	r3, [sp, #176]	; 0xb0
 c004008:	e3530009 	cmp	r3, #9
 c00400c:	8a000025 	bhi	c0040a8 <_dtoa_r+0x368>
 c004010:	e3530005 	cmp	r3, #5
 c004014:	c2433004 	subgt	r3, r3, #4
 c004018:	c58d30b0 	strgt	r3, [sp, #176]	; 0xb0
 c00401c:	e59dc0b0 	ldr	ip, [sp, #176]	; 0xb0
 c004020:	e24c3002 	sub	r3, ip, #2
 c004024:	c3a0a000 	movgt	sl, #0
 c004028:	d3a0a001 	movle	sl, #1
 c00402c:	e3530003 	cmp	r3, #3
 c004030:	979ff103 	ldrls	pc, [pc, r3, lsl #2]
 c004034:	ea0002d3 	b	c004b88 <_dtoa_r+0xe48>
 c004038:	0c004b38 	.word	0x0c004b38
 c00403c:	0c004b7c 	.word	0x0c004b7c
 c004040:	0c004b70 	.word	0x0c004b70
 c004044:	0c004ad4 	.word	0x0c004ad4
 c004048:	e3c704ff 	bic	r0, r7, #-16777216	; 0xff000000
 c00404c:	e3c0060f 	bic	r0, r0, #15728640	; 0xf00000
 c004050:	e59f3204 	ldr	r3, [pc, #516]	; c00425c <_dtoa_r+0x51c>
 c004054:	e59f2208 	ldr	r2, [pc, #520]	; c004264 <_dtoa_r+0x524>
 c004058:	e3500000 	cmp	r0, #0
 c00405c:	01a00002 	moveq	r0, r2
 c004060:	11a00003 	movne	r0, r3
 c004064:	eaffff70 	b	c003e2c <_dtoa_r+0xec>
 c004068:	e1a01005 	mov	r1, r5
 c00406c:	e1a02006 	mov	r2, r6
 c004070:	e58d1038 	str	r1, [sp, #56]	; 0x38
 c004074:	e58d203c 	str	r2, [sp, #60]	; 0x3c
 c004078:	e59dc03c 	ldr	ip, [sp, #60]	; 0x3c
 c00407c:	e3cc24ff 	bic	r2, ip, #-16777216	; 0xff000000
 c004080:	e3c2260f 	bic	r2, r2, #15728640	; 0xf00000
 c004084:	e38225ff 	orr	r2, r2, #1069547520	; 0x3fc00000
 c004088:	e2433fff 	sub	r3, r3, #1020	; 0x3fc
 c00408c:	e3822603 	orr	r2, r2, #3145728	; 0x300000
 c004090:	e3a01000 	mov	r1, #0
 c004094:	e58d203c 	str	r2, [sp, #60]	; 0x3c
 c004098:	e243a003 	sub	sl, r3, #3
 c00409c:	e59d9084 	ldr	r9, [sp, #132]	; 0x84
 c0040a0:	e58d1068 	str	r1, [sp, #104]	; 0x68
 c0040a4:	eaffff8c 	b	c003edc <_dtoa_r+0x19c>
 c0040a8:	e3a01000 	mov	r1, #0
 c0040ac:	e3e02000 	mvn	r2, #0
 c0040b0:	e3a03001 	mov	r3, #1
 c0040b4:	e58d10b0 	str	r1, [sp, #176]	; 0xb0
 c0040b8:	e58d2048 	str	r2, [sp, #72]	; 0x48
 c0040bc:	e58d3050 	str	r3, [sp, #80]	; 0x50
 c0040c0:	e58d2040 	str	r2, [sp, #64]	; 0x40
 c0040c4:	e58d10b4 	str	r1, [sp, #180]	; 0xb4
 c0040c8:	e1a0a001 	mov	sl, r1
 c0040cc:	e3a01000 	mov	r1, #0
 c0040d0:	e5841044 	str	r1, [r4, #68]	; 0x44
 c0040d4:	e1a00004 	mov	r0, r4
 c0040d8:	eb000742 	bl	c005de8 <_Balloc>
 c0040dc:	e35a0000 	cmp	sl, #0
 c0040e0:	e58d0020 	str	r0, [sp, #32]
 c0040e4:	e5840040 	str	r0, [r4, #64]	; 0x40
 c0040e8:	0a0000ad 	beq	c0043a4 <_dtoa_r+0x664>
 c0040ec:	e1a01005 	mov	r1, r5
 c0040f0:	e1a02006 	mov	r2, r6
 c0040f4:	e3570000 	cmp	r7, #0
 c0040f8:	e58d5028 	str	r5, [sp, #40]	; 0x28
 c0040fc:	e58d602c 	str	r6, [sp, #44]	; 0x2c
 c004100:	e58d1038 	str	r1, [sp, #56]	; 0x38
 c004104:	e58d203c 	str	r2, [sp, #60]	; 0x3c
 c004108:	da00031d 	ble	c004d84 <_dtoa_r+0x1044>
 c00410c:	e59f3164 	ldr	r3, [pc, #356]	; c004278 <_dtoa_r+0x538>
 c004110:	e207200f 	and	r2, r7, #15
 c004114:	e0833182 	add	r3, r3, r2, lsl #3
 c004118:	e1a05247 	asr	r5, r7, #4
 c00411c:	e8930006 	ldm	r3, {r1, r2}
 c004120:	e3150010 	tst	r5, #16
 c004124:	e58d1058 	str	r1, [sp, #88]	; 0x58
 c004128:	e58d205c 	str	r2, [sp, #92]	; 0x5c
 c00412c:	03a0a002 	moveq	sl, #2
 c004130:	1a0001b9 	bne	c00481c <_dtoa_r+0xadc>
 c004134:	e3550000 	cmp	r5, #0
 c004138:	0a00000c 	beq	c004170 <_dtoa_r+0x430>
 c00413c:	e59f6130 	ldr	r6, [pc, #304]	; c004274 <_dtoa_r+0x534>
 c004140:	e28d1058 	add	r1, sp, #88	; 0x58
 c004144:	e8910003 	ldm	r1, {r0, r1}
 c004148:	e3150001 	tst	r5, #1
 c00414c:	0a000002 	beq	c00415c <_dtoa_r+0x41c>
 c004150:	e896000c 	ldm	r6, {r2, r3}
 c004154:	eb0014ca 	bl	c009484 <__aeabi_dmul>
 c004158:	e28aa001 	add	sl, sl, #1
 c00415c:	e1b050c5 	asrs	r5, r5, #1
 c004160:	e2866008 	add	r6, r6, #8
 c004164:	1afffff7 	bne	c004148 <_dtoa_r+0x408>
 c004168:	e58d0058 	str	r0, [sp, #88]	; 0x58
 c00416c:	e58d105c 	str	r1, [sp, #92]	; 0x5c
 c004170:	e28d1028 	add	r1, sp, #40	; 0x28
 c004174:	e8910003 	ldm	r1, {r0, r1}
 c004178:	e28d3058 	add	r3, sp, #88	; 0x58
 c00417c:	e893000c 	ldm	r3, {r2, r3}
 c004180:	eb001563 	bl	c009714 <__aeabi_ddiv>
 c004184:	e58d0028 	str	r0, [sp, #40]	; 0x28
 c004188:	e58d102c 	str	r1, [sp, #44]	; 0x2c
 c00418c:	e59d2064 	ldr	r2, [sp, #100]	; 0x64
 c004190:	e3520000 	cmp	r2, #0
 c004194:	0a00003b 	beq	c004288 <_dtoa_r+0x548>
 c004198:	e59f30d0 	ldr	r3, [pc, #208]	; c004270 <_dtoa_r+0x530>
 c00419c:	e28d1028 	add	r1, sp, #40	; 0x28
 c0041a0:	e8910003 	ldm	r1, {r0, r1}
 c0041a4:	e3a02000 	mov	r2, #0
 c0041a8:	eb001615 	bl	c009a04 <__aeabi_dcmplt>
 c0041ac:	e59dc040 	ldr	ip, [sp, #64]	; 0x40
 c0041b0:	e3500000 	cmp	r0, #0
 c0041b4:	e3a03001 	mov	r3, #1
 c0041b8:	03a03000 	moveq	r3, #0
 c0041bc:	e35c0000 	cmp	ip, #0
 c0041c0:	d3a03000 	movle	r3, #0
 c0041c4:	c2033001 	andgt	r3, r3, #1
 c0041c8:	e3530000 	cmp	r3, #0
 c0041cc:	0a00002d 	beq	c004288 <_dtoa_r+0x548>
 c0041d0:	e59d1048 	ldr	r1, [sp, #72]	; 0x48
 c0041d4:	e3510000 	cmp	r1, #0
 c0041d8:	da00006d 	ble	c004394 <_dtoa_r+0x654>
 c0041dc:	e3a02000 	mov	r2, #0
 c0041e0:	e59f3094 	ldr	r3, [pc, #148]	; c00427c <_dtoa_r+0x53c>
 c0041e4:	e28d1028 	add	r1, sp, #40	; 0x28
 c0041e8:	e8910003 	ldm	r1, {r0, r1}
 c0041ec:	eb0014a4 	bl	c009484 <__aeabi_dmul>
 c0041f0:	e58d0028 	str	r0, [sp, #40]	; 0x28
 c0041f4:	e58d102c 	str	r1, [sp, #44]	; 0x2c
 c0041f8:	e28a0001 	add	r0, sl, #1
 c0041fc:	eb001469 	bl	c0093a8 <__aeabi_i2d>
 c004200:	e1a02000 	mov	r2, r0
 c004204:	e1a03001 	mov	r3, r1
 c004208:	e28d1028 	add	r1, sp, #40	; 0x28
 c00420c:	e8910003 	ldm	r1, {r0, r1}
 c004210:	eb00149b 	bl	c009484 <__aeabi_dmul>
 c004214:	e3a02000 	mov	r2, #0
 c004218:	e59f3048 	ldr	r3, [pc, #72]	; c004268 <_dtoa_r+0x528>
 c00421c:	eb001394 	bl	c009074 <__adddf3>
 c004220:	e2472001 	sub	r2, r7, #1
 c004224:	e1a09000 	mov	r9, r0
 c004228:	e58d2058 	str	r2, [sp, #88]	; 0x58
 c00422c:	e241a50d 	sub	sl, r1, #54525952	; 0x3400000
 c004230:	e59dc048 	ldr	ip, [sp, #72]	; 0x48
 c004234:	ea0001b6 	b	c004914 <_dtoa_r+0xbd4>
 c004238:	636f4361 	.word	0x636f4361
 c00423c:	3fd287a7 	.word	0x3fd287a7
 c004240:	8b60c8b3 	.word	0x8b60c8b3
 c004244:	3fc68a28 	.word	0x3fc68a28
 c004248:	509f79fb 	.word	0x509f79fb
 c00424c:	3fd34413 	.word	0x3fd34413
 c004250:	0c00afdc 	.word	0x0c00afdc
 c004254:	0c00afdd 	.word	0x0c00afdd
 c004258:	0000270f 	.word	0x0000270f
 c00425c:	0c00afec 	.word	0x0c00afec
 c004260:	3ff80000 	.word	0x3ff80000
 c004264:	0c00afe0 	.word	0x0c00afe0
 c004268:	401c0000 	.word	0x401c0000
 c00426c:	40140000 	.word	0x40140000
 c004270:	3ff00000 	.word	0x3ff00000
 c004274:	0c00af28 	.word	0x0c00af28
 c004278:	0c00ae60 	.word	0x0c00ae60
 c00427c:	40240000 	.word	0x40240000
 c004280:	3fe00000 	.word	0x3fe00000
 c004284:	7ff00000 	.word	0x7ff00000
 c004288:	e1a0000a 	mov	r0, sl
 c00428c:	eb001445 	bl	c0093a8 <__aeabi_i2d>
 c004290:	e28d3028 	add	r3, sp, #40	; 0x28
 c004294:	e893000c 	ldm	r3, {r2, r3}
 c004298:	eb001479 	bl	c009484 <__aeabi_dmul>
 c00429c:	e51f303c 	ldr	r3, [pc, #-60]	; c004268 <_dtoa_r+0x528>
 c0042a0:	e3a02000 	mov	r2, #0
 c0042a4:	eb001372 	bl	c009074 <__adddf3>
 c0042a8:	e59d3040 	ldr	r3, [sp, #64]	; 0x40
 c0042ac:	e241550d 	sub	r5, r1, #54525952	; 0x3400000
 c0042b0:	e3530000 	cmp	r3, #0
 c0042b4:	e1a09000 	mov	r9, r0
 c0042b8:	e1a0a005 	mov	sl, r5
 c0042bc:	1a000192 	bne	c00490c <_dtoa_r+0xbcc>
 c0042c0:	e3a02000 	mov	r2, #0
 c0042c4:	e51f3060 	ldr	r3, [pc, #-96]	; c00426c <_dtoa_r+0x52c>
 c0042c8:	e28d1028 	add	r1, sp, #40	; 0x28
 c0042cc:	e8910003 	ldm	r1, {r0, r1}
 c0042d0:	eb001366 	bl	c009070 <__aeabi_dsub>
 c0042d4:	e1a02009 	mov	r2, r9
 c0042d8:	e1a03005 	mov	r3, r5
 c0042dc:	e58d0028 	str	r0, [sp, #40]	; 0x28
 c0042e0:	e58d102c 	str	r1, [sp, #44]	; 0x2c
 c0042e4:	eb0015d8 	bl	c009a4c <__aeabi_dcmpgt>
 c0042e8:	e3500000 	cmp	r0, #0
 c0042ec:	1a000183 	bne	c004900 <_dtoa_r+0xbc0>
 c0042f0:	e1a02009 	mov	r2, r9
 c0042f4:	e2853102 	add	r3, r5, #-2147483648	; 0x80000000
 c0042f8:	e28d1028 	add	r1, sp, #40	; 0x28
 c0042fc:	e8910003 	ldm	r1, {r0, r1}
 c004300:	eb0015bf 	bl	c009a04 <__aeabi_dcmplt>
 c004304:	e3500000 	cmp	r0, #0
 c004308:	0a000021 	beq	c004394 <_dtoa_r+0x654>
 c00430c:	e59d9040 	ldr	r9, [sp, #64]	; 0x40
 c004310:	e58d9038 	str	r9, [sp, #56]	; 0x38
 c004314:	e59d20b4 	ldr	r2, [sp, #180]	; 0xb4
 c004318:	e59d5020 	ldr	r5, [sp, #32]
 c00431c:	e1e07002 	mvn	r7, r2
 c004320:	e3a0a000 	mov	sl, #0
 c004324:	e1a00004 	mov	r0, r4
 c004328:	e1a01009 	mov	r1, r9
 c00432c:	eb0006cf 	bl	c005e70 <_Bfree>
 c004330:	e59d3038 	ldr	r3, [sp, #56]	; 0x38
 c004334:	e3530000 	cmp	r3, #0
 c004338:	0a000005 	beq	c004354 <_dtoa_r+0x614>
 c00433c:	e15a0003 	cmp	sl, r3
 c004340:	135a0000 	cmpne	sl, #0
 c004344:	1a000282 	bne	c004d54 <_dtoa_r+0x1014>
 c004348:	e1a00004 	mov	r0, r4
 c00434c:	e59d1038 	ldr	r1, [sp, #56]	; 0x38
 c004350:	eb0006c6 	bl	c005e70 <_Bfree>
 c004354:	e1a00004 	mov	r0, r4
 c004358:	e1a01008 	mov	r1, r8
 c00435c:	eb0006c3 	bl	c005e70 <_Bfree>
 c004360:	e3a03000 	mov	r3, #0
 c004364:	e5c53000 	strb	r3, [r5]
 c004368:	e59dc0b8 	ldr	ip, [sp, #184]	; 0xb8
 c00436c:	e2877001 	add	r7, r7, #1
 c004370:	e35b0000 	cmp	fp, #0
 c004374:	e58c7000 	str	r7, [ip]
 c004378:	e59d0020 	ldr	r0, [sp, #32]
 c00437c:	158b5000 	strne	r5, [fp]
 c004380:	eafffea0 	b	c003e08 <_dtoa_r+0xc8>
 c004384:	e59d707c 	ldr	r7, [sp, #124]	; 0x7c
 c004388:	e59d806c 	ldr	r8, [sp, #108]	; 0x6c
 c00438c:	e59d4028 	ldr	r4, [sp, #40]	; 0x28
 c004390:	e59db070 	ldr	fp, [sp, #112]	; 0x70
 c004394:	e28d2038 	add	r2, sp, #56	; 0x38
 c004398:	e8920006 	ldm	r2, {r1, r2}
 c00439c:	e1a05001 	mov	r5, r1
 c0043a0:	e1a06002 	mov	r6, r2
 c0043a4:	e59d3080 	ldr	r3, [sp, #128]	; 0x80
 c0043a8:	e357000e 	cmp	r7, #14
 c0043ac:	c3a09000 	movgt	r9, #0
 c0043b0:	d3a09001 	movle	r9, #1
 c0043b4:	e3530000 	cmp	r3, #0
 c0043b8:	b3a09000 	movlt	r9, #0
 c0043bc:	e3590000 	cmp	r9, #0
 c0043c0:	0a00008f 	beq	c004604 <_dtoa_r+0x8c4>
 c0043c4:	e59d20b4 	ldr	r2, [sp, #180]	; 0xb4
 c0043c8:	e59d3040 	ldr	r3, [sp, #64]	; 0x40
 c0043cc:	e1a09fa2 	lsr	r9, r2, #31
 c0043d0:	e3530000 	cmp	r3, #0
 c0043d4:	c3a09000 	movgt	r9, #0
 c0043d8:	d2099001 	andle	r9, r9, #1
 c0043dc:	e51f316c 	ldr	r3, [pc, #-364]	; c004278 <_dtoa_r+0x538>
 c0043e0:	e0833187 	add	r3, r3, r7, lsl #3
 c0043e4:	e8930006 	ldm	r3, {r1, r2}
 c0043e8:	e3590000 	cmp	r9, #0
 c0043ec:	e58d1010 	str	r1, [sp, #16]
 c0043f0:	e58d2014 	str	r2, [sp, #20]
 c0043f4:	1a000134 	bne	c0048cc <_dtoa_r+0xb8c>
 c0043f8:	e1a03002 	mov	r3, r2
 c0043fc:	e1a00005 	mov	r0, r5
 c004400:	e1a02001 	mov	r2, r1
 c004404:	e1a01006 	mov	r1, r6
 c004408:	eb0014c1 	bl	c009714 <__aeabi_ddiv>
 c00440c:	eb001594 	bl	c009a64 <__aeabi_d2iz>
 c004410:	e1a0a000 	mov	sl, r0
 c004414:	eb0013e3 	bl	c0093a8 <__aeabi_i2d>
 c004418:	e28d3010 	add	r3, sp, #16
 c00441c:	e893000c 	ldm	r3, {r2, r3}
 c004420:	eb001417 	bl	c009484 <__aeabi_dmul>
 c004424:	e1a02000 	mov	r2, r0
 c004428:	e1a03001 	mov	r3, r1
 c00442c:	e1a00005 	mov	r0, r5
 c004430:	e1a01006 	mov	r1, r6
 c004434:	eb00130d 	bl	c009070 <__aeabi_dsub>
 c004438:	e59d2040 	ldr	r2, [sp, #64]	; 0x40
 c00443c:	e59d5020 	ldr	r5, [sp, #32]
 c004440:	e28a3030 	add	r3, sl, #48	; 0x30
 c004444:	e3520001 	cmp	r2, #1
 c004448:	e58d0018 	str	r0, [sp, #24]
 c00444c:	e58d101c 	str	r1, [sp, #28]
 c004450:	e4c53001 	strb	r3, [r5], #1
 c004454:	0a000040 	beq	c00455c <_dtoa_r+0x81c>
 c004458:	e3a02000 	mov	r2, #0
 c00445c:	e51f31e8 	ldr	r3, [pc, #-488]	; c00427c <_dtoa_r+0x53c>
 c004460:	eb001407 	bl	c009484 <__aeabi_dmul>
 c004464:	e3a03000 	mov	r3, #0
 c004468:	e3a02000 	mov	r2, #0
 c00446c:	e58d0018 	str	r0, [sp, #24]
 c004470:	e58d101c 	str	r1, [sp, #28]
 c004474:	eb00155c 	bl	c0099ec <__aeabi_dcmpeq>
 c004478:	e3500000 	cmp	r0, #0
 c00447c:	e3a03001 	mov	r3, #1
 c004480:	11a03009 	movne	r3, r9
 c004484:	e31300ff 	tst	r3, #255	; 0xff
 c004488:	0affffb1 	beq	c004354 <_dtoa_r+0x614>
 c00448c:	e59d1040 	ldr	r1, [sp, #64]	; 0x40
 c004490:	e59dc020 	ldr	ip, [sp, #32]
 c004494:	e1a06005 	mov	r6, r5
 c004498:	e58d8034 	str	r8, [sp, #52]	; 0x34
 c00449c:	e08c9001 	add	r9, ip, r1
 c0044a0:	e1a08004 	mov	r8, r4
 c0044a4:	e58d7040 	str	r7, [sp, #64]	; 0x40
 c0044a8:	e28d5018 	add	r5, sp, #24
 c0044ac:	e8950030 	ldm	r5, {r4, r5}
 c0044b0:	ea00000a 	b	c0044e0 <_dtoa_r+0x7a0>
 c0044b4:	eb0013f2 	bl	c009484 <__aeabi_dmul>
 c0044b8:	e3a03000 	mov	r3, #0
 c0044bc:	e3a02000 	mov	r2, #0
 c0044c0:	e1a04000 	mov	r4, r0
 c0044c4:	e1a05001 	mov	r5, r1
 c0044c8:	eb001547 	bl	c0099ec <__aeabi_dcmpeq>
 c0044cc:	e3500000 	cmp	r0, #0
 c0044d0:	e3a03001 	mov	r3, #1
 c0044d4:	13a03000 	movne	r3, #0
 c0044d8:	e31300ff 	tst	r3, #255	; 0xff
 c0044dc:	0a000316 	beq	c00513c <_dtoa_r+0x13fc>
 c0044e0:	e28d3010 	add	r3, sp, #16
 c0044e4:	e893000c 	ldm	r3, {r2, r3}
 c0044e8:	e1a00004 	mov	r0, r4
 c0044ec:	e1a01005 	mov	r1, r5
 c0044f0:	eb001487 	bl	c009714 <__aeabi_ddiv>
 c0044f4:	eb00155a 	bl	c009a64 <__aeabi_d2iz>
 c0044f8:	e1a0a000 	mov	sl, r0
 c0044fc:	eb0013a9 	bl	c0093a8 <__aeabi_i2d>
 c004500:	e28d3010 	add	r3, sp, #16
 c004504:	e893000c 	ldm	r3, {r2, r3}
 c004508:	eb0013dd 	bl	c009484 <__aeabi_dmul>
 c00450c:	e1a02000 	mov	r2, r0
 c004510:	e1a03001 	mov	r3, r1
 c004514:	e1a00004 	mov	r0, r4
 c004518:	e1a01005 	mov	r1, r5
 c00451c:	eb0012d3 	bl	c009070 <__aeabi_dsub>
 c004520:	e28ac030 	add	ip, sl, #48	; 0x30
 c004524:	e4c6c001 	strb	ip, [r6], #1
 c004528:	e1560009 	cmp	r6, r9
 c00452c:	e1a04000 	mov	r4, r0
 c004530:	e1a05001 	mov	r5, r1
 c004534:	e3a02000 	mov	r2, #0
 c004538:	e51f32c4 	ldr	r3, [pc, #-708]	; c00427c <_dtoa_r+0x53c>
 c00453c:	e1a07006 	mov	r7, r6
 c004540:	1affffdb 	bne	c0044b4 <_dtoa_r+0x774>
 c004544:	e58d4018 	str	r4, [sp, #24]
 c004548:	e58d501c 	str	r5, [sp, #28]
 c00454c:	e59d7040 	ldr	r7, [sp, #64]	; 0x40
 c004550:	e1a04008 	mov	r4, r8
 c004554:	e59d8034 	ldr	r8, [sp, #52]	; 0x34
 c004558:	e1a05006 	mov	r5, r6
 c00455c:	e28d1018 	add	r1, sp, #24
 c004560:	e8910003 	ldm	r1, {r0, r1}
 c004564:	e1a02000 	mov	r2, r0
 c004568:	e1a03001 	mov	r3, r1
 c00456c:	eb0012c0 	bl	c009074 <__adddf3>
 c004570:	e58d0018 	str	r0, [sp, #24]
 c004574:	e58d101c 	str	r1, [sp, #28]
 c004578:	e28d3018 	add	r3, sp, #24
 c00457c:	e893000c 	ldm	r3, {r2, r3}
 c004580:	e28d1010 	add	r1, sp, #16
 c004584:	e8910003 	ldm	r1, {r0, r1}
 c004588:	eb00151d 	bl	c009a04 <__aeabi_dcmplt>
 c00458c:	e3500000 	cmp	r0, #0
 c004590:	1a000008 	bne	c0045b8 <_dtoa_r+0x878>
 c004594:	e28d1010 	add	r1, sp, #16
 c004598:	e8910003 	ldm	r1, {r0, r1}
 c00459c:	e28d3018 	add	r3, sp, #24
 c0045a0:	e893000c 	ldm	r3, {r2, r3}
 c0045a4:	eb001510 	bl	c0099ec <__aeabi_dcmpeq>
 c0045a8:	e3500000 	cmp	r0, #0
 c0045ac:	0affff68 	beq	c004354 <_dtoa_r+0x614>
 c0045b0:	e31a0001 	tst	sl, #1
 c0045b4:	0affff66 	beq	c004354 <_dtoa_r+0x614>
 c0045b8:	e58d7058 	str	r7, [sp, #88]	; 0x58
 c0045bc:	e59d0020 	ldr	r0, [sp, #32]
 c0045c0:	e1a03005 	mov	r3, r5
 c0045c4:	e5531001 	ldrb	r1, [r3, #-1]
 c0045c8:	e2432001 	sub	r2, r3, #1
 c0045cc:	e3510039 	cmp	r1, #57	; 0x39
 c0045d0:	e1a05003 	mov	r5, r3
 c0045d4:	e1a03002 	mov	r3, r2
 c0045d8:	1a0002f4 	bne	c0051b0 <_dtoa_r+0x1470>
 c0045dc:	e1530000 	cmp	r3, r0
 c0045e0:	1afffff7 	bne	c0045c4 <_dtoa_r+0x884>
 c0045e4:	e59d3058 	ldr	r3, [sp, #88]	; 0x58
 c0045e8:	e59dc020 	ldr	ip, [sp, #32]
 c0045ec:	e2837001 	add	r7, r3, #1
 c0045f0:	e3a01031 	mov	r1, #49	; 0x31
 c0045f4:	e3a03030 	mov	r3, #48	; 0x30
 c0045f8:	e5cc3000 	strb	r3, [ip]
 c0045fc:	e5c21000 	strb	r1, [r2]
 c004600:	eaffff53 	b	c004354 <_dtoa_r+0x614>
 c004604:	e59d1050 	ldr	r1, [sp, #80]	; 0x50
 c004608:	e3510000 	cmp	r1, #0
 c00460c:	1a00008d 	bne	c004848 <_dtoa_r+0xb08>
 c004610:	e59d3050 	ldr	r3, [sp, #80]	; 0x50
 c004614:	e59d904c 	ldr	r9, [sp, #76]	; 0x4c
 c004618:	e59da044 	ldr	sl, [sp, #68]	; 0x44
 c00461c:	e58d3038 	str	r3, [sp, #56]	; 0x38
 c004620:	e59dc034 	ldr	ip, [sp, #52]	; 0x34
 c004624:	e35c0000 	cmp	ip, #0
 c004628:	c35a0000 	cmpgt	sl, #0
 c00462c:	da000008 	ble	c004654 <_dtoa_r+0x914>
 c004630:	e1a0300c 	mov	r3, ip
 c004634:	e59d1044 	ldr	r1, [sp, #68]	; 0x44
 c004638:	e153000a 	cmp	r3, sl
 c00463c:	a1a0300a 	movge	r3, sl
 c004640:	e0631001 	rsb	r1, r3, r1
 c004644:	e063c00c 	rsb	ip, r3, ip
 c004648:	e58d1044 	str	r1, [sp, #68]	; 0x44
 c00464c:	e58dc034 	str	ip, [sp, #52]	; 0x34
 c004650:	e063a00a 	rsb	sl, r3, sl
 c004654:	e59d204c 	ldr	r2, [sp, #76]	; 0x4c
 c004658:	e3520000 	cmp	r2, #0
 c00465c:	da000017 	ble	c0046c0 <_dtoa_r+0x980>
 c004660:	e59d3050 	ldr	r3, [sp, #80]	; 0x50
 c004664:	e3530000 	cmp	r3, #0
 c004668:	0a0002b8 	beq	c005150 <_dtoa_r+0x1410>
 c00466c:	e3590000 	cmp	r9, #0
 c004670:	da00000f 	ble	c0046b4 <_dtoa_r+0x974>
 c004674:	e59d1038 	ldr	r1, [sp, #56]	; 0x38
 c004678:	e1a02009 	mov	r2, r9
 c00467c:	e1a00004 	mov	r0, r4
 c004680:	eb00072e 	bl	c006340 <__pow5mult>
 c004684:	e58d0038 	str	r0, [sp, #56]	; 0x38
 c004688:	e1a02008 	mov	r2, r8
 c00468c:	e59d1038 	ldr	r1, [sp, #56]	; 0x38
 c004690:	e1a00004 	mov	r0, r4
 c004694:	eb0006af 	bl	c006158 <__multiply>
 c004698:	e1a01008 	mov	r1, r8
 c00469c:	e1a03000 	mov	r3, r0
 c0046a0:	e1a00004 	mov	r0, r4
 c0046a4:	e58d300c 	str	r3, [sp, #12]
 c0046a8:	eb0005f0 	bl	c005e70 <_Bfree>
 c0046ac:	e59d300c 	ldr	r3, [sp, #12]
 c0046b0:	e1a08003 	mov	r8, r3
 c0046b4:	e59dc04c 	ldr	ip, [sp, #76]	; 0x4c
 c0046b8:	e05c2009 	subs	r2, ip, r9
 c0046bc:	1a0002a9 	bne	c005168 <_dtoa_r+0x1428>
 c0046c0:	e3a01001 	mov	r1, #1
 c0046c4:	e1a00004 	mov	r0, r4
 c0046c8:	eb000699 	bl	c006134 <__i2b>
 c0046cc:	e59d1054 	ldr	r1, [sp, #84]	; 0x54
 c0046d0:	e3510000 	cmp	r1, #0
 c0046d4:	e1a09000 	mov	r9, r0
 c0046d8:	da000004 	ble	c0046f0 <_dtoa_r+0x9b0>
 c0046dc:	e1a01009 	mov	r1, r9
 c0046e0:	e1a00004 	mov	r0, r4
 c0046e4:	e59d2054 	ldr	r2, [sp, #84]	; 0x54
 c0046e8:	eb000714 	bl	c006340 <__pow5mult>
 c0046ec:	e1a09000 	mov	r9, r0
 c0046f0:	e59d20b0 	ldr	r2, [sp, #176]	; 0xb0
 c0046f4:	e3520001 	cmp	r2, #1
 c0046f8:	c3a02000 	movgt	r2, #0
 c0046fc:	c58d2028 	strgt	r2, [sp, #40]	; 0x28
 c004700:	da00023d 	ble	c004ffc <_dtoa_r+0x12bc>
 c004704:	e59dc054 	ldr	ip, [sp, #84]	; 0x54
 c004708:	e35c0000 	cmp	ip, #0
 c00470c:	03a03001 	moveq	r3, #1
 c004710:	1a00022e 	bne	c004fd0 <_dtoa_r+0x1290>
 c004714:	e59d1034 	ldr	r1, [sp, #52]	; 0x34
 c004718:	e0833001 	add	r3, r3, r1
 c00471c:	e213301f 	ands	r3, r3, #31
 c004720:	03a0301c 	moveq	r3, #28
 c004724:	1a00011f 	bne	c004ba8 <_dtoa_r+0xe68>
 c004728:	e59dc044 	ldr	ip, [sp, #68]	; 0x44
 c00472c:	e59d1034 	ldr	r1, [sp, #52]	; 0x34
 c004730:	e08cc003 	add	ip, ip, r3
 c004734:	e0811003 	add	r1, r1, r3
 c004738:	e58dc044 	str	ip, [sp, #68]	; 0x44
 c00473c:	e58d1034 	str	r1, [sp, #52]	; 0x34
 c004740:	e08aa003 	add	sl, sl, r3
 c004744:	e59d2044 	ldr	r2, [sp, #68]	; 0x44
 c004748:	e3520000 	cmp	r2, #0
 c00474c:	da000003 	ble	c004760 <_dtoa_r+0xa20>
 c004750:	e1a01008 	mov	r1, r8
 c004754:	e1a00004 	mov	r0, r4
 c004758:	eb000735 	bl	c006434 <__lshift>
 c00475c:	e1a08000 	mov	r8, r0
 c004760:	e59d3034 	ldr	r3, [sp, #52]	; 0x34
 c004764:	e3530000 	cmp	r3, #0
 c004768:	da000004 	ble	c004780 <_dtoa_r+0xa40>
 c00476c:	e1a01009 	mov	r1, r9
 c004770:	e1a00004 	mov	r0, r4
 c004774:	e1a02003 	mov	r2, r3
 c004778:	eb00072d 	bl	c006434 <__lshift>
 c00477c:	e1a09000 	mov	r9, r0
 c004780:	e59dc064 	ldr	ip, [sp, #100]	; 0x64
 c004784:	e35c0000 	cmp	ip, #0
 c004788:	1a0001f6 	bne	c004f68 <_dtoa_r+0x1228>
 c00478c:	e59dc040 	ldr	ip, [sp, #64]	; 0x40
 c004790:	e59d10b0 	ldr	r1, [sp, #176]	; 0xb0
 c004794:	e35c0000 	cmp	ip, #0
 c004798:	c3a03000 	movgt	r3, #0
 c00479c:	d3a03001 	movle	r3, #1
 c0047a0:	e3510002 	cmp	r1, #2
 c0047a4:	d3a03000 	movle	r3, #0
 c0047a8:	e3530000 	cmp	r3, #0
 c0047ac:	0a000108 	beq	c004bd4 <_dtoa_r+0xe94>
 c0047b0:	e35c0000 	cmp	ip, #0
 c0047b4:	1afffed6 	bne	c004314 <_dtoa_r+0x5d4>
 c0047b8:	e1a01009 	mov	r1, r9
 c0047bc:	e3a02005 	mov	r2, #5
 c0047c0:	e1a0300c 	mov	r3, ip
 c0047c4:	e1a00004 	mov	r0, r4
 c0047c8:	eb0005af 	bl	c005e8c <__multadd>
 c0047cc:	e1a09000 	mov	r9, r0
 c0047d0:	e1a01009 	mov	r1, r9
 c0047d4:	e1a00008 	mov	r0, r8
 c0047d8:	eb000756 	bl	c006538 <__mcmp>
 c0047dc:	e3500000 	cmp	r0, #0
 c0047e0:	dafffecb 	ble	c004314 <_dtoa_r+0x5d4>
 c0047e4:	e59d5020 	ldr	r5, [sp, #32]
 c0047e8:	e3a03031 	mov	r3, #49	; 0x31
 c0047ec:	e4c53001 	strb	r3, [r5], #1
 c0047f0:	e2877001 	add	r7, r7, #1
 c0047f4:	e3a0a000 	mov	sl, #0
 c0047f8:	eafffec9 	b	c004324 <_dtoa_r+0x5e4>
 c0047fc:	e59dc044 	ldr	ip, [sp, #68]	; 0x44
 c004800:	e2671000 	rsb	r1, r7, #0
 c004804:	e067c00c 	rsb	ip, r7, ip
 c004808:	e3a02000 	mov	r2, #0
 c00480c:	e58dc044 	str	ip, [sp, #68]	; 0x44
 c004810:	e58d104c 	str	r1, [sp, #76]	; 0x4c
 c004814:	e58d2054 	str	r2, [sp, #84]	; 0x54
 c004818:	eafffdf9 	b	c004004 <_dtoa_r+0x2c4>
 c00481c:	e51f35b0 	ldr	r3, [pc, #-1456]	; c004274 <_dtoa_r+0x534>
 c004820:	e28d1028 	add	r1, sp, #40	; 0x28
 c004824:	e8910003 	ldm	r1, {r0, r1}
 c004828:	e2833020 	add	r3, r3, #32
 c00482c:	e893000c 	ldm	r3, {r2, r3}
 c004830:	eb0013b7 	bl	c009714 <__aeabi_ddiv>
 c004834:	e205500f 	and	r5, r5, #15
 c004838:	e58d0028 	str	r0, [sp, #40]	; 0x28
 c00483c:	e58d102c 	str	r1, [sp, #44]	; 0x2c
 c004840:	e3a0a003 	mov	sl, #3
 c004844:	eafffe3a 	b	c004134 <_dtoa_r+0x3f4>
 c004848:	e59d20b0 	ldr	r2, [sp, #176]	; 0xb0
 c00484c:	e3520001 	cmp	r2, #1
 c004850:	da00024c 	ble	c005188 <_dtoa_r+0x1448>
 c004854:	e59d1040 	ldr	r1, [sp, #64]	; 0x40
 c004858:	e59d204c 	ldr	r2, [sp, #76]	; 0x4c
 c00485c:	e2413001 	sub	r3, r1, #1
 c004860:	e1520003 	cmp	r2, r3
 c004864:	b59dc04c 	ldrlt	ip, [sp, #76]	; 0x4c
 c004868:	b59d1054 	ldrlt	r1, [sp, #84]	; 0x54
 c00486c:	b06c3003 	rsblt	r3, ip, r3
 c004870:	a0639002 	rsbge	r9, r3, r2
 c004874:	e59d2040 	ldr	r2, [sp, #64]	; 0x40
 c004878:	b0811003 	addlt	r1, r1, r3
 c00487c:	b08cc003 	addlt	ip, ip, r3
 c004880:	b58d1054 	strlt	r1, [sp, #84]	; 0x54
 c004884:	b58dc04c 	strlt	ip, [sp, #76]	; 0x4c
 c004888:	e3520000 	cmp	r2, #0
 c00488c:	b59d3044 	ldrlt	r3, [sp, #68]	; 0x44
 c004890:	a59da044 	ldrge	sl, [sp, #68]	; 0x44
 c004894:	a59d3040 	ldrge	r3, [sp, #64]	; 0x40
 c004898:	b062a003 	rsblt	sl, r2, r3
 c00489c:	b3a03000 	movlt	r3, #0
 c0048a0:	e59dc044 	ldr	ip, [sp, #68]	; 0x44
 c0048a4:	e59d2034 	ldr	r2, [sp, #52]	; 0x34
 c0048a8:	e08cc003 	add	ip, ip, r3
 c0048ac:	e0822003 	add	r2, r2, r3
 c0048b0:	e1a00004 	mov	r0, r4
 c0048b4:	e3a01001 	mov	r1, #1
 c0048b8:	e58dc044 	str	ip, [sp, #68]	; 0x44
 c0048bc:	e58d2034 	str	r2, [sp, #52]	; 0x34
 c0048c0:	eb00061b 	bl	c006134 <__i2b>
 c0048c4:	e58d0038 	str	r0, [sp, #56]	; 0x38
 c0048c8:	eaffff54 	b	c004620 <_dtoa_r+0x8e0>
 c0048cc:	e59d3040 	ldr	r3, [sp, #64]	; 0x40
 c0048d0:	e3530000 	cmp	r3, #0
 c0048d4:	1a000228 	bne	c00517c <_dtoa_r+0x143c>
 c0048d8:	e3a02000 	mov	r2, #0
 c0048dc:	e51f3678 	ldr	r3, [pc, #-1656]	; c00426c <_dtoa_r+0x52c>
 c0048e0:	e28d1010 	add	r1, sp, #16
 c0048e4:	e8910003 	ldm	r1, {r0, r1}
 c0048e8:	eb0012e5 	bl	c009484 <__aeabi_dmul>
 c0048ec:	e1a02005 	mov	r2, r5
 c0048f0:	e1a03006 	mov	r3, r6
 c0048f4:	eb00144e 	bl	c009a34 <__aeabi_dcmpge>
 c0048f8:	e3500000 	cmp	r0, #0
 c0048fc:	1afffe82 	bne	c00430c <_dtoa_r+0x5cc>
 c004900:	e59d9040 	ldr	r9, [sp, #64]	; 0x40
 c004904:	e58d9038 	str	r9, [sp, #56]	; 0x38
 c004908:	eaffffb5 	b	c0047e4 <_dtoa_r+0xaa4>
 c00490c:	e58d7058 	str	r7, [sp, #88]	; 0x58
 c004910:	e59dc040 	ldr	ip, [sp, #64]	; 0x40
 c004914:	e59d1050 	ldr	r1, [sp, #80]	; 0x50
 c004918:	e3510000 	cmp	r1, #0
 c00491c:	0a000133 	beq	c004df0 <_dtoa_r+0x10b0>
 c004920:	e51f36b0 	ldr	r3, [pc, #-1712]	; c004278 <_dtoa_r+0x538>
 c004924:	e083318c 	add	r3, r3, ip, lsl #3
 c004928:	e913000c 	ldmdb	r3, {r2, r3}
 c00492c:	e3a00000 	mov	r0, #0
 c004930:	e51f16b8 	ldr	r1, [pc, #-1720]	; c004280 <_dtoa_r+0x540>
 c004934:	e58dc00c 	str	ip, [sp, #12]
 c004938:	eb001375 	bl	c009714 <__aeabi_ddiv>
 c00493c:	e1a02009 	mov	r2, r9
 c004940:	e1a0300a 	mov	r3, sl
 c004944:	eb0011c9 	bl	c009070 <__aeabi_dsub>
 c004948:	e1a09000 	mov	r9, r0
 c00494c:	e1a0a001 	mov	sl, r1
 c004950:	e28d1028 	add	r1, sp, #40	; 0x28
 c004954:	e8910003 	ldm	r1, {r0, r1}
 c004958:	eb001441 	bl	c009a64 <__aeabi_d2iz>
 c00495c:	e1a05000 	mov	r5, r0
 c004960:	eb001290 	bl	c0093a8 <__aeabi_i2d>
 c004964:	e1a02000 	mov	r2, r0
 c004968:	e1a03001 	mov	r3, r1
 c00496c:	e28d1028 	add	r1, sp, #40	; 0x28
 c004970:	e8910003 	ldm	r1, {r0, r1}
 c004974:	eb0011bd 	bl	c009070 <__aeabi_dsub>
 c004978:	e2853030 	add	r3, r5, #48	; 0x30
 c00497c:	e59d5020 	ldr	r5, [sp, #32]
 c004980:	e58d0028 	str	r0, [sp, #40]	; 0x28
 c004984:	e58d102c 	str	r1, [sp, #44]	; 0x2c
 c004988:	e4c53001 	strb	r3, [r5], #1
 c00498c:	e1a00009 	mov	r0, r9
 c004990:	e1a0100a 	mov	r1, sl
 c004994:	e28d3028 	add	r3, sp, #40	; 0x28
 c004998:	e893000c 	ldm	r3, {r2, r3}
 c00499c:	eb00142a 	bl	c009a4c <__aeabi_dcmpgt>
 c0049a0:	e3500000 	cmp	r0, #0
 c0049a4:	1a00016d 	bne	c004f60 <_dtoa_r+0x1220>
 c0049a8:	e28d3028 	add	r3, sp, #40	; 0x28
 c0049ac:	e893000c 	ldm	r3, {r2, r3}
 c0049b0:	e3a00000 	mov	r0, #0
 c0049b4:	e51f174c 	ldr	r1, [pc, #-1868]	; c004270 <_dtoa_r+0x530>
 c0049b8:	eb0011ac 	bl	c009070 <__aeabi_dsub>
 c0049bc:	e1a02000 	mov	r2, r0
 c0049c0:	e1a03001 	mov	r3, r1
 c0049c4:	e1a00009 	mov	r0, r9
 c0049c8:	e1a0100a 	mov	r1, sl
 c0049cc:	eb00141e 	bl	c009a4c <__aeabi_dcmpgt>
 c0049d0:	e3500000 	cmp	r0, #0
 c0049d4:	e59dc00c 	ldr	ip, [sp, #12]
 c0049d8:	1afffef7 	bne	c0045bc <_dtoa_r+0x87c>
 c0049dc:	e35c0001 	cmp	ip, #1
 c0049e0:	dafffe6b 	ble	c004394 <_dtoa_r+0x654>
 c0049e4:	e59d2020 	ldr	r2, [sp, #32]
 c0049e8:	e082c00c 	add	ip, r2, ip
 c0049ec:	e58d707c 	str	r7, [sp, #124]	; 0x7c
 c0049f0:	e58d806c 	str	r8, [sp, #108]	; 0x6c
 c0049f4:	e58db070 	str	fp, [sp, #112]	; 0x70
 c0049f8:	e28d8028 	add	r8, sp, #40	; 0x28
 c0049fc:	e8980180 	ldm	r8, {r7, r8}
 c004a00:	e1a06005 	mov	r6, r5
 c004a04:	e58d4028 	str	r4, [sp, #40]	; 0x28
 c004a08:	e1a0b00c 	mov	fp, ip
 c004a0c:	ea000007 	b	c004a30 <_dtoa_r+0xcf0>
 c004a10:	eb001196 	bl	c009070 <__aeabi_dsub>
 c004a14:	e1a02009 	mov	r2, r9
 c004a18:	e1a0300a 	mov	r3, sl
 c004a1c:	eb0013f8 	bl	c009a04 <__aeabi_dcmplt>
 c004a20:	e3500000 	cmp	r0, #0
 c004a24:	1a0001e5 	bne	c0051c0 <_dtoa_r+0x1480>
 c004a28:	e156000b 	cmp	r6, fp
 c004a2c:	0afffe54 	beq	c004384 <_dtoa_r+0x644>
 c004a30:	e3a02000 	mov	r2, #0
 c004a34:	e51f37c0 	ldr	r3, [pc, #-1984]	; c00427c <_dtoa_r+0x53c>
 c004a38:	e1a00009 	mov	r0, r9
 c004a3c:	e1a0100a 	mov	r1, sl
 c004a40:	eb00128f 	bl	c009484 <__aeabi_dmul>
 c004a44:	e3a02000 	mov	r2, #0
 c004a48:	e51f37d4 	ldr	r3, [pc, #-2004]	; c00427c <_dtoa_r+0x53c>
 c004a4c:	e1a09000 	mov	r9, r0
 c004a50:	e1a0a001 	mov	sl, r1
 c004a54:	e1a00007 	mov	r0, r7
 c004a58:	e1a01008 	mov	r1, r8
 c004a5c:	eb001288 	bl	c009484 <__aeabi_dmul>
 c004a60:	e1a08001 	mov	r8, r1
 c004a64:	e1a07000 	mov	r7, r0
 c004a68:	eb0013fd 	bl	c009a64 <__aeabi_d2iz>
 c004a6c:	e1a04000 	mov	r4, r0
 c004a70:	eb00124c 	bl	c0093a8 <__aeabi_i2d>
 c004a74:	e1a02000 	mov	r2, r0
 c004a78:	e1a03001 	mov	r3, r1
 c004a7c:	e1a00007 	mov	r0, r7
 c004a80:	e1a01008 	mov	r1, r8
 c004a84:	eb001179 	bl	c009070 <__aeabi_dsub>
 c004a88:	e2844030 	add	r4, r4, #48	; 0x30
 c004a8c:	e4c64001 	strb	r4, [r6], #1
 c004a90:	e1a02009 	mov	r2, r9
 c004a94:	e1a0300a 	mov	r3, sl
 c004a98:	e1a08001 	mov	r8, r1
 c004a9c:	e1a07000 	mov	r7, r0
 c004aa0:	eb0013d7 	bl	c009a04 <__aeabi_dcmplt>
 c004aa4:	e3500000 	cmp	r0, #0
 c004aa8:	e1a02007 	mov	r2, r7
 c004aac:	e1a03008 	mov	r3, r8
 c004ab0:	e3a00000 	mov	r0, #0
 c004ab4:	e51f184c 	ldr	r1, [pc, #-2124]	; c004270 <_dtoa_r+0x530>
 c004ab8:	e1a05006 	mov	r5, r6
 c004abc:	0affffd3 	beq	c004a10 <_dtoa_r+0xcd0>
 c004ac0:	e59d806c 	ldr	r8, [sp, #108]	; 0x6c
 c004ac4:	e59d4028 	ldr	r4, [sp, #40]	; 0x28
 c004ac8:	e59db070 	ldr	fp, [sp, #112]	; 0x70
 c004acc:	e59d7058 	ldr	r7, [sp, #88]	; 0x58
 c004ad0:	eafffe1f 	b	c004354 <_dtoa_r+0x614>
 c004ad4:	e3a01001 	mov	r1, #1
 c004ad8:	e58d1050 	str	r1, [sp, #80]	; 0x50
 c004adc:	e59d30b4 	ldr	r3, [sp, #180]	; 0xb4
 c004ae0:	e0873003 	add	r3, r7, r3
 c004ae4:	e2830001 	add	r0, r3, #1
 c004ae8:	e3500000 	cmp	r0, #0
 c004aec:	e58d3048 	str	r3, [sp, #72]	; 0x48
 c004af0:	c58d0040 	strgt	r0, [sp, #64]	; 0x40
 c004af4:	da00013b 	ble	c004fe8 <_dtoa_r+0x12a8>
 c004af8:	e3a01000 	mov	r1, #0
 c004afc:	e3500017 	cmp	r0, #23
 c004b00:	e5841044 	str	r1, [r4, #68]	; 0x44
 c004b04:	83a03004 	movhi	r3, #4
 c004b08:	9a000206 	bls	c005328 <_dtoa_r+0x15e8>
 c004b0c:	e1a03083 	lsl	r3, r3, #1
 c004b10:	e2832014 	add	r2, r3, #20
 c004b14:	e1520000 	cmp	r2, r0
 c004b18:	e2811001 	add	r1, r1, #1
 c004b1c:	9afffffa 	bls	c004b0c <_dtoa_r+0xdcc>
 c004b20:	e59d2040 	ldr	r2, [sp, #64]	; 0x40
 c004b24:	e5841044 	str	r1, [r4, #68]	; 0x44
 c004b28:	e352000e 	cmp	r2, #14
 c004b2c:	83a0a000 	movhi	sl, #0
 c004b30:	920aa001 	andls	sl, sl, #1
 c004b34:	eafffd66 	b	c0040d4 <_dtoa_r+0x394>
 c004b38:	e3a03000 	mov	r3, #0
 c004b3c:	e58d3050 	str	r3, [sp, #80]	; 0x50
 c004b40:	e59dc0b4 	ldr	ip, [sp, #180]	; 0xb4
 c004b44:	e35c0000 	cmp	ip, #0
 c004b48:	c1a0000c 	movgt	r0, ip
 c004b4c:	c58dc048 	strgt	ip, [sp, #72]	; 0x48
 c004b50:	c58dc040 	strgt	ip, [sp, #64]	; 0x40
 c004b54:	caffffe7 	bgt	c004af8 <_dtoa_r+0xdb8>
 c004b58:	e3a01001 	mov	r1, #1
 c004b5c:	e58d1048 	str	r1, [sp, #72]	; 0x48
 c004b60:	e00aa001 	and	sl, sl, r1
 c004b64:	e58d1040 	str	r1, [sp, #64]	; 0x40
 c004b68:	e58d10b4 	str	r1, [sp, #180]	; 0xb4
 c004b6c:	eafffd56 	b	c0040cc <_dtoa_r+0x38c>
 c004b70:	e3a02001 	mov	r2, #1
 c004b74:	e58d2050 	str	r2, [sp, #80]	; 0x50
 c004b78:	eafffff0 	b	c004b40 <_dtoa_r+0xe00>
 c004b7c:	e3a02000 	mov	r2, #0
 c004b80:	e58d2050 	str	r2, [sp, #80]	; 0x50
 c004b84:	eaffffd4 	b	c004adc <_dtoa_r+0xd9c>
 c004b88:	e3e0c000 	mvn	ip, #0
 c004b8c:	e3a0a000 	mov	sl, #0
 c004b90:	e3a01001 	mov	r1, #1
 c004b94:	e58dc048 	str	ip, [sp, #72]	; 0x48
 c004b98:	e58d1050 	str	r1, [sp, #80]	; 0x50
 c004b9c:	e58dc040 	str	ip, [sp, #64]	; 0x40
 c004ba0:	e58da0b4 	str	sl, [sp, #180]	; 0xb4
 c004ba4:	eafffd48 	b	c0040cc <_dtoa_r+0x38c>
 c004ba8:	e2633020 	rsb	r3, r3, #32
 c004bac:	e3530004 	cmp	r3, #4
 c004bb0:	da0001d9 	ble	c00531c <_dtoa_r+0x15dc>
 c004bb4:	e59d2044 	ldr	r2, [sp, #68]	; 0x44
 c004bb8:	e2433004 	sub	r3, r3, #4
 c004bbc:	e0822003 	add	r2, r2, r3
 c004bc0:	e0811003 	add	r1, r1, r3
 c004bc4:	e58d2044 	str	r2, [sp, #68]	; 0x44
 c004bc8:	e08aa003 	add	sl, sl, r3
 c004bcc:	e58d1034 	str	r1, [sp, #52]	; 0x34
 c004bd0:	eafffedb 	b	c004744 <_dtoa_r+0xa04>
 c004bd4:	e59d3050 	ldr	r3, [sp, #80]	; 0x50
 c004bd8:	e3530000 	cmp	r3, #0
 c004bdc:	0a00011c 	beq	c005054 <_dtoa_r+0x1314>
 c004be0:	e35a0000 	cmp	sl, #0
 c004be4:	da000004 	ble	c004bfc <_dtoa_r+0xebc>
 c004be8:	e1a00004 	mov	r0, r4
 c004bec:	e59d1038 	ldr	r1, [sp, #56]	; 0x38
 c004bf0:	e1a0200a 	mov	r2, sl
 c004bf4:	eb00060e 	bl	c006434 <__lshift>
 c004bf8:	e58d0038 	str	r0, [sp, #56]	; 0x38
 c004bfc:	e59dc028 	ldr	ip, [sp, #40]	; 0x28
 c004c00:	e35c0000 	cmp	ip, #0
 c004c04:	1a00018b 	bne	c005238 <_dtoa_r+0x14f8>
 c004c08:	e59dc038 	ldr	ip, [sp, #56]	; 0x38
 c004c0c:	e58dc034 	str	ip, [sp, #52]	; 0x34
 c004c10:	e59d1020 	ldr	r1, [sp, #32]
 c004c14:	e59d2040 	ldr	r2, [sp, #64]	; 0x40
 c004c18:	e2053001 	and	r3, r5, #1
 c004c1c:	e0812002 	add	r2, r1, r2
 c004c20:	e59da038 	ldr	sl, [sp, #56]	; 0x38
 c004c24:	e58d1018 	str	r1, [sp, #24]
 c004c28:	e58d2028 	str	r2, [sp, #40]	; 0x28
 c004c2c:	e58d3038 	str	r3, [sp, #56]	; 0x38
 c004c30:	e58d7044 	str	r7, [sp, #68]	; 0x44
 c004c34:	e1a01009 	mov	r1, r9
 c004c38:	e1a00008 	mov	r0, r8
 c004c3c:	ebfffbcb 	bl	c003b70 <quorem>
 c004c40:	e2800030 	add	r0, r0, #48	; 0x30
 c004c44:	e1a0100a 	mov	r1, sl
 c004c48:	e58d0040 	str	r0, [sp, #64]	; 0x40
 c004c4c:	e1a00008 	mov	r0, r8
 c004c50:	eb000638 	bl	c006538 <__mcmp>
 c004c54:	e1a01009 	mov	r1, r9
 c004c58:	e1a05000 	mov	r5, r0
 c004c5c:	e59d2034 	ldr	r2, [sp, #52]	; 0x34
 c004c60:	e1a00004 	mov	r0, r4
 c004c64:	eb00064b 	bl	c006598 <__mdiff>
 c004c68:	e590300c 	ldr	r3, [r0, #12]
 c004c6c:	e3530000 	cmp	r3, #0
 c004c70:	e1a07000 	mov	r7, r0
 c004c74:	13a06001 	movne	r6, #1
 c004c78:	0a000030 	beq	c004d40 <_dtoa_r+0x1000>
 c004c7c:	e1a00004 	mov	r0, r4
 c004c80:	e1a01007 	mov	r1, r7
 c004c84:	eb000479 	bl	c005e70 <_Bfree>
 c004c88:	e59dc0b0 	ldr	ip, [sp, #176]	; 0xb0
 c004c8c:	e196c00c 	orrs	ip, r6, ip
 c004c90:	1a000002 	bne	c004ca0 <_dtoa_r+0xf60>
 c004c94:	e59d1038 	ldr	r1, [sp, #56]	; 0x38
 c004c98:	e3510000 	cmp	r1, #0
 c004c9c:	0a00018c 	beq	c0052d4 <_dtoa_r+0x1594>
 c004ca0:	e3550000 	cmp	r5, #0
 c004ca4:	ba000149 	blt	c0051d0 <_dtoa_r+0x1490>
 c004ca8:	e59d10b0 	ldr	r1, [sp, #176]	; 0xb0
 c004cac:	e1951001 	orrs	r1, r5, r1
 c004cb0:	1a000002 	bne	c004cc0 <_dtoa_r+0xf80>
 c004cb4:	e59d2038 	ldr	r2, [sp, #56]	; 0x38
 c004cb8:	e3520000 	cmp	r2, #0
 c004cbc:	0a000143 	beq	c0051d0 <_dtoa_r+0x1490>
 c004cc0:	e3560000 	cmp	r6, #0
 c004cc4:	ca000171 	bgt	c005290 <_dtoa_r+0x1550>
 c004cc8:	e59dc018 	ldr	ip, [sp, #24]
 c004ccc:	e59d3040 	ldr	r3, [sp, #64]	; 0x40
 c004cd0:	e4cc3001 	strb	r3, [ip], #1
 c004cd4:	e59d1028 	ldr	r1, [sp, #40]	; 0x28
 c004cd8:	e15c0001 	cmp	ip, r1
 c004cdc:	e58dc018 	str	ip, [sp, #24]
 c004ce0:	e1a0300c 	mov	r3, ip
 c004ce4:	0a000165 	beq	c005280 <_dtoa_r+0x1540>
 c004ce8:	e1a01008 	mov	r1, r8
 c004cec:	e3a0200a 	mov	r2, #10
 c004cf0:	e1a00004 	mov	r0, r4
 c004cf4:	e3a03000 	mov	r3, #0
 c004cf8:	eb000463 	bl	c005e8c <__multadd>
 c004cfc:	e59d2034 	ldr	r2, [sp, #52]	; 0x34
 c004d00:	e15a0002 	cmp	sl, r2
 c004d04:	e1a08000 	mov	r8, r0
 c004d08:	0a000015 	beq	c004d64 <_dtoa_r+0x1024>
 c004d0c:	e1a0100a 	mov	r1, sl
 c004d10:	e3a0200a 	mov	r2, #10
 c004d14:	e3a03000 	mov	r3, #0
 c004d18:	e1a00004 	mov	r0, r4
 c004d1c:	eb00045a 	bl	c005e8c <__multadd>
 c004d20:	e59d1034 	ldr	r1, [sp, #52]	; 0x34
 c004d24:	e1a0a000 	mov	sl, r0
 c004d28:	e3a0200a 	mov	r2, #10
 c004d2c:	e1a00004 	mov	r0, r4
 c004d30:	e3a03000 	mov	r3, #0
 c004d34:	eb000454 	bl	c005e8c <__multadd>
 c004d38:	e58d0034 	str	r0, [sp, #52]	; 0x34
 c004d3c:	eaffffbc 	b	c004c34 <_dtoa_r+0xef4>
 c004d40:	e1a00008 	mov	r0, r8
 c004d44:	e1a01007 	mov	r1, r7
 c004d48:	eb0005fa 	bl	c006538 <__mcmp>
 c004d4c:	e1a06000 	mov	r6, r0
 c004d50:	eaffffc9 	b	c004c7c <_dtoa_r+0xf3c>
 c004d54:	e1a00004 	mov	r0, r4
 c004d58:	e1a0100a 	mov	r1, sl
 c004d5c:	eb000443 	bl	c005e70 <_Bfree>
 c004d60:	eafffd78 	b	c004348 <_dtoa_r+0x608>
 c004d64:	e1a0100a 	mov	r1, sl
 c004d68:	e1a00004 	mov	r0, r4
 c004d6c:	e3a0200a 	mov	r2, #10
 c004d70:	e3a03000 	mov	r3, #0
 c004d74:	eb000444 	bl	c005e8c <__multadd>
 c004d78:	e1a0a000 	mov	sl, r0
 c004d7c:	e58d0034 	str	r0, [sp, #52]	; 0x34
 c004d80:	eaffffab 	b	c004c34 <_dtoa_r+0xef4>
 c004d84:	e2675000 	rsb	r5, r7, #0
 c004d88:	e3550000 	cmp	r5, #0
 c004d8c:	0a0000e8 	beq	c005134 <_dtoa_r+0x13f4>
 c004d90:	e51f3b20 	ldr	r3, [pc, #-2848]	; c004278 <_dtoa_r+0x538>
 c004d94:	e205200f 	and	r2, r5, #15
 c004d98:	e0833182 	add	r3, r3, r2, lsl #3
 c004d9c:	e28d1028 	add	r1, sp, #40	; 0x28
 c004da0:	e8910003 	ldm	r1, {r0, r1}
 c004da4:	e893000c 	ldm	r3, {r2, r3}
 c004da8:	eb0011b5 	bl	c009484 <__aeabi_dmul>
 c004dac:	e1b05245 	asrs	r5, r5, #4
 c004db0:	e58d0028 	str	r0, [sp, #40]	; 0x28
 c004db4:	e58d102c 	str	r1, [sp, #44]	; 0x2c
 c004db8:	0a0000dd 	beq	c005134 <_dtoa_r+0x13f4>
 c004dbc:	e51f6b50 	ldr	r6, [pc, #-2896]	; c004274 <_dtoa_r+0x534>
 c004dc0:	e3a0a002 	mov	sl, #2
 c004dc4:	e3150001 	tst	r5, #1
 c004dc8:	0a000002 	beq	c004dd8 <_dtoa_r+0x1098>
 c004dcc:	e896000c 	ldm	r6, {r2, r3}
 c004dd0:	eb0011ab 	bl	c009484 <__aeabi_dmul>
 c004dd4:	e28aa001 	add	sl, sl, #1
 c004dd8:	e1b050c5 	asrs	r5, r5, #1
 c004ddc:	e2866008 	add	r6, r6, #8
 c004de0:	1afffff7 	bne	c004dc4 <_dtoa_r+0x1084>
 c004de4:	e58d0028 	str	r0, [sp, #40]	; 0x28
 c004de8:	e58d102c 	str	r1, [sp, #44]	; 0x2c
 c004dec:	eafffce6 	b	c00418c <_dtoa_r+0x44c>
 c004df0:	e51f1b80 	ldr	r1, [pc, #-2944]	; c004278 <_dtoa_r+0x538>
 c004df4:	e24c3001 	sub	r3, ip, #1
 c004df8:	e0811183 	add	r1, r1, r3, lsl #3
 c004dfc:	e1a02009 	mov	r2, r9
 c004e00:	e58d306c 	str	r3, [sp, #108]	; 0x6c
 c004e04:	e8910003 	ldm	r1, {r0, r1}
 c004e08:	e1a0300a 	mov	r3, sl
 c004e0c:	e58dc00c 	str	ip, [sp, #12]
 c004e10:	eb00119b 	bl	c009484 <__aeabi_dmul>
 c004e14:	e58d0070 	str	r0, [sp, #112]	; 0x70
 c004e18:	e58d1074 	str	r1, [sp, #116]	; 0x74
 c004e1c:	e28d1028 	add	r1, sp, #40	; 0x28
 c004e20:	e8910003 	ldm	r1, {r0, r1}
 c004e24:	eb00130e 	bl	c009a64 <__aeabi_d2iz>
 c004e28:	e1a05000 	mov	r5, r0
 c004e2c:	eb00115d 	bl	c0093a8 <__aeabi_i2d>
 c004e30:	e1a03001 	mov	r3, r1
 c004e34:	e1a02000 	mov	r2, r0
 c004e38:	e28d1028 	add	r1, sp, #40	; 0x28
 c004e3c:	e8910003 	ldm	r1, {r0, r1}
 c004e40:	eb00108a 	bl	c009070 <__aeabi_dsub>
 c004e44:	e59dc00c 	ldr	ip, [sp, #12]
 c004e48:	e2853030 	add	r3, r5, #48	; 0x30
 c004e4c:	e59d5020 	ldr	r5, [sp, #32]
 c004e50:	e35c0001 	cmp	ip, #1
 c004e54:	e58d0028 	str	r0, [sp, #40]	; 0x28
 c004e58:	e58d102c 	str	r1, [sp, #44]	; 0x2c
 c004e5c:	e4c53001 	strb	r3, [r5], #1
 c004e60:	0a000020 	beq	c004ee8 <_dtoa_r+0x11a8>
 c004e64:	e59d1020 	ldr	r1, [sp, #32]
 c004e68:	e2419001 	sub	r9, r1, #1
 c004e6c:	e1a06001 	mov	r6, r1
 c004e70:	e28d1028 	add	r1, sp, #40	; 0x28
 c004e74:	e8910003 	ldm	r1, {r0, r1}
 c004e78:	e1a0a007 	mov	sl, r7
 c004e7c:	e089900c 	add	r9, r9, ip
 c004e80:	e1a07005 	mov	r7, r5
 c004e84:	e1a05004 	mov	r5, r4
 c004e88:	e3a02000 	mov	r2, #0
 c004e8c:	e51f3c18 	ldr	r3, [pc, #-3096]	; c00427c <_dtoa_r+0x53c>
 c004e90:	eb00117b 	bl	c009484 <__aeabi_dmul>
 c004e94:	e58d0028 	str	r0, [sp, #40]	; 0x28
 c004e98:	e58d102c 	str	r1, [sp, #44]	; 0x2c
 c004e9c:	eb0012f0 	bl	c009a64 <__aeabi_d2iz>
 c004ea0:	e1a04000 	mov	r4, r0
 c004ea4:	eb00113f 	bl	c0093a8 <__aeabi_i2d>
 c004ea8:	e2844030 	add	r4, r4, #48	; 0x30
 c004eac:	e1a02000 	mov	r2, r0
 c004eb0:	e1a03001 	mov	r3, r1
 c004eb4:	e28d1028 	add	r1, sp, #40	; 0x28
 c004eb8:	e8910003 	ldm	r1, {r0, r1}
 c004ebc:	eb00106b 	bl	c009070 <__aeabi_dsub>
 c004ec0:	e5e64001 	strb	r4, [r6, #1]!
 c004ec4:	e1560009 	cmp	r6, r9
 c004ec8:	1affffee 	bne	c004e88 <_dtoa_r+0x1148>
 c004ecc:	e59d206c 	ldr	r2, [sp, #108]	; 0x6c
 c004ed0:	e58d0028 	str	r0, [sp, #40]	; 0x28
 c004ed4:	e58d102c 	str	r1, [sp, #44]	; 0x2c
 c004ed8:	e1a04005 	mov	r4, r5
 c004edc:	e1a05007 	mov	r5, r7
 c004ee0:	e0855002 	add	r5, r5, r2
 c004ee4:	e1a0700a 	mov	r7, sl
 c004ee8:	e3a02000 	mov	r2, #0
 c004eec:	e51f3c74 	ldr	r3, [pc, #-3188]	; c004280 <_dtoa_r+0x540>
 c004ef0:	e28d1070 	add	r1, sp, #112	; 0x70
 c004ef4:	e8910003 	ldm	r1, {r0, r1}
 c004ef8:	eb00105d 	bl	c009074 <__adddf3>
 c004efc:	e1a02000 	mov	r2, r0
 c004f00:	e1a03001 	mov	r3, r1
 c004f04:	e28d1028 	add	r1, sp, #40	; 0x28
 c004f08:	e8910003 	ldm	r1, {r0, r1}
 c004f0c:	eb0012ce 	bl	c009a4c <__aeabi_dcmpgt>
 c004f10:	e3500000 	cmp	r0, #0
 c004f14:	1afffda8 	bne	c0045bc <_dtoa_r+0x87c>
 c004f18:	e28d3070 	add	r3, sp, #112	; 0x70
 c004f1c:	e893000c 	ldm	r3, {r2, r3}
 c004f20:	e3a00000 	mov	r0, #0
 c004f24:	e51f1cac 	ldr	r1, [pc, #-3244]	; c004280 <_dtoa_r+0x540>
 c004f28:	eb001050 	bl	c009070 <__aeabi_dsub>
 c004f2c:	e1a02000 	mov	r2, r0
 c004f30:	e1a03001 	mov	r3, r1
 c004f34:	e28d1028 	add	r1, sp, #40	; 0x28
 c004f38:	e8910003 	ldm	r1, {r0, r1}
 c004f3c:	eb0012b0 	bl	c009a04 <__aeabi_dcmplt>
 c004f40:	e3500000 	cmp	r0, #0
 c004f44:	0afffd12 	beq	c004394 <_dtoa_r+0x654>
 c004f48:	e1a03005 	mov	r3, r5
 c004f4c:	e1a05003 	mov	r5, r3
 c004f50:	e5533001 	ldrb	r3, [r3, #-1]
 c004f54:	e3530030 	cmp	r3, #48	; 0x30
 c004f58:	e2453001 	sub	r3, r5, #1
 c004f5c:	0afffffa 	beq	c004f4c <_dtoa_r+0x120c>
 c004f60:	e59d7058 	ldr	r7, [sp, #88]	; 0x58
 c004f64:	eafffcfa 	b	c004354 <_dtoa_r+0x614>
 c004f68:	e1a00008 	mov	r0, r8
 c004f6c:	e1a01009 	mov	r1, r9
 c004f70:	eb000570 	bl	c006538 <__mcmp>
 c004f74:	e3500000 	cmp	r0, #0
 c004f78:	aafffe03 	bge	c00478c <_dtoa_r+0xa4c>
 c004f7c:	e1a01008 	mov	r1, r8
 c004f80:	e3a03000 	mov	r3, #0
 c004f84:	e1a00004 	mov	r0, r4
 c004f88:	e3a0200a 	mov	r2, #10
 c004f8c:	eb0003be 	bl	c005e8c <__multadd>
 c004f90:	e59d1050 	ldr	r1, [sp, #80]	; 0x50
 c004f94:	e3510000 	cmp	r1, #0
 c004f98:	059d3048 	ldreq	r3, [sp, #72]	; 0x48
 c004f9c:	e1a08000 	mov	r8, r0
 c004fa0:	e2477001 	sub	r7, r7, #1
 c004fa4:	058d3040 	streq	r3, [sp, #64]	; 0x40
 c004fa8:	0afffdf7 	beq	c00478c <_dtoa_r+0xa4c>
 c004fac:	e3a0200a 	mov	r2, #10
 c004fb0:	e1a00004 	mov	r0, r4
 c004fb4:	e59d1038 	ldr	r1, [sp, #56]	; 0x38
 c004fb8:	e3a03000 	mov	r3, #0
 c004fbc:	eb0003b2 	bl	c005e8c <__multadd>
 c004fc0:	e59d2048 	ldr	r2, [sp, #72]	; 0x48
 c004fc4:	e58d0038 	str	r0, [sp, #56]	; 0x38
 c004fc8:	e58d2040 	str	r2, [sp, #64]	; 0x40
 c004fcc:	eafffdee 	b	c00478c <_dtoa_r+0xa4c>
 c004fd0:	e5993010 	ldr	r3, [r9, #16]
 c004fd4:	e0893103 	add	r3, r9, r3, lsl #2
 c004fd8:	e5930010 	ldr	r0, [r3, #16]
 c004fdc:	eb00041c 	bl	c006054 <__hi0bits>
 c004fe0:	e2603020 	rsb	r3, r0, #32
 c004fe4:	eafffdca 	b	c004714 <_dtoa_r+0x9d4>
 c004fe8:	e350000e 	cmp	r0, #14
 c004fec:	83a0a000 	movhi	sl, #0
 c004ff0:	920aa001 	andls	sl, sl, #1
 c004ff4:	e58d0040 	str	r0, [sp, #64]	; 0x40
 c004ff8:	eafffc33 	b	c0040cc <_dtoa_r+0x38c>
 c004ffc:	e3550000 	cmp	r5, #0
 c005000:	13a03000 	movne	r3, #0
 c005004:	158d3028 	strne	r3, [sp, #40]	; 0x28
 c005008:	1afffdbd 	bne	c004704 <_dtoa_r+0x9c4>
 c00500c:	e3c634ff 	bic	r3, r6, #-16777216	; 0xff000000
 c005010:	e3c3360f 	bic	r3, r3, #15728640	; 0xf00000
 c005014:	e3530000 	cmp	r3, #0
 c005018:	158d5028 	strne	r5, [sp, #40]	; 0x28
 c00501c:	1afffdb8 	bne	c004704 <_dtoa_r+0x9c4>
 c005020:	e51f3da4 	ldr	r3, [pc, #-3492]	; c004284 <_dtoa_r+0x544>
 c005024:	e0063003 	and	r3, r6, r3
 c005028:	e3530000 	cmp	r3, #0
 c00502c:	159d3044 	ldrne	r3, [sp, #68]	; 0x44
 c005030:	159dc034 	ldrne	ip, [sp, #52]	; 0x34
 c005034:	12833001 	addne	r3, r3, #1
 c005038:	128cc001 	addne	ip, ip, #1
 c00503c:	13a01001 	movne	r1, #1
 c005040:	158d3044 	strne	r3, [sp, #68]	; 0x44
 c005044:	158dc034 	strne	ip, [sp, #52]	; 0x34
 c005048:	158d1028 	strne	r1, [sp, #40]	; 0x28
 c00504c:	058d3028 	streq	r3, [sp, #40]	; 0x28
 c005050:	eafffdab 	b	c004704 <_dtoa_r+0x9c4>
 c005054:	e1a0a007 	mov	sl, r7
 c005058:	e59d5020 	ldr	r5, [sp, #32]
 c00505c:	e3a06001 	mov	r6, #1
 c005060:	e59d7040 	ldr	r7, [sp, #64]	; 0x40
 c005064:	ea000006 	b	c005084 <_dtoa_r+0x1344>
 c005068:	e1a01008 	mov	r1, r8
 c00506c:	e1a00004 	mov	r0, r4
 c005070:	e3a0200a 	mov	r2, #10
 c005074:	e3a03000 	mov	r3, #0
 c005078:	eb000383 	bl	c005e8c <__multadd>
 c00507c:	e2866001 	add	r6, r6, #1
 c005080:	e1a08000 	mov	r8, r0
 c005084:	e1a01009 	mov	r1, r9
 c005088:	e1a00008 	mov	r0, r8
 c00508c:	ebfffab7 	bl	c003b70 <quorem>
 c005090:	e2800030 	add	r0, r0, #48	; 0x30
 c005094:	e4c50001 	strb	r0, [r5], #1
 c005098:	e1560007 	cmp	r6, r7
 c00509c:	e1a03005 	mov	r3, r5
 c0050a0:	bafffff0 	blt	c005068 <_dtoa_r+0x1328>
 c0050a4:	e58d0040 	str	r0, [sp, #64]	; 0x40
 c0050a8:	e1a0700a 	mov	r7, sl
 c0050ac:	e3a0a000 	mov	sl, #0
 c0050b0:	e1a01008 	mov	r1, r8
 c0050b4:	e3a02001 	mov	r2, #1
 c0050b8:	e1a00004 	mov	r0, r4
 c0050bc:	e58d300c 	str	r3, [sp, #12]
 c0050c0:	eb0004db 	bl	c006434 <__lshift>
 c0050c4:	e1a01009 	mov	r1, r9
 c0050c8:	e1a08000 	mov	r8, r0
 c0050cc:	eb000519 	bl	c006538 <__mcmp>
 c0050d0:	e3500000 	cmp	r0, #0
 c0050d4:	e59d300c 	ldr	r3, [sp, #12]
 c0050d8:	da00000c 	ble	c005110 <_dtoa_r+0x13d0>
 c0050dc:	e59d1020 	ldr	r1, [sp, #32]
 c0050e0:	e5532001 	ldrb	r2, [r3, #-1]
 c0050e4:	e3520039 	cmp	r2, #57	; 0x39
 c0050e8:	e1a05003 	mov	r5, r3
 c0050ec:	e2433001 	sub	r3, r3, #1
 c0050f0:	1a00004d 	bne	c00522c <_dtoa_r+0x14ec>
 c0050f4:	e1530001 	cmp	r3, r1
 c0050f8:	1afffff8 	bne	c0050e0 <_dtoa_r+0x13a0>
 c0050fc:	e59d2020 	ldr	r2, [sp, #32]
 c005100:	e3a03031 	mov	r3, #49	; 0x31
 c005104:	e2877001 	add	r7, r7, #1
 c005108:	e5c23000 	strb	r3, [r2]
 c00510c:	eafffc84 	b	c004324 <_dtoa_r+0x5e4>
 c005110:	1a000002 	bne	c005120 <_dtoa_r+0x13e0>
 c005114:	e59d1040 	ldr	r1, [sp, #64]	; 0x40
 c005118:	e3110001 	tst	r1, #1
 c00511c:	1affffee 	bne	c0050dc <_dtoa_r+0x139c>
 c005120:	e1a05003 	mov	r5, r3
 c005124:	e5732001 	ldrb	r2, [r3, #-1]!
 c005128:	e3520030 	cmp	r2, #48	; 0x30
 c00512c:	0afffffb 	beq	c005120 <_dtoa_r+0x13e0>
 c005130:	eafffc7b 	b	c004324 <_dtoa_r+0x5e4>
 c005134:	e3a0a002 	mov	sl, #2
 c005138:	eafffc13 	b	c00418c <_dtoa_r+0x44c>
 c00513c:	e1a05007 	mov	r5, r7
 c005140:	e1a04008 	mov	r4, r8
 c005144:	e59d7040 	ldr	r7, [sp, #64]	; 0x40
 c005148:	e59d8034 	ldr	r8, [sp, #52]	; 0x34
 c00514c:	eafffc80 	b	c004354 <_dtoa_r+0x614>
 c005150:	e1a01008 	mov	r1, r8
 c005154:	e1a00004 	mov	r0, r4
 c005158:	e59d204c 	ldr	r2, [sp, #76]	; 0x4c
 c00515c:	eb000477 	bl	c006340 <__pow5mult>
 c005160:	e1a08000 	mov	r8, r0
 c005164:	eafffd55 	b	c0046c0 <_dtoa_r+0x980>
 c005168:	e1a01008 	mov	r1, r8
 c00516c:	e1a00004 	mov	r0, r4
 c005170:	eb000472 	bl	c006340 <__pow5mult>
 c005174:	e1a08000 	mov	r8, r0
 c005178:	eafffd50 	b	c0046c0 <_dtoa_r+0x980>
 c00517c:	e3a09000 	mov	r9, #0
 c005180:	e58d9038 	str	r9, [sp, #56]	; 0x38
 c005184:	eafffc62 	b	c004314 <_dtoa_r+0x5d4>
 c005188:	e59dc068 	ldr	ip, [sp, #104]	; 0x68
 c00518c:	e35c0000 	cmp	ip, #0
 c005190:	059d3084 	ldreq	r3, [sp, #132]	; 0x84
 c005194:	12833e43 	addne	r3, r3, #1072	; 0x430
 c005198:	12833003 	addne	r3, r3, #3
 c00519c:	159d904c 	ldrne	r9, [sp, #76]	; 0x4c
 c0051a0:	059d904c 	ldreq	r9, [sp, #76]	; 0x4c
 c0051a4:	02633036 	rsbeq	r3, r3, #54	; 0x36
 c0051a8:	e59da044 	ldr	sl, [sp, #68]	; 0x44
 c0051ac:	eafffdbb 	b	c0048a0 <_dtoa_r+0xb60>
 c0051b0:	e2811001 	add	r1, r1, #1
 c0051b4:	e59d7058 	ldr	r7, [sp, #88]	; 0x58
 c0051b8:	e5c21000 	strb	r1, [r2]
 c0051bc:	eafffc64 	b	c004354 <_dtoa_r+0x614>
 c0051c0:	e59d806c 	ldr	r8, [sp, #108]	; 0x6c
 c0051c4:	e59d4028 	ldr	r4, [sp, #40]	; 0x28
 c0051c8:	e59db070 	ldr	fp, [sp, #112]	; 0x70
 c0051cc:	eafffcfa 	b	c0045bc <_dtoa_r+0x87c>
 c0051d0:	e3560000 	cmp	r6, #0
 c0051d4:	e59d7044 	ldr	r7, [sp, #68]	; 0x44
 c0051d8:	da00000d 	ble	c005214 <_dtoa_r+0x14d4>
 c0051dc:	e1a01008 	mov	r1, r8
 c0051e0:	e3a02001 	mov	r2, #1
 c0051e4:	e1a00004 	mov	r0, r4
 c0051e8:	eb000491 	bl	c006434 <__lshift>
 c0051ec:	e1a01009 	mov	r1, r9
 c0051f0:	e1a08000 	mov	r8, r0
 c0051f4:	eb0004cf 	bl	c006538 <__mcmp>
 c0051f8:	e3500000 	cmp	r0, #0
 c0051fc:	da000041 	ble	c005308 <_dtoa_r+0x15c8>
 c005200:	e59dc040 	ldr	ip, [sp, #64]	; 0x40
 c005204:	e35c0039 	cmp	ip, #57	; 0x39
 c005208:	0a00002b 	beq	c0052bc <_dtoa_r+0x157c>
 c00520c:	e28cc001 	add	ip, ip, #1
 c005210:	e58dc040 	str	ip, [sp, #64]	; 0x40
 c005214:	e59d5018 	ldr	r5, [sp, #24]
 c005218:	e59d1040 	ldr	r1, [sp, #64]	; 0x40
 c00521c:	e4c51001 	strb	r1, [r5], #1
 c005220:	e59d2034 	ldr	r2, [sp, #52]	; 0x34
 c005224:	e58d2038 	str	r2, [sp, #56]	; 0x38
 c005228:	eafffc3d 	b	c004324 <_dtoa_r+0x5e4>
 c00522c:	e2822001 	add	r2, r2, #1
 c005230:	e5c32000 	strb	r2, [r3]
 c005234:	eafffc3a 	b	c004324 <_dtoa_r+0x5e4>
 c005238:	e59d2038 	ldr	r2, [sp, #56]	; 0x38
 c00523c:	e1a00004 	mov	r0, r4
 c005240:	e5921004 	ldr	r1, [r2, #4]
 c005244:	eb0002e7 	bl	c005de8 <_Balloc>
 c005248:	e59d3038 	ldr	r3, [sp, #56]	; 0x38
 c00524c:	e5932010 	ldr	r2, [r3, #16]
 c005250:	e2822002 	add	r2, r2, #2
 c005254:	e283100c 	add	r1, r3, #12
 c005258:	e1a0a000 	mov	sl, r0
 c00525c:	e1a02102 	lsl	r2, r2, #2
 c005260:	e280000c 	add	r0, r0, #12
 c005264:	eb00026d 	bl	c005c20 <memcpy>
 c005268:	e1a00004 	mov	r0, r4
 c00526c:	e1a0100a 	mov	r1, sl
 c005270:	e3a02001 	mov	r2, #1
 c005274:	eb00046e 	bl	c006434 <__lshift>
 c005278:	e58d0034 	str	r0, [sp, #52]	; 0x34
 c00527c:	eafffe63 	b	c004c10 <_dtoa_r+0xed0>
 c005280:	e59dc034 	ldr	ip, [sp, #52]	; 0x34
 c005284:	e59d7044 	ldr	r7, [sp, #68]	; 0x44
 c005288:	e58dc038 	str	ip, [sp, #56]	; 0x38
 c00528c:	eaffff87 	b	c0050b0 <_dtoa_r+0x1370>
 c005290:	e59d3040 	ldr	r3, [sp, #64]	; 0x40
 c005294:	e3530039 	cmp	r3, #57	; 0x39
 c005298:	e59d7044 	ldr	r7, [sp, #68]	; 0x44
 c00529c:	0a000006 	beq	c0052bc <_dtoa_r+0x157c>
 c0052a0:	e59d1040 	ldr	r1, [sp, #64]	; 0x40
 c0052a4:	e59d5018 	ldr	r5, [sp, #24]
 c0052a8:	e2813001 	add	r3, r1, #1
 c0052ac:	e4c53001 	strb	r3, [r5], #1
 c0052b0:	e59d2034 	ldr	r2, [sp, #52]	; 0x34
 c0052b4:	e58d2038 	str	r2, [sp, #56]	; 0x38
 c0052b8:	eafffc19 	b	c004324 <_dtoa_r+0x5e4>
 c0052bc:	e59d3018 	ldr	r3, [sp, #24]
 c0052c0:	e3a02039 	mov	r2, #57	; 0x39
 c0052c4:	e4c32001 	strb	r2, [r3], #1
 c0052c8:	e59dc034 	ldr	ip, [sp, #52]	; 0x34
 c0052cc:	e58dc038 	str	ip, [sp, #56]	; 0x38
 c0052d0:	eaffff81 	b	c0050dc <_dtoa_r+0x139c>
 c0052d4:	e59d2040 	ldr	r2, [sp, #64]	; 0x40
 c0052d8:	e3520039 	cmp	r2, #57	; 0x39
 c0052dc:	e59d7044 	ldr	r7, [sp, #68]	; 0x44
 c0052e0:	0afffff5 	beq	c0052bc <_dtoa_r+0x157c>
 c0052e4:	e3550000 	cmp	r5, #0
 c0052e8:	c2822001 	addgt	r2, r2, #1
 c0052ec:	c58d2040 	strgt	r2, [sp, #64]	; 0x40
 c0052f0:	e59d5018 	ldr	r5, [sp, #24]
 c0052f4:	e59d3040 	ldr	r3, [sp, #64]	; 0x40
 c0052f8:	e4c53001 	strb	r3, [r5], #1
 c0052fc:	e59dc034 	ldr	ip, [sp, #52]	; 0x34
 c005300:	e58dc038 	str	ip, [sp, #56]	; 0x38
 c005304:	eafffc06 	b	c004324 <_dtoa_r+0x5e4>
 c005308:	1affffc1 	bne	c005214 <_dtoa_r+0x14d4>
 c00530c:	e59d3040 	ldr	r3, [sp, #64]	; 0x40
 c005310:	e3130001 	tst	r3, #1
 c005314:	0affffbe 	beq	c005214 <_dtoa_r+0x14d4>
 c005318:	eaffffb8 	b	c005200 <_dtoa_r+0x14c0>
 c00531c:	1283301c 	addne	r3, r3, #28
 c005320:	0afffd07 	beq	c004744 <_dtoa_r+0xa04>
 c005324:	eafffcff 	b	c004728 <_dtoa_r+0x9e8>
 c005328:	e59dc040 	ldr	ip, [sp, #64]	; 0x40
 c00532c:	e35c000e 	cmp	ip, #14
 c005330:	83a0a000 	movhi	sl, #0
 c005334:	920aa001 	andls	sl, sl, #1
 c005338:	eafffb65 	b	c0040d4 <_dtoa_r+0x394>
 c00533c:	e1a00000 	nop			; (mov r0, r0)

0c005340 <_setlocale_r>:
 c005340:	e92d4010 	push	{r4, lr}
 c005344:	e2524000 	subs	r4, r2, #0
 c005348:	0a000004 	beq	c005360 <_setlocale_r+0x20>
 c00534c:	e1a00004 	mov	r0, r4
 c005350:	e59f1048 	ldr	r1, [pc, #72]	; c0053a0 <_setlocale_r+0x60>
 c005354:	eb000615 	bl	c006bb0 <strcmp>
 c005358:	e3500000 	cmp	r0, #0
 c00535c:	1a000002 	bne	c00536c <_setlocale_r+0x2c>
 c005360:	e59f003c 	ldr	r0, [pc, #60]	; c0053a4 <_setlocale_r+0x64>
 c005364:	e8bd4010 	pop	{r4, lr}
 c005368:	e12fff1e 	bx	lr
 c00536c:	e1a00004 	mov	r0, r4
 c005370:	e59f102c 	ldr	r1, [pc, #44]	; c0053a4 <_setlocale_r+0x64>
 c005374:	eb00060d 	bl	c006bb0 <strcmp>
 c005378:	e3500000 	cmp	r0, #0
 c00537c:	0afffff7 	beq	c005360 <_setlocale_r+0x20>
 c005380:	e1a00004 	mov	r0, r4
 c005384:	e59f101c 	ldr	r1, [pc, #28]	; c0053a8 <_setlocale_r+0x68>
 c005388:	eb000608 	bl	c006bb0 <strcmp>
 c00538c:	e59f3010 	ldr	r3, [pc, #16]	; c0053a4 <_setlocale_r+0x64>
 c005390:	e3500000 	cmp	r0, #0
 c005394:	01a00003 	moveq	r0, r3
 c005398:	13a00000 	movne	r0, #0
 c00539c:	eafffff0 	b	c005364 <_setlocale_r+0x24>
 c0053a0:	0c00aff0 	.word	0x0c00aff0
 c0053a4:	0c00af98 	.word	0x0c00af98
 c0053a8:	0c00afbc 	.word	0x0c00afbc

0c0053ac <__locale_charset>:
 c0053ac:	e51f0000 	ldr	r0, [pc, #-0]	; c0053b4 <__locale_charset+0x8>
 c0053b0:	e12fff1e 	bx	lr
 c0053b4:	0c00a998 	.word	0x0c00a998

0c0053b8 <__locale_mb_cur_max>:
 c0053b8:	e59f3004 	ldr	r3, [pc, #4]	; c0053c4 <__locale_mb_cur_max+0xc>
 c0053bc:	e5930020 	ldr	r0, [r3, #32]
 c0053c0:	e12fff1e 	bx	lr
 c0053c4:	0c00a998 	.word	0x0c00a998

0c0053c8 <__locale_msgcharset>:
 c0053c8:	e51f0000 	ldr	r0, [pc, #-0]	; c0053d0 <__locale_msgcharset+0x8>
 c0053cc:	e12fff1e 	bx	lr
 c0053d0:	0c00a9bc 	.word	0x0c00a9bc

0c0053d4 <__locale_cjk_lang>:
 c0053d4:	e3a00000 	mov	r0, #0
 c0053d8:	e12fff1e 	bx	lr

0c0053dc <_localeconv_r>:
 c0053dc:	e51f0000 	ldr	r0, [pc, #-0]	; c0053e4 <_localeconv_r+0x8>
 c0053e0:	e12fff1e 	bx	lr
 c0053e4:	0c00a9dc 	.word	0x0c00a9dc

0c0053e8 <setlocale>:
 c0053e8:	e1a02001 	mov	r2, r1
 c0053ec:	e59f100c 	ldr	r1, [pc, #12]	; c005400 <setlocale+0x18>
 c0053f0:	e1a03000 	mov	r3, r0
 c0053f4:	e5910000 	ldr	r0, [r1]
 c0053f8:	e1a01003 	mov	r1, r3
 c0053fc:	eaffffcf 	b	c005340 <_setlocale_r>
 c005400:	0c00a568 	.word	0x0c00a568

0c005404 <localeconv>:
 c005404:	e51f0000 	ldr	r0, [pc, #-0]	; c00540c <localeconv+0x8>
 c005408:	e12fff1e 	bx	lr
 c00540c:	0c00a9dc 	.word	0x0c00a9dc

0c005410 <_malloc_r>:
 c005410:	e92d4ff0 	push	{r4, r5, r6, r7, r8, r9, sl, fp, lr}
 c005414:	e281400b 	add	r4, r1, #11
 c005418:	e3540016 	cmp	r4, #22
 c00541c:	83c44007 	bichi	r4, r4, #7
 c005420:	81a03fa4 	lsrhi	r3, r4, #31
 c005424:	93a03000 	movls	r3, #0
 c005428:	93a04010 	movls	r4, #16
 c00542c:	e1540001 	cmp	r4, r1
 c005430:	21a01003 	movcs	r1, r3
 c005434:	33831001 	orrcc	r1, r3, #1
 c005438:	e3510000 	cmp	r1, #0
 c00543c:	13a0300c 	movne	r3, #12
 c005440:	e24dd00c 	sub	sp, sp, #12
 c005444:	e1a05000 	mov	r5, r0
 c005448:	15803000 	strne	r3, [r0]
 c00544c:	13a08000 	movne	r8, #0
 c005450:	1a000016 	bne	c0054b0 <_malloc_r+0xa0>
 c005454:	eb000261 	bl	c005de0 <__malloc_lock>
 c005458:	e3540f7e 	cmp	r4, #504	; 0x1f8
 c00545c:	2a000017 	bcs	c0054c0 <_malloc_r+0xb0>
 c005460:	e59f66a4 	ldr	r6, [pc, #1700]	; c005b0c <_malloc_r+0x6fc>
 c005464:	e1a0a1a4 	lsr	sl, r4, #3
 c005468:	e086318a 	add	r3, r6, sl, lsl #3
 c00546c:	e593800c 	ldr	r8, [r3, #12]
 c005470:	e1580003 	cmp	r8, r3
 c005474:	e1a07006 	mov	r7, r6
 c005478:	0a000157 	beq	c0059dc <_malloc_r+0x5cc>
 c00547c:	e5983004 	ldr	r3, [r8, #4]
 c005480:	e3c33003 	bic	r3, r3, #3
 c005484:	e0883003 	add	r3, r8, r3
 c005488:	e5930004 	ldr	r0, [r3, #4]
 c00548c:	e2881008 	add	r1, r8, #8
 c005490:	e8910006 	ldm	r1, {r1, r2}
 c005494:	e3800001 	orr	r0, r0, #1
 c005498:	e5830004 	str	r0, [r3, #4]
 c00549c:	e581200c 	str	r2, [r1, #12]
 c0054a0:	e5821008 	str	r1, [r2, #8]
 c0054a4:	e1a00005 	mov	r0, r5
 c0054a8:	eb00024d 	bl	c005de4 <__malloc_unlock>
 c0054ac:	e2888008 	add	r8, r8, #8
 c0054b0:	e1a00008 	mov	r0, r8
 c0054b4:	e28dd00c 	add	sp, sp, #12
 c0054b8:	e8bd4ff0 	pop	{r4, r5, r6, r7, r8, r9, sl, fp, lr}
 c0054bc:	e12fff1e 	bx	lr
 c0054c0:	e1b0a4a4 	lsrs	sl, r4, #9
 c0054c4:	01a0a1a4 	lsreq	sl, r4, #3
 c0054c8:	01a0118a 	lsleq	r1, sl, #3
 c0054cc:	1a000060 	bne	c005654 <_malloc_r+0x244>
 c0054d0:	e59f6634 	ldr	r6, [pc, #1588]	; c005b0c <_malloc_r+0x6fc>
 c0054d4:	e0861001 	add	r1, r6, r1
 c0054d8:	e591800c 	ldr	r8, [r1, #12]
 c0054dc:	e1510008 	cmp	r1, r8
 c0054e0:	e1a07006 	mov	r7, r6
 c0054e4:	1a000005 	bne	c005500 <_malloc_r+0xf0>
 c0054e8:	ea00000a 	b	c005518 <_malloc_r+0x108>
 c0054ec:	e3530000 	cmp	r3, #0
 c0054f0:	aa000110 	bge	c005938 <_malloc_r+0x528>
 c0054f4:	e598800c 	ldr	r8, [r8, #12]
 c0054f8:	e1510008 	cmp	r1, r8
 c0054fc:	0a000005 	beq	c005518 <_malloc_r+0x108>
 c005500:	e5982004 	ldr	r2, [r8, #4]
 c005504:	e3c22003 	bic	r2, r2, #3
 c005508:	e0643002 	rsb	r3, r4, r2
 c00550c:	e353000f 	cmp	r3, #15
 c005510:	dafffff5 	ble	c0054ec <_malloc_r+0xdc>
 c005514:	e24aa001 	sub	sl, sl, #1
 c005518:	e28aa001 	add	sl, sl, #1
 c00551c:	e59f05ec 	ldr	r0, [pc, #1516]	; c005b10 <_malloc_r+0x700>
 c005520:	e5908008 	ldr	r8, [r0, #8]
 c005524:	e1500008 	cmp	r0, r8
 c005528:	0a000092 	beq	c005778 <_malloc_r+0x368>
 c00552c:	e5982004 	ldr	r2, [r8, #4]
 c005530:	e3c22003 	bic	r2, r2, #3
 c005534:	e0643002 	rsb	r3, r4, r2
 c005538:	e353000f 	cmp	r3, #15
 c00553c:	ca000113 	bgt	c005990 <_malloc_r+0x580>
 c005540:	e3530000 	cmp	r3, #0
 c005544:	e580000c 	str	r0, [r0, #12]
 c005548:	e5800008 	str	r0, [r0, #8]
 c00554c:	aa00005b 	bge	c0056c0 <_malloc_r+0x2b0>
 c005550:	e3520c02 	cmp	r2, #512	; 0x200
 c005554:	2a000061 	bcs	c0056e0 <_malloc_r+0x2d0>
 c005558:	e5971004 	ldr	r1, [r7, #4]
 c00555c:	e1a021a2 	lsr	r2, r2, #3
 c005560:	e1a03142 	asr	r3, r2, #2
 c005564:	e3a0c001 	mov	ip, #1
 c005568:	e0872182 	add	r2, r7, r2, lsl #3
 c00556c:	e181331c 	orr	r3, r1, ip, lsl r3
 c005570:	e5921008 	ldr	r1, [r2, #8]
 c005574:	e588200c 	str	r2, [r8, #12]
 c005578:	e5881008 	str	r1, [r8, #8]
 c00557c:	e3a0c001 	mov	ip, #1
 c005580:	e5828008 	str	r8, [r2, #8]
 c005584:	e1a0214a 	asr	r2, sl, #2
 c005588:	e1a0c21c 	lsl	ip, ip, r2
 c00558c:	e15c0003 	cmp	ip, r3
 c005590:	e5873004 	str	r3, [r7, #4]
 c005594:	e581800c 	str	r8, [r1, #12]
 c005598:	8a00007c 	bhi	c005790 <_malloc_r+0x380>
 c00559c:	e113000c 	tst	r3, ip
 c0055a0:	1a000008 	bne	c0055c8 <_malloc_r+0x1b8>
 c0055a4:	e1a0c08c 	lsl	ip, ip, #1
 c0055a8:	e3caa003 	bic	sl, sl, #3
 c0055ac:	e113000c 	tst	r3, ip
 c0055b0:	e28aa004 	add	sl, sl, #4
 c0055b4:	1a000003 	bne	c0055c8 <_malloc_r+0x1b8>
 c0055b8:	e1a0c08c 	lsl	ip, ip, #1
 c0055bc:	e11c0003 	tst	ip, r3
 c0055c0:	e28aa004 	add	sl, sl, #4
 c0055c4:	0afffffb 	beq	c0055b8 <_malloc_r+0x1a8>
 c0055c8:	e087918a 	add	r9, r7, sl, lsl #3
 c0055cc:	e1a0e009 	mov	lr, r9
 c0055d0:	e1a0800a 	mov	r8, sl
 c0055d4:	e59e300c 	ldr	r3, [lr, #12]
 c0055d8:	e15e0003 	cmp	lr, r3
 c0055dc:	1a000005 	bne	c0055f8 <_malloc_r+0x1e8>
 c0055e0:	ea0000f8 	b	c0059c8 <_malloc_r+0x5b8>
 c0055e4:	e3520000 	cmp	r2, #0
 c0055e8:	aa000101 	bge	c0059f4 <_malloc_r+0x5e4>
 c0055ec:	e593300c 	ldr	r3, [r3, #12]
 c0055f0:	e15e0003 	cmp	lr, r3
 c0055f4:	0a0000f3 	beq	c0059c8 <_malloc_r+0x5b8>
 c0055f8:	e5931004 	ldr	r1, [r3, #4]
 c0055fc:	e3c11003 	bic	r1, r1, #3
 c005600:	e0642001 	rsb	r2, r4, r1
 c005604:	e352000f 	cmp	r2, #15
 c005608:	dafffff5 	ble	c0055e4 <_malloc_r+0x1d4>
 c00560c:	e1a08003 	mov	r8, r3
 c005610:	e593c00c 	ldr	ip, [r3, #12]
 c005614:	e5b8e008 	ldr	lr, [r8, #8]!
 c005618:	e0831004 	add	r1, r3, r4
 c00561c:	e3826001 	orr	r6, r2, #1
 c005620:	e3844001 	orr	r4, r4, #1
 c005624:	e58ec00c 	str	ip, [lr, #12]
 c005628:	e58ce008 	str	lr, [ip, #8]
 c00562c:	e580100c 	str	r1, [r0, #12]
 c005630:	e5801008 	str	r1, [r0, #8]
 c005634:	e5834004 	str	r4, [r3, #4]
 c005638:	e581000c 	str	r0, [r1, #12]
 c00563c:	e5810008 	str	r0, [r1, #8]
 c005640:	e5816004 	str	r6, [r1, #4]
 c005644:	e7812002 	str	r2, [r1, r2]
 c005648:	e1a00005 	mov	r0, r5
 c00564c:	eb0001e4 	bl	c005de4 <__malloc_unlock>
 c005650:	eaffff96 	b	c0054b0 <_malloc_r+0xa0>
 c005654:	e35a0004 	cmp	sl, #4
 c005658:	91a0a324 	lsrls	sl, r4, #6
 c00565c:	928aa038 	addls	sl, sl, #56	; 0x38
 c005660:	91a0118a 	lslls	r1, sl, #3
 c005664:	9affff99 	bls	c0054d0 <_malloc_r+0xc0>
 c005668:	e35a0014 	cmp	sl, #20
 c00566c:	928aa05b 	addls	sl, sl, #91	; 0x5b
 c005670:	91a0118a 	lslls	r1, sl, #3
 c005674:	9affff95 	bls	c0054d0 <_malloc_r+0xc0>
 c005678:	e35a0054 	cmp	sl, #84	; 0x54
 c00567c:	91a0a624 	lsrls	sl, r4, #12
 c005680:	928aa06e 	addls	sl, sl, #110	; 0x6e
 c005684:	91a0118a 	lslls	r1, sl, #3
 c005688:	9affff90 	bls	c0054d0 <_malloc_r+0xc0>
 c00568c:	e35a0f55 	cmp	sl, #340	; 0x154
 c005690:	91a0a7a4 	lsrls	sl, r4, #15
 c005694:	928aa077 	addls	sl, sl, #119	; 0x77
 c005698:	91a0118a 	lslls	r1, sl, #3
 c00569c:	9affff8b 	bls	c0054d0 <_malloc_r+0xc0>
 c0056a0:	e59f346c 	ldr	r3, [pc, #1132]	; c005b14 <_malloc_r+0x704>
 c0056a4:	e15a0003 	cmp	sl, r3
 c0056a8:	91a0a924 	lsrls	sl, r4, #18
 c0056ac:	928aa07c 	addls	sl, sl, #124	; 0x7c
 c0056b0:	91a0118a 	lslls	r1, sl, #3
 c0056b4:	83a01e3f 	movhi	r1, #1008	; 0x3f0
 c0056b8:	83a0a07e 	movhi	sl, #126	; 0x7e
 c0056bc:	eaffff83 	b	c0054d0 <_malloc_r+0xc0>
 c0056c0:	e0882002 	add	r2, r8, r2
 c0056c4:	e5923004 	ldr	r3, [r2, #4]
 c0056c8:	e3833001 	orr	r3, r3, #1
 c0056cc:	e5823004 	str	r3, [r2, #4]
 c0056d0:	e1a00005 	mov	r0, r5
 c0056d4:	eb0001c2 	bl	c005de4 <__malloc_unlock>
 c0056d8:	e2888008 	add	r8, r8, #8
 c0056dc:	eaffff73 	b	c0054b0 <_malloc_r+0xa0>
 c0056e0:	e1a034a2 	lsr	r3, r2, #9
 c0056e4:	e3530004 	cmp	r3, #4
 c0056e8:	91a01322 	lsrls	r1, r2, #6
 c0056ec:	92811038 	addls	r1, r1, #56	; 0x38
 c0056f0:	9a00000f 	bls	c005734 <_malloc_r+0x324>
 c0056f4:	e3530014 	cmp	r3, #20
 c0056f8:	9283105b 	addls	r1, r3, #91	; 0x5b
 c0056fc:	9a00000c 	bls	c005734 <_malloc_r+0x324>
 c005700:	e3530054 	cmp	r3, #84	; 0x54
 c005704:	91a01622 	lsrls	r1, r2, #12
 c005708:	9281106e 	addls	r1, r1, #110	; 0x6e
 c00570c:	9a000008 	bls	c005734 <_malloc_r+0x324>
 c005710:	e3530f55 	cmp	r3, #340	; 0x154
 c005714:	91a017a2 	lsrls	r1, r2, #15
 c005718:	92811077 	addls	r1, r1, #119	; 0x77
 c00571c:	9a000004 	bls	c005734 <_malloc_r+0x324>
 c005720:	e59f13ec 	ldr	r1, [pc, #1004]	; c005b14 <_malloc_r+0x704>
 c005724:	e1530001 	cmp	r3, r1
 c005728:	91a01922 	lsrls	r1, r2, #18
 c00572c:	9281107c 	addls	r1, r1, #124	; 0x7c
 c005730:	83a0107e 	movhi	r1, #126	; 0x7e
 c005734:	e087c181 	add	ip, r7, r1, lsl #3
 c005738:	e59c3008 	ldr	r3, [ip, #8]
 c00573c:	e153000c 	cmp	r3, ip
 c005740:	1a000003 	bne	c005754 <_malloc_r+0x344>
 c005744:	ea0000d3 	b	c005a98 <_malloc_r+0x688>
 c005748:	e5933008 	ldr	r3, [r3, #8]
 c00574c:	e15c0003 	cmp	ip, r3
 c005750:	0a000003 	beq	c005764 <_malloc_r+0x354>
 c005754:	e5931004 	ldr	r1, [r3, #4]
 c005758:	e3c11003 	bic	r1, r1, #3
 c00575c:	e1520001 	cmp	r2, r1
 c005760:	3afffff8 	bcc	c005748 <_malloc_r+0x338>
 c005764:	e593200c 	ldr	r2, [r3, #12]
 c005768:	e588200c 	str	r2, [r8, #12]
 c00576c:	e5883008 	str	r3, [r8, #8]
 c005770:	e583800c 	str	r8, [r3, #12]
 c005774:	e5828008 	str	r8, [r2, #8]
 c005778:	e1a0214a 	asr	r2, sl, #2
 c00577c:	e3a0c001 	mov	ip, #1
 c005780:	e1a0c21c 	lsl	ip, ip, r2
 c005784:	e5973004 	ldr	r3, [r7, #4]
 c005788:	e15c0003 	cmp	ip, r3
 c00578c:	9affff82 	bls	c00559c <_malloc_r+0x18c>
 c005790:	e5978008 	ldr	r8, [r7, #8]
 c005794:	e598a004 	ldr	sl, [r8, #4]
 c005798:	e3caa003 	bic	sl, sl, #3
 c00579c:	e154000a 	cmp	r4, sl
 c0057a0:	93a03000 	movls	r3, #0
 c0057a4:	83a03001 	movhi	r3, #1
 c0057a8:	e064200a 	rsb	r2, r4, sl
 c0057ac:	e352000f 	cmp	r2, #15
 c0057b0:	d3833001 	orrle	r3, r3, #1
 c0057b4:	e3530000 	cmp	r3, #0
 c0057b8:	0a00006a 	beq	c005968 <_malloc_r+0x558>
 c0057bc:	e59f9354 	ldr	r9, [pc, #852]	; c005b18 <_malloc_r+0x708>
 c0057c0:	e599b000 	ldr	fp, [r9]
 c0057c4:	e5963408 	ldr	r3, [r6, #1032]	; 0x408
 c0057c8:	e28bb010 	add	fp, fp, #16
 c0057cc:	e3730001 	cmn	r3, #1
 c0057d0:	e08bb004 	add	fp, fp, r4
 c0057d4:	128bbeff 	addne	fp, fp, #4080	; 0xff0
 c0057d8:	128bb00f 	addne	fp, fp, #15
 c0057dc:	13cbbeff 	bicne	fp, fp, #4080	; 0xff0
 c0057e0:	13cbb00f 	bicne	fp, fp, #15
 c0057e4:	e1a00005 	mov	r0, r5
 c0057e8:	e1a0100b 	mov	r1, fp
 c0057ec:	eb0004df 	bl	c006b70 <_sbrk_r>
 c0057f0:	e3700001 	cmn	r0, #1
 c0057f4:	e1a03000 	mov	r3, r0
 c0057f8:	0a00009c 	beq	c005a70 <_malloc_r+0x660>
 c0057fc:	e088100a 	add	r1, r8, sl
 c005800:	e1510000 	cmp	r1, r0
 c005804:	8a000097 	bhi	c005a68 <_malloc_r+0x658>
 c005808:	e5992004 	ldr	r2, [r9, #4]
 c00580c:	e1510000 	cmp	r1, r0
 c005810:	e08b2002 	add	r2, fp, r2
 c005814:	e5892004 	str	r2, [r9, #4]
 c005818:	0a0000aa 	beq	c005ac8 <_malloc_r+0x6b8>
 c00581c:	e596c408 	ldr	ip, [r6, #1032]	; 0x408
 c005820:	e37c0001 	cmn	ip, #1
 c005824:	10802002 	addne	r2, r0, r2
 c005828:	059f22dc 	ldreq	r2, [pc, #732]	; c005b0c <_malloc_r+0x6fc>
 c00582c:	10611002 	rsbne	r1, r1, r2
 c005830:	05820408 	streq	r0, [r2, #1032]	; 0x408
 c005834:	15891004 	strne	r1, [r9, #4]
 c005838:	e2106007 	ands	r6, r0, #7
 c00583c:	12666008 	rsbne	r6, r6, #8
 c005840:	10803006 	addne	r3, r0, r6
 c005844:	e083200b 	add	r2, r3, fp
 c005848:	12866a01 	addne	r6, r6, #4096	; 0x1000
 c00584c:	03a06a01 	moveq	r6, #4096	; 0x1000
 c005850:	e1a02a02 	lsl	r2, r2, #20
 c005854:	e0466a22 	sub	r6, r6, r2, lsr #20
 c005858:	e1a01006 	mov	r1, r6
 c00585c:	e1a00005 	mov	r0, r5
 c005860:	e58d3004 	str	r3, [sp, #4]
 c005864:	eb0004c1 	bl	c006b70 <_sbrk_r>
 c005868:	e59d3004 	ldr	r3, [sp, #4]
 c00586c:	e3700001 	cmn	r0, #1
 c005870:	10631000 	rsbne	r1, r3, r0
 c005874:	e5992004 	ldr	r2, [r9, #4]
 c005878:	10811006 	addne	r1, r1, r6
 c00587c:	03a06000 	moveq	r6, #0
 c005880:	13811001 	orrne	r1, r1, #1
 c005884:	03a01001 	moveq	r1, #1
 c005888:	e0862002 	add	r2, r6, r2
 c00588c:	e1580007 	cmp	r8, r7
 c005890:	e5892004 	str	r2, [r9, #4]
 c005894:	e5873008 	str	r3, [r7, #8]
 c005898:	e5831004 	str	r1, [r3, #4]
 c00589c:	0a00000d 	beq	c0058d8 <_malloc_r+0x4c8>
 c0058a0:	e35a000f 	cmp	sl, #15
 c0058a4:	9a000082 	bls	c005ab4 <_malloc_r+0x6a4>
 c0058a8:	e598c004 	ldr	ip, [r8, #4]
 c0058ac:	e24a300c 	sub	r3, sl, #12
 c0058b0:	e3c33007 	bic	r3, r3, #7
 c0058b4:	e20cc001 	and	ip, ip, #1
 c0058b8:	e0881003 	add	r1, r8, r3
 c0058bc:	e3a00005 	mov	r0, #5
 c0058c0:	e183c00c 	orr	ip, r3, ip
 c0058c4:	e353000f 	cmp	r3, #15
 c0058c8:	e588c004 	str	ip, [r8, #4]
 c0058cc:	e5810004 	str	r0, [r1, #4]
 c0058d0:	e5810008 	str	r0, [r1, #8]
 c0058d4:	8a000082 	bhi	c005ae4 <_malloc_r+0x6d4>
 c0058d8:	e599302c 	ldr	r3, [r9, #44]	; 0x2c
 c0058dc:	e1520003 	cmp	r2, r3
 c0058e0:	859f3230 	ldrhi	r3, [pc, #560]	; c005b18 <_malloc_r+0x708>
 c0058e4:	8583202c 	strhi	r2, [r3, #44]	; 0x2c
 c0058e8:	e5993030 	ldr	r3, [r9, #48]	; 0x30
 c0058ec:	e1520003 	cmp	r2, r3
 c0058f0:	9a00005e 	bls	c005a70 <_malloc_r+0x660>
 c0058f4:	e5978008 	ldr	r8, [r7, #8]
 c0058f8:	e59f1218 	ldr	r1, [pc, #536]	; c005b18 <_malloc_r+0x708>
 c0058fc:	e5983004 	ldr	r3, [r8, #4]
 c005900:	e5812030 	str	r2, [r1, #48]	; 0x30
 c005904:	e3c32003 	bic	r2, r3, #3
 c005908:	e1540002 	cmp	r4, r2
 c00590c:	93a03000 	movls	r3, #0
 c005910:	83a03001 	movhi	r3, #1
 c005914:	e0642002 	rsb	r2, r4, r2
 c005918:	e352000f 	cmp	r2, #15
 c00591c:	d3833001 	orrle	r3, r3, #1
 c005920:	e3530000 	cmp	r3, #0
 c005924:	0a00000f 	beq	c005968 <_malloc_r+0x558>
 c005928:	e1a00005 	mov	r0, r5
 c00592c:	eb00012c 	bl	c005de4 <__malloc_unlock>
 c005930:	e3a08000 	mov	r8, #0
 c005934:	eafffedd 	b	c0054b0 <_malloc_r+0xa0>
 c005938:	e0882002 	add	r2, r8, r2
 c00593c:	e5920004 	ldr	r0, [r2, #4]
 c005940:	e2881008 	add	r1, r8, #8
 c005944:	e891000a 	ldm	r1, {r1, r3}
 c005948:	e3800001 	orr	r0, r0, #1
 c00594c:	e5820004 	str	r0, [r2, #4]
 c005950:	e581300c 	str	r3, [r1, #12]
 c005954:	e5831008 	str	r1, [r3, #8]
 c005958:	e1a00005 	mov	r0, r5
 c00595c:	eb000120 	bl	c005de4 <__malloc_unlock>
 c005960:	e2888008 	add	r8, r8, #8
 c005964:	eafffed1 	b	c0054b0 <_malloc_r+0xa0>
 c005968:	e0883004 	add	r3, r8, r4
 c00596c:	e3822001 	orr	r2, r2, #1
 c005970:	e3844001 	orr	r4, r4, #1
 c005974:	e5884004 	str	r4, [r8, #4]
 c005978:	e1a00005 	mov	r0, r5
 c00597c:	e5832004 	str	r2, [r3, #4]
 c005980:	e5873008 	str	r3, [r7, #8]
 c005984:	eb000116 	bl	c005de4 <__malloc_unlock>
 c005988:	e2888008 	add	r8, r8, #8
 c00598c:	eafffec7 	b	c0054b0 <_malloc_r+0xa0>
 c005990:	e0882004 	add	r2, r8, r4
 c005994:	e3831001 	orr	r1, r3, #1
 c005998:	e3844001 	orr	r4, r4, #1
 c00599c:	e5884004 	str	r4, [r8, #4]
 c0059a0:	e580200c 	str	r2, [r0, #12]
 c0059a4:	e5802008 	str	r2, [r0, #8]
 c0059a8:	e582000c 	str	r0, [r2, #12]
 c0059ac:	e5820008 	str	r0, [r2, #8]
 c0059b0:	e5821004 	str	r1, [r2, #4]
 c0059b4:	e7823003 	str	r3, [r2, r3]
 c0059b8:	e1a00005 	mov	r0, r5
 c0059bc:	eb000108 	bl	c005de4 <__malloc_unlock>
 c0059c0:	e2888008 	add	r8, r8, #8
 c0059c4:	eafffeb9 	b	c0054b0 <_malloc_r+0xa0>
 c0059c8:	e2888001 	add	r8, r8, #1
 c0059cc:	e3180003 	tst	r8, #3
 c0059d0:	0a000014 	beq	c005a28 <_malloc_r+0x618>
 c0059d4:	e28ee008 	add	lr, lr, #8
 c0059d8:	eafffefd 	b	c0055d4 <_malloc_r+0x1c4>
 c0059dc:	e2883008 	add	r3, r8, #8
 c0059e0:	e5988014 	ldr	r8, [r8, #20]
 c0059e4:	e1530008 	cmp	r3, r8
 c0059e8:	028aa002 	addeq	sl, sl, #2
 c0059ec:	0afffeca 	beq	c00551c <_malloc_r+0x10c>
 c0059f0:	eafffea1 	b	c00547c <_malloc_r+0x6c>
 c0059f4:	e0831001 	add	r1, r3, r1
 c0059f8:	e5910004 	ldr	r0, [r1, #4]
 c0059fc:	e1a08003 	mov	r8, r3
 c005a00:	e5b82008 	ldr	r2, [r8, #8]!
 c005a04:	e593300c 	ldr	r3, [r3, #12]
 c005a08:	e3800001 	orr	r0, r0, #1
 c005a0c:	e5810004 	str	r0, [r1, #4]
 c005a10:	e582300c 	str	r3, [r2, #12]
 c005a14:	e5832008 	str	r2, [r3, #8]
 c005a18:	e1a00005 	mov	r0, r5
 c005a1c:	eb0000f0 	bl	c005de4 <__malloc_unlock>
 c005a20:	eafffea2 	b	c0054b0 <_malloc_r+0xa0>
 c005a24:	e24aa001 	sub	sl, sl, #1
 c005a28:	e31a0003 	tst	sl, #3
 c005a2c:	e1a03009 	mov	r3, r9
 c005a30:	0a000031 	beq	c005afc <_malloc_r+0x6ec>
 c005a34:	e4139008 	ldr	r9, [r3], #-8
 c005a38:	e1590003 	cmp	r9, r3
 c005a3c:	0afffff8 	beq	c005a24 <_malloc_r+0x614>
 c005a40:	e5973004 	ldr	r3, [r7, #4]
 c005a44:	e1a0c08c 	lsl	ip, ip, #1
 c005a48:	e15c0003 	cmp	ip, r3
 c005a4c:	8affff4f 	bhi	c005790 <_malloc_r+0x380>
 c005a50:	e35c0000 	cmp	ip, #0
 c005a54:	0affff4d 	beq	c005790 <_malloc_r+0x380>
 c005a58:	e11c0003 	tst	ip, r3
 c005a5c:	0a000007 	beq	c005a80 <_malloc_r+0x670>
 c005a60:	e1a0a008 	mov	sl, r8
 c005a64:	eafffed7 	b	c0055c8 <_malloc_r+0x1b8>
 c005a68:	e1580007 	cmp	r8, r7
 c005a6c:	0affff65 	beq	c005808 <_malloc_r+0x3f8>
 c005a70:	e5978008 	ldr	r8, [r7, #8]
 c005a74:	e5982004 	ldr	r2, [r8, #4]
 c005a78:	e3c22003 	bic	r2, r2, #3
 c005a7c:	eaffffa1 	b	c005908 <_malloc_r+0x4f8>
 c005a80:	e1a0c08c 	lsl	ip, ip, #1
 c005a84:	e11c0003 	tst	ip, r3
 c005a88:	e2888004 	add	r8, r8, #4
 c005a8c:	0afffffb 	beq	c005a80 <_malloc_r+0x670>
 c005a90:	e1a0a008 	mov	sl, r8
 c005a94:	eafffecb 	b	c0055c8 <_malloc_r+0x1b8>
 c005a98:	e5972004 	ldr	r2, [r7, #4]
 c005a9c:	e1a01141 	asr	r1, r1, #2
 c005aa0:	e3a0c001 	mov	ip, #1
 c005aa4:	e182111c 	orr	r1, r2, ip, lsl r1
 c005aa8:	e1a02003 	mov	r2, r3
 c005aac:	e5871004 	str	r1, [r7, #4]
 c005ab0:	eaffff2c 	b	c005768 <_malloc_r+0x358>
 c005ab4:	e3a02001 	mov	r2, #1
 c005ab8:	e5832004 	str	r2, [r3, #4]
 c005abc:	e1a08003 	mov	r8, r3
 c005ac0:	e3a02000 	mov	r2, #0
 c005ac4:	eaffff8f 	b	c005908 <_malloc_r+0x4f8>
 c005ac8:	e1b0ca01 	lsls	ip, r1, #20
 c005acc:	1affff52 	bne	c00581c <_malloc_r+0x40c>
 c005ad0:	e5973008 	ldr	r3, [r7, #8]
 c005ad4:	e08b100a 	add	r1, fp, sl
 c005ad8:	e3811001 	orr	r1, r1, #1
 c005adc:	e5831004 	str	r1, [r3, #4]
 c005ae0:	eaffff7c 	b	c0058d8 <_malloc_r+0x4c8>
 c005ae4:	e1a00005 	mov	r0, r5
 c005ae8:	e2881008 	add	r1, r8, #8
 c005aec:	eb0009c7 	bl	c008210 <_free_r>
 c005af0:	e59f3020 	ldr	r3, [pc, #32]	; c005b18 <_malloc_r+0x708>
 c005af4:	e5932004 	ldr	r2, [r3, #4]
 c005af8:	eaffff76 	b	c0058d8 <_malloc_r+0x4c8>
 c005afc:	e5973004 	ldr	r3, [r7, #4]
 c005b00:	e1c3300c 	bic	r3, r3, ip
 c005b04:	e5873004 	str	r3, [r7, #4]
 c005b08:	eaffffcc 	b	c005a40 <_malloc_r+0x630>
 c005b0c:	0c00aa14 	.word	0x0c00aa14
 c005b10:	0c00aa1c 	.word	0x0c00aa1c
 c005b14:	00000554 	.word	0x00000554
 c005b18:	0c00b018 	.word	0x0c00b018

0c005b1c <memchr>:
 c005b1c:	e3100003 	tst	r0, #3
 c005b20:	e92d0070 	push	{r4, r5, r6}
 c005b24:	e20110ff 	and	r1, r1, #255	; 0xff
 c005b28:	e1a04000 	mov	r4, r0
 c005b2c:	0a000010 	beq	c005b74 <memchr+0x58>
 c005b30:	e3520000 	cmp	r2, #0
 c005b34:	0a000021 	beq	c005bc0 <memchr+0xa4>
 c005b38:	e5d03000 	ldrb	r3, [r0]
 c005b3c:	e1530001 	cmp	r3, r1
 c005b40:	12422001 	subne	r2, r2, #1
 c005b44:	12803001 	addne	r3, r0, #1
 c005b48:	1a000006 	bne	c005b68 <memchr+0x4c>
 c005b4c:	ea000019 	b	c005bb8 <memchr+0x9c>
 c005b50:	e3520000 	cmp	r2, #0
 c005b54:	0a000019 	beq	c005bc0 <memchr+0xa4>
 c005b58:	e4d3c001 	ldrb	ip, [r3], #1
 c005b5c:	e15c0001 	cmp	ip, r1
 c005b60:	0a000018 	beq	c005bc8 <memchr+0xac>
 c005b64:	e2422001 	sub	r2, r2, #1
 c005b68:	e3130003 	tst	r3, #3
 c005b6c:	e1a04003 	mov	r4, r3
 c005b70:	1afffff6 	bne	c005b50 <memchr+0x34>
 c005b74:	e3520003 	cmp	r2, #3
 c005b78:	8a000014 	bhi	c005bd0 <memchr+0xb4>
 c005b7c:	e3520000 	cmp	r2, #0
 c005b80:	0a00000e 	beq	c005bc0 <memchr+0xa4>
 c005b84:	e5d43000 	ldrb	r3, [r4]
 c005b88:	e1530001 	cmp	r3, r1
 c005b8c:	12423001 	subne	r3, r2, #1
 c005b90:	1284c001 	addne	ip, r4, #1
 c005b94:	1a000003 	bne	c005ba8 <memchr+0x8c>
 c005b98:	ea00000a 	b	c005bc8 <memchr+0xac>
 c005b9c:	e4dc5001 	ldrb	r5, [ip], #1
 c005ba0:	e1550001 	cmp	r5, r1
 c005ba4:	0a000003 	beq	c005bb8 <memchr+0x9c>
 c005ba8:	e2533001 	subs	r3, r3, #1
 c005bac:	e1a0000c 	mov	r0, ip
 c005bb0:	2afffff9 	bcs	c005b9c <memchr+0x80>
 c005bb4:	e3a00000 	mov	r0, #0
 c005bb8:	e8bd0070 	pop	{r4, r5, r6}
 c005bbc:	e12fff1e 	bx	lr
 c005bc0:	e1a00002 	mov	r0, r2
 c005bc4:	eafffffb 	b	c005bb8 <memchr+0x9c>
 c005bc8:	e1a00004 	mov	r0, r4
 c005bcc:	eafffff9 	b	c005bb8 <memchr+0x9c>
 c005bd0:	e1810401 	orr	r0, r1, r1, lsl #8
 c005bd4:	e1800800 	orr	r0, r0, r0, lsl #16
 c005bd8:	e1a03004 	mov	r3, r4
 c005bdc:	e1a04003 	mov	r4, r3
 c005be0:	e4936004 	ldr	r6, [r3], #4
 c005be4:	e59f502c 	ldr	r5, [pc, #44]	; c005c18 <memchr+0xfc>
 c005be8:	e0206006 	eor	r6, r0, r6
 c005bec:	e0865005 	add	r5, r6, r5
 c005bf0:	e59fc024 	ldr	ip, [pc, #36]	; c005c1c <memchr+0x100>
 c005bf4:	e1c55006 	bic	r5, r5, r6
 c005bf8:	e005c00c 	and	ip, r5, ip
 c005bfc:	e35c0000 	cmp	ip, #0
 c005c00:	1affffdd 	bne	c005b7c <memchr+0x60>
 c005c04:	e2422004 	sub	r2, r2, #4
 c005c08:	e3520003 	cmp	r2, #3
 c005c0c:	e1a04003 	mov	r4, r3
 c005c10:	8afffff1 	bhi	c005bdc <memchr+0xc0>
 c005c14:	eaffffd8 	b	c005b7c <memchr+0x60>
 c005c18:	fefefeff 	.word	0xfefefeff
 c005c1c:	80808080 	.word	0x80808080

0c005c20 <memcpy>:
 c005c20:	e3520003 	cmp	r2, #3
 c005c24:	e92d01f0 	push	{r4, r5, r6, r7, r8}
 c005c28:	8a000009 	bhi	c005c54 <memcpy+0x34>
 c005c2c:	e3520000 	cmp	r2, #0
 c005c30:	0a000005 	beq	c005c4c <memcpy+0x2c>
 c005c34:	e3a03000 	mov	r3, #0
 c005c38:	e7d1c003 	ldrb	ip, [r1, r3]
 c005c3c:	e7c0c003 	strb	ip, [r0, r3]
 c005c40:	e2833001 	add	r3, r3, #1
 c005c44:	e1530002 	cmp	r3, r2
 c005c48:	1afffffa 	bne	c005c38 <memcpy+0x18>
 c005c4c:	e8bd01f0 	pop	{r4, r5, r6, r7, r8}
 c005c50:	e12fff1e 	bx	lr
 c005c54:	e1a03001 	mov	r3, r1
 c005c58:	e0802002 	add	r2, r0, r2
 c005c5c:	e1a01000 	mov	r1, r0
 c005c60:	ea000002 	b	c005c70 <memcpy+0x50>
 c005c64:	e5dcc000 	ldrb	ip, [ip]
 c005c68:	e4c1c001 	strb	ip, [r1], #1
 c005c6c:	e2833001 	add	r3, r3, #1
 c005c70:	e3110003 	tst	r1, #3
 c005c74:	e1a0c003 	mov	ip, r3
 c005c78:	1afffff9 	bne	c005c64 <memcpy+0x44>
 c005c7c:	e2134003 	ands	r4, r3, #3
 c005c80:	0a000034 	beq	c005d58 <memcpy+0x138>
 c005c84:	e2645000 	rsb	r5, r4, #0
 c005c88:	e2647004 	rsb	r7, r4, #4
 c005c8c:	e7933005 	ldr	r3, [r3, r5]
 c005c90:	e1a04184 	lsl	r4, r4, #3
 c005c94:	e1a07187 	lsl	r7, r7, #3
 c005c98:	ea000005 	b	c005cb4 <memcpy+0x94>
 c005c9c:	e28cc004 	add	ip, ip, #4
 c005ca0:	e79c6005 	ldr	r6, [ip, r5]
 c005ca4:	e1a08716 	lsl	r8, r6, r7
 c005ca8:	e1883433 	orr	r3, r8, r3, lsr r4
 c005cac:	e4813004 	str	r3, [r1], #4
 c005cb0:	e1a03006 	mov	r3, r6
 c005cb4:	e0616002 	rsb	r6, r1, r2
 c005cb8:	e3560003 	cmp	r6, #3
 c005cbc:	cafffff6 	bgt	c005c9c <memcpy+0x7c>
 c005cc0:	ea000001 	b	c005ccc <memcpy+0xac>
 c005cc4:	e4dc3001 	ldrb	r3, [ip], #1
 c005cc8:	e4c13001 	strb	r3, [r1], #1
 c005ccc:	e1520001 	cmp	r2, r1
 c005cd0:	8afffffb 	bhi	c005cc4 <memcpy+0xa4>
 c005cd4:	eaffffdc 	b	c005c4c <memcpy+0x2c>
 c005cd8:	e513c040 	ldr	ip, [r3, #-64]	; 0xffffffc0
 c005cdc:	e501c040 	str	ip, [r1, #-64]	; 0xffffffc0
 c005ce0:	e513c03c 	ldr	ip, [r3, #-60]	; 0xffffffc4
 c005ce4:	e501c03c 	str	ip, [r1, #-60]	; 0xffffffc4
 c005ce8:	e513c038 	ldr	ip, [r3, #-56]	; 0xffffffc8
 c005cec:	e501c038 	str	ip, [r1, #-56]	; 0xffffffc8
 c005cf0:	e513c034 	ldr	ip, [r3, #-52]	; 0xffffffcc
 c005cf4:	e501c034 	str	ip, [r1, #-52]	; 0xffffffcc
 c005cf8:	e513c030 	ldr	ip, [r3, #-48]	; 0xffffffd0
 c005cfc:	e501c030 	str	ip, [r1, #-48]	; 0xffffffd0
 c005d00:	e513c02c 	ldr	ip, [r3, #-44]	; 0xffffffd4
 c005d04:	e501c02c 	str	ip, [r1, #-44]	; 0xffffffd4
 c005d08:	e513c028 	ldr	ip, [r3, #-40]	; 0xffffffd8
 c005d0c:	e501c028 	str	ip, [r1, #-40]	; 0xffffffd8
 c005d10:	e513c024 	ldr	ip, [r3, #-36]	; 0xffffffdc
 c005d14:	e501c024 	str	ip, [r1, #-36]	; 0xffffffdc
 c005d18:	e513c020 	ldr	ip, [r3, #-32]	; 0xffffffe0
 c005d1c:	e501c020 	str	ip, [r1, #-32]	; 0xffffffe0
 c005d20:	e513c01c 	ldr	ip, [r3, #-28]	; 0xffffffe4
 c005d24:	e501c01c 	str	ip, [r1, #-28]	; 0xffffffe4
 c005d28:	e513c018 	ldr	ip, [r3, #-24]	; 0xffffffe8
 c005d2c:	e501c018 	str	ip, [r1, #-24]	; 0xffffffe8
 c005d30:	e513c014 	ldr	ip, [r3, #-20]	; 0xffffffec
 c005d34:	e501c014 	str	ip, [r1, #-20]	; 0xffffffec
 c005d38:	e513c010 	ldr	ip, [r3, #-16]
 c005d3c:	e501c010 	str	ip, [r1, #-16]
 c005d40:	e513c00c 	ldr	ip, [r3, #-12]
 c005d44:	e501c00c 	str	ip, [r1, #-12]
 c005d48:	e513c008 	ldr	ip, [r3, #-8]
 c005d4c:	e501c008 	str	ip, [r1, #-8]
 c005d50:	e513c004 	ldr	ip, [r3, #-4]
 c005d54:	e501c004 	str	ip, [r1, #-4]
 c005d58:	e061c002 	rsb	ip, r1, r2
 c005d5c:	e35c003f 	cmp	ip, #63	; 0x3f
 c005d60:	e1a04003 	mov	r4, r3
 c005d64:	e1a0c001 	mov	ip, r1
 c005d68:	e2833040 	add	r3, r3, #64	; 0x40
 c005d6c:	e2811040 	add	r1, r1, #64	; 0x40
 c005d70:	caffffd8 	bgt	c005cd8 <memcpy+0xb8>
 c005d74:	e1a03004 	mov	r3, r4
 c005d78:	ea000007 	b	c005d9c <memcpy+0x17c>
 c005d7c:	e5131010 	ldr	r1, [r3, #-16]
 c005d80:	e50c1010 	str	r1, [ip, #-16]
 c005d84:	e513100c 	ldr	r1, [r3, #-12]
 c005d88:	e50c100c 	str	r1, [ip, #-12]
 c005d8c:	e5131008 	ldr	r1, [r3, #-8]
 c005d90:	e50c1008 	str	r1, [ip, #-8]
 c005d94:	e5131004 	ldr	r1, [r3, #-4]
 c005d98:	e50c1004 	str	r1, [ip, #-4]
 c005d9c:	e1a0100c 	mov	r1, ip
 c005da0:	e06cc002 	rsb	ip, ip, r2
 c005da4:	e35c000f 	cmp	ip, #15
 c005da8:	e1a04003 	mov	r4, r3
 c005dac:	e281c010 	add	ip, r1, #16
 c005db0:	e2833010 	add	r3, r3, #16
 c005db4:	cafffff0 	bgt	c005d7c <memcpy+0x15c>
 c005db8:	e1a03004 	mov	r3, r4
 c005dbc:	ea000002 	b	c005dcc <memcpy+0x1ac>
 c005dc0:	e59cc000 	ldr	ip, [ip]
 c005dc4:	e481c004 	str	ip, [r1], #4
 c005dc8:	e2833004 	add	r3, r3, #4
 c005dcc:	e061c002 	rsb	ip, r1, r2
 c005dd0:	e35c0003 	cmp	ip, #3
 c005dd4:	e1a0c003 	mov	ip, r3
 c005dd8:	cafffff8 	bgt	c005dc0 <memcpy+0x1a0>
 c005ddc:	eaffffba 	b	c005ccc <memcpy+0xac>

0c005de0 <__malloc_lock>:
 c005de0:	e12fff1e 	bx	lr

0c005de4 <__malloc_unlock>:
 c005de4:	e12fff1e 	bx	lr

0c005de8 <_Balloc>:
 c005de8:	e590304c 	ldr	r3, [r0, #76]	; 0x4c
 c005dec:	e3530000 	cmp	r3, #0
 c005df0:	e92d4070 	push	{r4, r5, r6, lr}
 c005df4:	e1a05000 	mov	r5, r0
 c005df8:	e1a04001 	mov	r4, r1
 c005dfc:	0a000009 	beq	c005e28 <_Balloc+0x40>
 c005e00:	e7930104 	ldr	r0, [r3, r4, lsl #2]
 c005e04:	e3500000 	cmp	r0, #0
 c005e08:	0a00000e 	beq	c005e48 <_Balloc+0x60>
 c005e0c:	e5902000 	ldr	r2, [r0]
 c005e10:	e7832104 	str	r2, [r3, r4, lsl #2]
 c005e14:	e3a03000 	mov	r3, #0
 c005e18:	e5803010 	str	r3, [r0, #16]
 c005e1c:	e580300c 	str	r3, [r0, #12]
 c005e20:	e8bd4070 	pop	{r4, r5, r6, lr}
 c005e24:	e12fff1e 	bx	lr
 c005e28:	e3a01004 	mov	r1, #4
 c005e2c:	e3a02021 	mov	r2, #33	; 0x21
 c005e30:	eb000890 	bl	c008078 <_calloc_r>
 c005e34:	e3500000 	cmp	r0, #0
 c005e38:	e1a03000 	mov	r3, r0
 c005e3c:	e585004c 	str	r0, [r5, #76]	; 0x4c
 c005e40:	1affffee 	bne	c005e00 <_Balloc+0x18>
 c005e44:	eafffff5 	b	c005e20 <_Balloc+0x38>
 c005e48:	e3a01001 	mov	r1, #1
 c005e4c:	e1a06411 	lsl	r6, r1, r4
 c005e50:	e2862005 	add	r2, r6, #5
 c005e54:	e1a00005 	mov	r0, r5
 c005e58:	e1a02102 	lsl	r2, r2, #2
 c005e5c:	eb000885 	bl	c008078 <_calloc_r>
 c005e60:	e3500000 	cmp	r0, #0
 c005e64:	0affffed 	beq	c005e20 <_Balloc+0x38>
 c005e68:	e9800050 	stmib	r0, {r4, r6}
 c005e6c:	eaffffe8 	b	c005e14 <_Balloc+0x2c>

0c005e70 <_Bfree>:
 c005e70:	e3510000 	cmp	r1, #0
 c005e74:	1590304c 	ldrne	r3, [r0, #76]	; 0x4c
 c005e78:	15912004 	ldrne	r2, [r1, #4]
 c005e7c:	17930102 	ldrne	r0, [r3, r2, lsl #2]
 c005e80:	15810000 	strne	r0, [r1]
 c005e84:	17831102 	strne	r1, [r3, r2, lsl #2]
 c005e88:	e12fff1e 	bx	lr

0c005e8c <__multadd>:
 c005e8c:	e92d40f0 	push	{r4, r5, r6, r7, lr}
 c005e90:	e1a05001 	mov	r5, r1
 c005e94:	e5914010 	ldr	r4, [r1, #16]
 c005e98:	e1a06000 	mov	r6, r0
 c005e9c:	e24dd00c 	sub	sp, sp, #12
 c005ea0:	e2810014 	add	r0, r1, #20
 c005ea4:	e3a01000 	mov	r1, #0
 c005ea8:	e590c000 	ldr	ip, [r0]
 c005eac:	e1a0780c 	lsl	r7, ip, #16
 c005eb0:	e1a07827 	lsr	r7, r7, #16
 c005eb4:	e0233297 	mla	r3, r7, r2, r3
 c005eb8:	e1a0c82c 	lsr	ip, ip, #16
 c005ebc:	e007029c 	mul	r7, ip, r2
 c005ec0:	e1a0c803 	lsl	ip, r3, #16
 c005ec4:	e1a0c82c 	lsr	ip, ip, #16
 c005ec8:	e0873823 	add	r3, r7, r3, lsr #16
 c005ecc:	e2811001 	add	r1, r1, #1
 c005ed0:	e08cc803 	add	ip, ip, r3, lsl #16
 c005ed4:	e1540001 	cmp	r4, r1
 c005ed8:	e1a03823 	lsr	r3, r3, #16
 c005edc:	e480c004 	str	ip, [r0], #4
 c005ee0:	cafffff0 	bgt	c005ea8 <__multadd+0x1c>
 c005ee4:	e3530000 	cmp	r3, #0
 c005ee8:	0a000006 	beq	c005f08 <__multadd+0x7c>
 c005eec:	e5952008 	ldr	r2, [r5, #8]
 c005ef0:	e1540002 	cmp	r4, r2
 c005ef4:	aa000007 	bge	c005f18 <__multadd+0x8c>
 c005ef8:	e0852104 	add	r2, r5, r4, lsl #2
 c005efc:	e2844001 	add	r4, r4, #1
 c005f00:	e5823014 	str	r3, [r2, #20]
 c005f04:	e5854010 	str	r4, [r5, #16]
 c005f08:	e1a00005 	mov	r0, r5
 c005f0c:	e28dd00c 	add	sp, sp, #12
 c005f10:	e8bd40f0 	pop	{r4, r5, r6, r7, lr}
 c005f14:	e12fff1e 	bx	lr
 c005f18:	e5951004 	ldr	r1, [r5, #4]
 c005f1c:	e1a00006 	mov	r0, r6
 c005f20:	e2811001 	add	r1, r1, #1
 c005f24:	e58d3004 	str	r3, [sp, #4]
 c005f28:	ebffffae 	bl	c005de8 <_Balloc>
 c005f2c:	e5952010 	ldr	r2, [r5, #16]
 c005f30:	e2822002 	add	r2, r2, #2
 c005f34:	e285100c 	add	r1, r5, #12
 c005f38:	e1a07000 	mov	r7, r0
 c005f3c:	e1a02102 	lsl	r2, r2, #2
 c005f40:	e280000c 	add	r0, r0, #12
 c005f44:	ebffff35 	bl	c005c20 <memcpy>
 c005f48:	e5951004 	ldr	r1, [r5, #4]
 c005f4c:	e596204c 	ldr	r2, [r6, #76]	; 0x4c
 c005f50:	e7920101 	ldr	r0, [r2, r1, lsl #2]
 c005f54:	e59d3004 	ldr	r3, [sp, #4]
 c005f58:	e5850000 	str	r0, [r5]
 c005f5c:	e7825101 	str	r5, [r2, r1, lsl #2]
 c005f60:	e1a05007 	mov	r5, r7
 c005f64:	eaffffe3 	b	c005ef8 <__multadd+0x6c>

0c005f68 <__s2b>:
 c005f68:	e92d45f8 	push	{r3, r4, r5, r6, r7, r8, sl, lr}
 c005f6c:	e283c008 	add	ip, r3, #8
 c005f70:	e1a07003 	mov	r7, r3
 c005f74:	e59f30d4 	ldr	r3, [pc, #212]	; c006050 <__s2b+0xe8>
 c005f78:	e0c3e39c 	smull	lr, r3, ip, r3
 c005f7c:	e1a0cfcc 	asr	ip, ip, #31
 c005f80:	e06c30c3 	rsb	r3, ip, r3, asr #1
 c005f84:	e3530001 	cmp	r3, #1
 c005f88:	e1a06001 	mov	r6, r1
 c005f8c:	e1a04000 	mov	r4, r0
 c005f90:	e1a08002 	mov	r8, r2
 c005f94:	d3a01000 	movle	r1, #0
 c005f98:	da000005 	ble	c005fb4 <__s2b+0x4c>
 c005f9c:	e3a02001 	mov	r2, #1
 c005fa0:	e3a01000 	mov	r1, #0
 c005fa4:	e1a02082 	lsl	r2, r2, #1
 c005fa8:	e1530002 	cmp	r3, r2
 c005fac:	e2811001 	add	r1, r1, #1
 c005fb0:	cafffffb 	bgt	c005fa4 <__s2b+0x3c>
 c005fb4:	e1a00004 	mov	r0, r4
 c005fb8:	ebffff8a 	bl	c005de8 <_Balloc>
 c005fbc:	e59d3020 	ldr	r3, [sp, #32]
 c005fc0:	e3580009 	cmp	r8, #9
 c005fc4:	e5803014 	str	r3, [r0, #20]
 c005fc8:	e3a03001 	mov	r3, #1
 c005fcc:	e1a01000 	mov	r1, r0
 c005fd0:	e5803010 	str	r3, [r0, #16]
 c005fd4:	d286600a 	addle	r6, r6, #10
 c005fd8:	d3a08009 	movle	r8, #9
 c005fdc:	da00000c 	ble	c006014 <__s2b+0xac>
 c005fe0:	e286a009 	add	sl, r6, #9
 c005fe4:	e1a0500a 	mov	r5, sl
 c005fe8:	e0866008 	add	r6, r6, r8
 c005fec:	e4d53001 	ldrb	r3, [r5], #1
 c005ff0:	e1a00004 	mov	r0, r4
 c005ff4:	e3a0200a 	mov	r2, #10
 c005ff8:	e2433030 	sub	r3, r3, #48	; 0x30
 c005ffc:	ebffffa2 	bl	c005e8c <__multadd>
 c006000:	e1550006 	cmp	r5, r6
 c006004:	e1a01000 	mov	r1, r0
 c006008:	1afffff7 	bne	c005fec <__s2b+0x84>
 c00600c:	e08a6008 	add	r6, sl, r8
 c006010:	e2466008 	sub	r6, r6, #8
 c006014:	e1570008 	cmp	r7, r8
 c006018:	da000009 	ble	c006044 <__s2b+0xdc>
 c00601c:	e0867007 	add	r7, r6, r7
 c006020:	e0687007 	rsb	r7, r8, r7
 c006024:	e4d63001 	ldrb	r3, [r6], #1
 c006028:	e1a00004 	mov	r0, r4
 c00602c:	e3a0200a 	mov	r2, #10
 c006030:	e2433030 	sub	r3, r3, #48	; 0x30
 c006034:	ebffff94 	bl	c005e8c <__multadd>
 c006038:	e1560007 	cmp	r6, r7
 c00603c:	e1a01000 	mov	r1, r0
 c006040:	1afffff7 	bne	c006024 <__s2b+0xbc>
 c006044:	e1a00001 	mov	r0, r1
 c006048:	e8bd45f8 	pop	{r3, r4, r5, r6, r7, r8, sl, lr}
 c00604c:	e12fff1e 	bx	lr
 c006050:	38e38e39 	.word	0x38e38e39

0c006054 <__hi0bits>:
 c006054:	e1b02820 	lsrs	r2, r0, #16
 c006058:	e1a03000 	mov	r3, r0
 c00605c:	01a03800 	lsleq	r3, r0, #16
 c006060:	13a00000 	movne	r0, #0
 c006064:	03a00010 	moveq	r0, #16
 c006068:	e31304ff 	tst	r3, #-16777216	; 0xff000000
 c00606c:	01a03403 	lsleq	r3, r3, #8
 c006070:	02800008 	addeq	r0, r0, #8
 c006074:	e313020f 	tst	r3, #-268435456	; 0xf0000000
 c006078:	01a03203 	lsleq	r3, r3, #4
 c00607c:	02800004 	addeq	r0, r0, #4
 c006080:	e3130103 	tst	r3, #-1073741824	; 0xc0000000
 c006084:	01a03103 	lsleq	r3, r3, #2
 c006088:	02800002 	addeq	r0, r0, #2
 c00608c:	e3530000 	cmp	r3, #0
 c006090:	b12fff1e 	bxlt	lr
 c006094:	e3130101 	tst	r3, #1073741824	; 0x40000000
 c006098:	12800001 	addne	r0, r0, #1
 c00609c:	03a00020 	moveq	r0, #32
 c0060a0:	e12fff1e 	bx	lr

0c0060a4 <__lo0bits>:
 c0060a4:	e5903000 	ldr	r3, [r0]
 c0060a8:	e1a02000 	mov	r2, r0
 c0060ac:	e2130007 	ands	r0, r3, #7
 c0060b0:	0a00000a 	beq	c0060e0 <__lo0bits+0x3c>
 c0060b4:	e3130001 	tst	r3, #1
 c0060b8:	13a00000 	movne	r0, #0
 c0060bc:	112fff1e 	bxne	lr
 c0060c0:	e3130002 	tst	r3, #2
 c0060c4:	11a030a3 	lsrne	r3, r3, #1
 c0060c8:	01a03123 	lsreq	r3, r3, #2
 c0060cc:	15823000 	strne	r3, [r2]
 c0060d0:	13a00001 	movne	r0, #1
 c0060d4:	05823000 	streq	r3, [r2]
 c0060d8:	03a00002 	moveq	r0, #2
 c0060dc:	e12fff1e 	bx	lr
 c0060e0:	e1b01803 	lsls	r1, r3, #16
 c0060e4:	01a03823 	lsreq	r3, r3, #16
 c0060e8:	03a00010 	moveq	r0, #16
 c0060ec:	e31300ff 	tst	r3, #255	; 0xff
 c0060f0:	01a03423 	lsreq	r3, r3, #8
 c0060f4:	02800008 	addeq	r0, r0, #8
 c0060f8:	e313000f 	tst	r3, #15
 c0060fc:	01a03223 	lsreq	r3, r3, #4
 c006100:	02800004 	addeq	r0, r0, #4
 c006104:	e3130003 	tst	r3, #3
 c006108:	01a03123 	lsreq	r3, r3, #2
 c00610c:	02800002 	addeq	r0, r0, #2
 c006110:	e3130001 	tst	r3, #1
 c006114:	1a000002 	bne	c006124 <__lo0bits+0x80>
 c006118:	e1b030a3 	lsrs	r3, r3, #1
 c00611c:	0a000002 	beq	c00612c <__lo0bits+0x88>
 c006120:	e2800001 	add	r0, r0, #1
 c006124:	e5823000 	str	r3, [r2]
 c006128:	e12fff1e 	bx	lr
 c00612c:	e3a00020 	mov	r0, #32
 c006130:	e12fff1e 	bx	lr

0c006134 <__i2b>:
 c006134:	e92d4010 	push	{r4, lr}
 c006138:	e1a04001 	mov	r4, r1
 c00613c:	e3a01001 	mov	r1, #1
 c006140:	ebffff28 	bl	c005de8 <_Balloc>
 c006144:	e3a02001 	mov	r2, #1
 c006148:	e5804014 	str	r4, [r0, #20]
 c00614c:	e5802010 	str	r2, [r0, #16]
 c006150:	e8bd4010 	pop	{r4, lr}
 c006154:	e12fff1e 	bx	lr

0c006158 <__multiply>:
 c006158:	e92d4ff0 	push	{r4, r5, r6, r7, r8, r9, sl, fp, lr}
 c00615c:	e5918010 	ldr	r8, [r1, #16]
 c006160:	e592a010 	ldr	sl, [r2, #16]
 c006164:	e1a06002 	mov	r6, r2
 c006168:	e158000a 	cmp	r8, sl
 c00616c:	b1a02008 	movlt	r2, r8
 c006170:	e1a07001 	mov	r7, r1
 c006174:	b1a07006 	movlt	r7, r6
 c006178:	b1a0800a 	movlt	r8, sl
 c00617c:	e5973008 	ldr	r3, [r7, #8]
 c006180:	b1a0a002 	movlt	sl, r2
 c006184:	b1a06001 	movlt	r6, r1
 c006188:	e08a4008 	add	r4, sl, r8
 c00618c:	e5971004 	ldr	r1, [r7, #4]
 c006190:	e1540003 	cmp	r4, r3
 c006194:	e24dd014 	sub	sp, sp, #20
 c006198:	c2811001 	addgt	r1, r1, #1
 c00619c:	ebffff11 	bl	c005de8 <_Balloc>
 c0061a0:	e080b104 	add	fp, r0, r4, lsl #2
 c0061a4:	e2805014 	add	r5, r0, #20
 c0061a8:	e28bb014 	add	fp, fp, #20
 c0061ac:	e155000b 	cmp	r5, fp
 c0061b0:	e58d0004 	str	r0, [sp, #4]
 c0061b4:	2a000004 	bcs	c0061cc <__multiply+0x74>
 c0061b8:	e1a03005 	mov	r3, r5
 c0061bc:	e3a02000 	mov	r2, #0
 c0061c0:	e4832004 	str	r2, [r3], #4
 c0061c4:	e15b0003 	cmp	fp, r3
 c0061c8:	8afffffc 	bhi	c0061c0 <__multiply+0x68>
 c0061cc:	e086a10a 	add	sl, r6, sl, lsl #2
 c0061d0:	e28aa014 	add	sl, sl, #20
 c0061d4:	e2866014 	add	r6, r6, #20
 c0061d8:	e087c108 	add	ip, r7, r8, lsl #2
 c0061dc:	e156000a 	cmp	r6, sl
 c0061e0:	e2877014 	add	r7, r7, #20
 c0061e4:	e28cc014 	add	ip, ip, #20
 c0061e8:	2a000042 	bcs	c0062f8 <__multiply+0x1a0>
 c0061ec:	e58db008 	str	fp, [sp, #8]
 c0061f0:	e58d400c 	str	r4, [sp, #12]
 c0061f4:	e1a0b007 	mov	fp, r7
 c0061f8:	e1a0400a 	mov	r4, sl
 c0061fc:	e4968004 	ldr	r8, [r6], #4
 c006200:	e1a0a808 	lsl	sl, r8, #16
 c006204:	e1b0a82a 	lsrs	sl, sl, #16
 c006208:	0a000019 	beq	c006274 <__multiply+0x11c>
 c00620c:	e1a0200b 	mov	r2, fp
 c006210:	e1a03005 	mov	r3, r5
 c006214:	e3a07000 	mov	r7, #0
 c006218:	e1a09006 	mov	r9, r6
 c00621c:	e4920004 	ldr	r0, [r2], #4
 c006220:	e5931000 	ldr	r1, [r3]
 c006224:	e1a08800 	lsl	r8, r0, #16
 c006228:	e1a06801 	lsl	r6, r1, #16
 c00622c:	e1a08828 	lsr	r8, r8, #16
 c006230:	e1a06826 	lsr	r6, r6, #16
 c006234:	e026689a 	mla	r6, sl, r8, r6
 c006238:	e1a01821 	lsr	r1, r1, #16
 c00623c:	e1a00820 	lsr	r0, r0, #16
 c006240:	e020109a 	mla	r0, sl, r0, r1
 c006244:	e0867007 	add	r7, r6, r7
 c006248:	e1a01807 	lsl	r1, r7, #16
 c00624c:	e1a01821 	lsr	r1, r1, #16
 c006250:	e0807827 	add	r7, r0, r7, lsr #16
 c006254:	e1811807 	orr	r1, r1, r7, lsl #16
 c006258:	e15c0002 	cmp	ip, r2
 c00625c:	e1a07827 	lsr	r7, r7, #16
 c006260:	e4831004 	str	r1, [r3], #4
 c006264:	8affffec 	bhi	c00621c <__multiply+0xc4>
 c006268:	e5837000 	str	r7, [r3]
 c00626c:	e5198004 	ldr	r8, [r9, #-4]
 c006270:	e1a06009 	mov	r6, r9
 c006274:	e1b08828 	lsrs	r8, r8, #16
 c006278:	0a000019 	beq	c0062e4 <__multiply+0x18c>
 c00627c:	e5952000 	ldr	r2, [r5]
 c006280:	e1a0300b 	mov	r3, fp
 c006284:	e1a07005 	mov	r7, r5
 c006288:	e1a0a005 	mov	sl, r5
 c00628c:	e1a01002 	mov	r1, r2
 c006290:	e3a00000 	mov	r0, #0
 c006294:	e1a09006 	mov	r9, r6
 c006298:	e1d360b0 	ldrh	r6, [r3]
 c00629c:	e0200896 	mla	r0, r6, r8, r0
 c0062a0:	e1a02802 	lsl	r2, r2, #16
 c0062a4:	e0800821 	add	r0, r0, r1, lsr #16
 c0062a8:	e1a02822 	lsr	r2, r2, #16
 c0062ac:	e1822800 	orr	r2, r2, r0, lsl #16
 c0062b0:	e4872004 	str	r2, [r7], #4
 c0062b4:	e5ba1004 	ldr	r1, [sl, #4]!
 c0062b8:	e4936004 	ldr	r6, [r3], #4
 c0062bc:	e1a02801 	lsl	r2, r1, #16
 c0062c0:	e1a06826 	lsr	r6, r6, #16
 c0062c4:	e1a02822 	lsr	r2, r2, #16
 c0062c8:	e0222896 	mla	r2, r6, r8, r2
 c0062cc:	e15c0003 	cmp	ip, r3
 c0062d0:	e0822820 	add	r2, r2, r0, lsr #16
 c0062d4:	e1a00822 	lsr	r0, r2, #16
 c0062d8:	8affffee 	bhi	c006298 <__multiply+0x140>
 c0062dc:	e5872000 	str	r2, [r7]
 c0062e0:	e1a06009 	mov	r6, r9
 c0062e4:	e1540006 	cmp	r4, r6
 c0062e8:	82855004 	addhi	r5, r5, #4
 c0062ec:	8affffc2 	bhi	c0061fc <__multiply+0xa4>
 c0062f0:	e59db008 	ldr	fp, [sp, #8]
 c0062f4:	e59d400c 	ldr	r4, [sp, #12]
 c0062f8:	e3540000 	cmp	r4, #0
 c0062fc:	da000009 	ble	c006328 <__multiply+0x1d0>
 c006300:	e51b3004 	ldr	r3, [fp, #-4]
 c006304:	e3530000 	cmp	r3, #0
 c006308:	e24bb004 	sub	fp, fp, #4
 c00630c:	0a000003 	beq	c006320 <__multiply+0x1c8>
 c006310:	ea000004 	b	c006328 <__multiply+0x1d0>
 c006314:	e53b3004 	ldr	r3, [fp, #-4]!
 c006318:	e3530000 	cmp	r3, #0
 c00631c:	1a000001 	bne	c006328 <__multiply+0x1d0>
 c006320:	e2544001 	subs	r4, r4, #1
 c006324:	1afffffa 	bne	c006314 <__multiply+0x1bc>
 c006328:	e59d3004 	ldr	r3, [sp, #4]
 c00632c:	e5834010 	str	r4, [r3, #16]
 c006330:	e1a00003 	mov	r0, r3
 c006334:	e28dd014 	add	sp, sp, #20
 c006338:	e8bd4ff0 	pop	{r4, r5, r6, r7, r8, r9, sl, fp, lr}
 c00633c:	e12fff1e 	bx	lr

0c006340 <__pow5mult>:
 c006340:	e2123003 	ands	r3, r2, #3
 c006344:	e92d41f0 	push	{r4, r5, r6, r7, r8, lr}
 c006348:	e1a05002 	mov	r5, r2
 c00634c:	e1a04000 	mov	r4, r0
 c006350:	e1a08001 	mov	r8, r1
 c006354:	1a000025 	bne	c0063f0 <__pow5mult+0xb0>
 c006358:	e1b05145 	asrs	r5, r5, #2
 c00635c:	0a000018 	beq	c0063c4 <__pow5mult+0x84>
 c006360:	e5947048 	ldr	r7, [r4, #72]	; 0x48
 c006364:	e3570000 	cmp	r7, #0
 c006368:	1a000006 	bne	c006388 <__pow5mult+0x48>
 c00636c:	ea000026 	b	c00640c <__pow5mult+0xcc>
 c006370:	e1b050c5 	asrs	r5, r5, #1
 c006374:	0a000012 	beq	c0063c4 <__pow5mult+0x84>
 c006378:	e5976000 	ldr	r6, [r7]
 c00637c:	e3560000 	cmp	r6, #0
 c006380:	11a07006 	movne	r7, r6
 c006384:	0a000011 	beq	c0063d0 <__pow5mult+0x90>
 c006388:	e3150001 	tst	r5, #1
 c00638c:	0afffff7 	beq	c006370 <__pow5mult+0x30>
 c006390:	e1a01008 	mov	r1, r8
 c006394:	e1a02007 	mov	r2, r7
 c006398:	e1a00004 	mov	r0, r4
 c00639c:	ebffff6d 	bl	c006158 <__multiply>
 c0063a0:	e3580000 	cmp	r8, #0
 c0063a4:	15982004 	ldrne	r2, [r8, #4]
 c0063a8:	1594304c 	ldrne	r3, [r4, #76]	; 0x4c
 c0063ac:	17931102 	ldrne	r1, [r3, r2, lsl #2]
 c0063b0:	15881000 	strne	r1, [r8]
 c0063b4:	17838102 	strne	r8, [r3, r2, lsl #2]
 c0063b8:	e1b050c5 	asrs	r5, r5, #1
 c0063bc:	e1a08000 	mov	r8, r0
 c0063c0:	1affffec 	bne	c006378 <__pow5mult+0x38>
 c0063c4:	e1a00008 	mov	r0, r8
 c0063c8:	e8bd41f0 	pop	{r4, r5, r6, r7, r8, lr}
 c0063cc:	e12fff1e 	bx	lr
 c0063d0:	e1a01007 	mov	r1, r7
 c0063d4:	e1a02007 	mov	r2, r7
 c0063d8:	e1a00004 	mov	r0, r4
 c0063dc:	ebffff5d 	bl	c006158 <__multiply>
 c0063e0:	e5870000 	str	r0, [r7]
 c0063e4:	e5806000 	str	r6, [r0]
 c0063e8:	e1a07000 	mov	r7, r0
 c0063ec:	eaffffe5 	b	c006388 <__pow5mult+0x48>
 c0063f0:	e59f2034 	ldr	r2, [pc, #52]	; c00642c <__pow5mult+0xec>
 c0063f4:	e2433001 	sub	r3, r3, #1
 c0063f8:	e7922103 	ldr	r2, [r2, r3, lsl #2]
 c0063fc:	e3a03000 	mov	r3, #0
 c006400:	ebfffea1 	bl	c005e8c <__multadd>
 c006404:	e1a08000 	mov	r8, r0
 c006408:	eaffffd2 	b	c006358 <__pow5mult+0x18>
 c00640c:	e1a00004 	mov	r0, r4
 c006410:	e59f1018 	ldr	r1, [pc, #24]	; c006430 <__pow5mult+0xf0>
 c006414:	ebffff46 	bl	c006134 <__i2b>
 c006418:	e3a03000 	mov	r3, #0
 c00641c:	e5840048 	str	r0, [r4, #72]	; 0x48
 c006420:	e1a07000 	mov	r7, r0
 c006424:	e5803000 	str	r3, [r0]
 c006428:	eaffffd6 	b	c006388 <__pow5mult+0x48>
 c00642c:	0c00ae50 	.word	0x0c00ae50
 c006430:	00000271 	.word	0x00000271

0c006434 <__lshift>:
 c006434:	e92d45f8 	push	{r3, r4, r5, r6, r7, r8, sl, lr}
 c006438:	e5915010 	ldr	r5, [r1, #16]
 c00643c:	e5913008 	ldr	r3, [r1, #8]
 c006440:	e1a062c2 	asr	r6, r2, #5
 c006444:	e2855001 	add	r5, r5, #1
 c006448:	e0855006 	add	r5, r5, r6
 c00644c:	e1550003 	cmp	r5, r3
 c006450:	e1a04001 	mov	r4, r1
 c006454:	e1a07002 	mov	r7, r2
 c006458:	e1a08000 	mov	r8, r0
 c00645c:	e5911004 	ldr	r1, [r1, #4]
 c006460:	da000003 	ble	c006474 <__lshift+0x40>
 c006464:	e1a03083 	lsl	r3, r3, #1
 c006468:	e1550003 	cmp	r5, r3
 c00646c:	e2811001 	add	r1, r1, #1
 c006470:	cafffffb 	bgt	c006464 <__lshift+0x30>
 c006474:	e1a00008 	mov	r0, r8
 c006478:	ebfffe5a 	bl	c005de8 <_Balloc>
 c00647c:	e3560000 	cmp	r6, #0
 c006480:	e2802014 	add	r2, r0, #20
 c006484:	da000007 	ble	c0064a8 <__lshift+0x74>
 c006488:	e3a03000 	mov	r3, #0
 c00648c:	e1a01003 	mov	r1, r3
 c006490:	e2833001 	add	r3, r3, #1
 c006494:	e1530006 	cmp	r3, r6
 c006498:	e4821004 	str	r1, [r2], #4
 c00649c:	1afffffb 	bne	c006490 <__lshift+0x5c>
 c0064a0:	e0803103 	add	r3, r0, r3, lsl #2
 c0064a4:	e2832014 	add	r2, r3, #20
 c0064a8:	e5946010 	ldr	r6, [r4, #16]
 c0064ac:	e217701f 	ands	r7, r7, #31
 c0064b0:	e0846106 	add	r6, r4, r6, lsl #2
 c0064b4:	e2841014 	add	r1, r4, #20
 c0064b8:	e2866014 	add	r6, r6, #20
 c0064bc:	0a000014 	beq	c006514 <__lshift+0xe0>
 c0064c0:	e2673020 	rsb	r3, r7, #32
 c0064c4:	e3a0c000 	mov	ip, #0
 c0064c8:	e591a000 	ldr	sl, [r1]
 c0064cc:	e18cc71a 	orr	ip, ip, sl, lsl r7
 c0064d0:	e482c004 	str	ip, [r2], #4
 c0064d4:	e491c004 	ldr	ip, [r1], #4
 c0064d8:	e1560001 	cmp	r6, r1
 c0064dc:	e1a0c33c 	lsr	ip, ip, r3
 c0064e0:	8afffff8 	bhi	c0064c8 <__lshift+0x94>
 c0064e4:	e35c0000 	cmp	ip, #0
 c0064e8:	e582c000 	str	ip, [r2]
 c0064ec:	12855001 	addne	r5, r5, #1
 c0064f0:	e598304c 	ldr	r3, [r8, #76]	; 0x4c
 c0064f4:	e5942004 	ldr	r2, [r4, #4]
 c0064f8:	e7931102 	ldr	r1, [r3, r2, lsl #2]
 c0064fc:	e2455001 	sub	r5, r5, #1
 c006500:	e5805010 	str	r5, [r0, #16]
 c006504:	e5841000 	str	r1, [r4]
 c006508:	e7834102 	str	r4, [r3, r2, lsl #2]
 c00650c:	e8bd45f8 	pop	{r3, r4, r5, r6, r7, r8, sl, lr}
 c006510:	e12fff1e 	bx	lr
 c006514:	e4913004 	ldr	r3, [r1], #4
 c006518:	e1560001 	cmp	r6, r1
 c00651c:	e4823004 	str	r3, [r2], #4
 c006520:	9afffff2 	bls	c0064f0 <__lshift+0xbc>
 c006524:	e4913004 	ldr	r3, [r1], #4
 c006528:	e1560001 	cmp	r6, r1
 c00652c:	e4823004 	str	r3, [r2], #4
 c006530:	8afffff7 	bhi	c006514 <__lshift+0xe0>
 c006534:	eaffffed 	b	c0064f0 <__lshift+0xbc>

0c006538 <__mcmp>:
 c006538:	e1a03000 	mov	r3, r0
 c00653c:	e5912010 	ldr	r2, [r1, #16]
 c006540:	e5900010 	ldr	r0, [r0, #16]
 c006544:	e0500002 	subs	r0, r0, r2
 c006548:	e52d4004 	push	{r4}		; (str r4, [sp, #-4]!)
 c00654c:	1a00000c 	bne	c006584 <__mcmp+0x4c>
 c006550:	e2822004 	add	r2, r2, #4
 c006554:	e1a0c102 	lsl	ip, r2, #2
 c006558:	e083200c 	add	r2, r3, ip
 c00655c:	e081100c 	add	r1, r1, ip
 c006560:	e2833014 	add	r3, r3, #20
 c006564:	e2822004 	add	r2, r2, #4
 c006568:	e2811004 	add	r1, r1, #4
 c00656c:	e5324004 	ldr	r4, [r2, #-4]!
 c006570:	e531c004 	ldr	ip, [r1, #-4]!
 c006574:	e154000c 	cmp	r4, ip
 c006578:	1a000003 	bne	c00658c <__mcmp+0x54>
 c00657c:	e1530002 	cmp	r3, r2
 c006580:	3afffff9 	bcc	c00656c <__mcmp+0x34>
 c006584:	e49d4004 	pop	{r4}		; (ldr r4, [sp], #4)
 c006588:	e12fff1e 	bx	lr
 c00658c:	33e00000 	mvncc	r0, #0
 c006590:	23a00001 	movcs	r0, #1
 c006594:	eafffffa 	b	c006584 <__mcmp+0x4c>

0c006598 <__mdiff>:
 c006598:	e92d47f0 	push	{r4, r5, r6, r7, r8, r9, sl, lr}
 c00659c:	e1a04001 	mov	r4, r1
 c0065a0:	e1a06000 	mov	r6, r0
 c0065a4:	e1a01002 	mov	r1, r2
 c0065a8:	e1a00004 	mov	r0, r4
 c0065ac:	e1a05002 	mov	r5, r2
 c0065b0:	ebffffe0 	bl	c006538 <__mcmp>
 c0065b4:	e2507000 	subs	r7, r0, #0
 c0065b8:	0a000045 	beq	c0066d4 <__mdiff+0x13c>
 c0065bc:	b1a03004 	movlt	r3, r4
 c0065c0:	b1a04005 	movlt	r4, r5
 c0065c4:	e5941004 	ldr	r1, [r4, #4]
 c0065c8:	e1a00006 	mov	r0, r6
 c0065cc:	b1a05003 	movlt	r5, r3
 c0065d0:	a3a07000 	movge	r7, #0
 c0065d4:	b3a07001 	movlt	r7, #1
 c0065d8:	ebfffe02 	bl	c005de8 <_Balloc>
 c0065dc:	e5946010 	ldr	r6, [r4, #16]
 c0065e0:	e595c010 	ldr	ip, [r5, #16]
 c0065e4:	e0843106 	add	r3, r4, r6, lsl #2
 c0065e8:	e085c10c 	add	ip, r5, ip, lsl #2
 c0065ec:	e580700c 	str	r7, [r0, #12]
 c0065f0:	e28cc014 	add	ip, ip, #20
 c0065f4:	e2837014 	add	r7, r3, #20
 c0065f8:	e2844014 	add	r4, r4, #20
 c0065fc:	e2855014 	add	r5, r5, #20
 c006600:	e2808014 	add	r8, r0, #20
 c006604:	e3a01000 	mov	r1, #0
 c006608:	e4952004 	ldr	r2, [r5], #4
 c00660c:	e4943004 	ldr	r3, [r4], #4
 c006610:	e1a0a802 	lsl	sl, r2, #16
 c006614:	e1a09803 	lsl	r9, r3, #16
 c006618:	e1a0a82a 	lsr	sl, sl, #16
 c00661c:	e06aa829 	rsb	sl, sl, r9, lsr #16
 c006620:	e08a1001 	add	r1, sl, r1
 c006624:	e1a02822 	lsr	r2, r2, #16
 c006628:	e0623823 	rsb	r3, r2, r3, lsr #16
 c00662c:	e1a02801 	lsl	r2, r1, #16
 c006630:	e1a02822 	lsr	r2, r2, #16
 c006634:	e0831841 	add	r1, r3, r1, asr #16
 c006638:	e1822801 	orr	r2, r2, r1, lsl #16
 c00663c:	e1a03008 	mov	r3, r8
 c006640:	e4832004 	str	r2, [r3], #4
 c006644:	e15c0005 	cmp	ip, r5
 c006648:	e1a02004 	mov	r2, r4
 c00664c:	e1a01841 	asr	r1, r1, #16
 c006650:	e1a08003 	mov	r8, r3
 c006654:	8affffeb 	bhi	c006608 <__mdiff+0x70>
 c006658:	e1570004 	cmp	r7, r4
 c00665c:	e1a05003 	mov	r5, r3
 c006660:	9a000010 	bls	c0066a8 <__mdiff+0x110>
 c006664:	e492c004 	ldr	ip, [r2], #4
 c006668:	e1a0880c 	lsl	r8, ip, #16
 c00666c:	e0811828 	add	r1, r1, r8, lsr #16
 c006670:	e1a0882c 	lsr	r8, ip, #16
 c006674:	e1a0c801 	lsl	ip, r1, #16
 c006678:	e1a0c82c 	lsr	ip, ip, #16
 c00667c:	e0881841 	add	r1, r8, r1, asr #16
 c006680:	e18cc801 	orr	ip, ip, r1, lsl #16
 c006684:	e1570002 	cmp	r7, r2
 c006688:	e1a01841 	asr	r1, r1, #16
 c00668c:	e483c004 	str	ip, [r3], #4
 c006690:	8afffff3 	bhi	c006664 <__mdiff+0xcc>
 c006694:	e1e03004 	mvn	r3, r4
 c006698:	e0833007 	add	r3, r3, r7
 c00669c:	e3c33003 	bic	r3, r3, #3
 c0066a0:	e2833004 	add	r3, r3, #4
 c0066a4:	e0853003 	add	r3, r5, r3
 c0066a8:	e5132004 	ldr	r2, [r3, #-4]
 c0066ac:	e3520000 	cmp	r2, #0
 c0066b0:	e2433004 	sub	r3, r3, #4
 c0066b4:	1a000003 	bne	c0066c8 <__mdiff+0x130>
 c0066b8:	e5332004 	ldr	r2, [r3, #-4]!
 c0066bc:	e3520000 	cmp	r2, #0
 c0066c0:	e2466001 	sub	r6, r6, #1
 c0066c4:	0afffffb 	beq	c0066b8 <__mdiff+0x120>
 c0066c8:	e5806010 	str	r6, [r0, #16]
 c0066cc:	e8bd47f0 	pop	{r4, r5, r6, r7, r8, r9, sl, lr}
 c0066d0:	e12fff1e 	bx	lr
 c0066d4:	e1a00006 	mov	r0, r6
 c0066d8:	e1a01007 	mov	r1, r7
 c0066dc:	ebfffdc1 	bl	c005de8 <_Balloc>
 c0066e0:	e3a03001 	mov	r3, #1
 c0066e4:	e5803010 	str	r3, [r0, #16]
 c0066e8:	e5807014 	str	r7, [r0, #20]
 c0066ec:	eafffff6 	b	c0066cc <__mdiff+0x134>

0c0066f0 <__ulp>:
 c0066f0:	e59f3054 	ldr	r3, [pc, #84]	; c00674c <__ulp+0x5c>
 c0066f4:	e0013003 	and	r3, r1, r3
 c0066f8:	e243350d 	sub	r3, r3, #54525952	; 0x3400000
 c0066fc:	e3530000 	cmp	r3, #0
 c006700:	c1a01003 	movgt	r1, r3
 c006704:	c3a00000 	movgt	r0, #0
 c006708:	c12fff1e 	bxgt	lr
 c00670c:	e2633000 	rsb	r3, r3, #0
 c006710:	e1a03a43 	asr	r3, r3, #20
 c006714:	e3530013 	cmp	r3, #19
 c006718:	d3a02702 	movle	r2, #524288	; 0x80000
 c00671c:	d1a01352 	asrle	r1, r2, r3
 c006720:	d3a00000 	movle	r0, #0
 c006724:	d12fff1e 	bxle	lr
 c006728:	e2433014 	sub	r3, r3, #20
 c00672c:	e353001e 	cmp	r3, #30
 c006730:	d263301f 	rsble	r3, r3, #31
 c006734:	d3a02001 	movle	r2, #1
 c006738:	d1a03312 	lslle	r3, r2, r3
 c00673c:	c3a03001 	movgt	r3, #1
 c006740:	e3a01000 	mov	r1, #0
 c006744:	e1a00003 	mov	r0, r3
 c006748:	e12fff1e 	bx	lr
 c00674c:	7ff00000 	.word	0x7ff00000

0c006750 <__b2d>:
 c006750:	e92d40f8 	push	{r3, r4, r5, r6, r7, lr}
 c006754:	e5905010 	ldr	r5, [r0, #16]
 c006758:	e2855004 	add	r5, r5, #4
 c00675c:	e7904105 	ldr	r4, [r0, r5, lsl #2]
 c006760:	e1a03000 	mov	r3, r0
 c006764:	e1a00004 	mov	r0, r4
 c006768:	e0835105 	add	r5, r3, r5, lsl #2
 c00676c:	e1a07001 	mov	r7, r1
 c006770:	e2836014 	add	r6, r3, #20
 c006774:	ebfffe36 	bl	c006054 <__hi0bits>
 c006778:	e2603020 	rsb	r3, r0, #32
 c00677c:	e350000a 	cmp	r0, #10
 c006780:	e1a02005 	mov	r2, r5
 c006784:	e5873000 	str	r3, [r7]
 c006788:	ca00000d 	bgt	c0067c4 <__b2d+0x74>
 c00678c:	e260100b 	rsb	r1, r0, #11
 c006790:	e1a0c134 	lsr	ip, r4, r1
 c006794:	e1560005 	cmp	r6, r5
 c006798:	e38cc5ff 	orr	ip, ip, #1069547520	; 0x3fc00000
 c00679c:	e38c3603 	orr	r3, ip, #3145728	; 0x300000
 c0067a0:	3515c004 	ldrcc	ip, [r5, #-4]
 c0067a4:	31a0113c 	lsrcc	r1, ip, r1
 c0067a8:	23a01000 	movcs	r1, #0
 c0067ac:	e2800015 	add	r0, r0, #21
 c0067b0:	e1812014 	orr	r2, r1, r4, lsl r0
 c0067b4:	e1a00002 	mov	r0, r2
 c0067b8:	e1a01003 	mov	r1, r3
 c0067bc:	e8bd40f8 	pop	{r3, r4, r5, r6, r7, lr}
 c0067c0:	e12fff1e 	bx	lr
 c0067c4:	e1560005 	cmp	r6, r5
 c0067c8:	35121004 	ldrcc	r1, [r2, #-4]
 c0067cc:	23a01000 	movcs	r1, #0
 c0067d0:	32455004 	subcc	r5, r5, #4
 c0067d4:	e250000b 	subs	r0, r0, #11
 c0067d8:	038445ff 	orreq	r4, r4, #1069547520	; 0x3fc00000
 c0067dc:	03843603 	orreq	r3, r4, #3145728	; 0x300000
 c0067e0:	01a02001 	moveq	r2, r1
 c0067e4:	0afffff2 	beq	c0067b4 <__b2d+0x64>
 c0067e8:	e1a04014 	lsl	r4, r4, r0
 c0067ec:	e38445ff 	orr	r4, r4, #1069547520	; 0x3fc00000
 c0067f0:	e260c020 	rsb	ip, r0, #32
 c0067f4:	e3844603 	orr	r4, r4, #3145728	; 0x300000
 c0067f8:	e1550006 	cmp	r5, r6
 c0067fc:	e1843c31 	orr	r3, r4, r1, lsr ip
 c006800:	85154004 	ldrhi	r4, [r5, #-4]
 c006804:	81a0cc34 	lsrhi	ip, r4, ip
 c006808:	93a0c000 	movls	ip, #0
 c00680c:	e18c2011 	orr	r2, ip, r1, lsl r0
 c006810:	eaffffe7 	b	c0067b4 <__b2d+0x64>

0c006814 <__d2b>:
 c006814:	e92d45f0 	push	{r4, r5, r6, r7, r8, sl, lr}
 c006818:	e3a01001 	mov	r1, #1
 c00681c:	e24dd00c 	sub	sp, sp, #12
 c006820:	e1a05003 	mov	r5, r3
 c006824:	e1a04002 	mov	r4, r2
 c006828:	e59d7028 	ldr	r7, [sp, #40]	; 0x28
 c00682c:	e59d602c 	ldr	r6, [sp, #44]	; 0x2c
 c006830:	ebfffd6c 	bl	c005de8 <_Balloc>
 c006834:	e3c5a102 	bic	sl, r5, #-2147483648	; 0x80000000
 c006838:	e3c534ff 	bic	r3, r5, #-16777216	; 0xff000000
 c00683c:	e3c3360f 	bic	r3, r3, #15728640	; 0xf00000
 c006840:	e1b0aa2a 	lsrs	sl, sl, #20
 c006844:	e58d3000 	str	r3, [sp]
 c006848:	13833601 	orrne	r3, r3, #1048576	; 0x100000
 c00684c:	158d3000 	strne	r3, [sp]
 c006850:	e3540000 	cmp	r4, #0
 c006854:	e1a08000 	mov	r8, r0
 c006858:	0a00001f 	beq	c0068dc <__d2b+0xc8>
 c00685c:	e28d0008 	add	r0, sp, #8
 c006860:	e5204004 	str	r4, [r0, #-4]!
 c006864:	ebfffe0e 	bl	c0060a4 <__lo0bits>
 c006868:	e3500000 	cmp	r0, #0
 c00686c:	e59d3000 	ldr	r3, [sp]
 c006870:	159d2004 	ldrne	r2, [sp, #4]
 c006874:	12601020 	rsbne	r1, r0, #32
 c006878:	11822113 	orrne	r2, r2, r3, lsl r1
 c00687c:	11a03033 	lsrne	r3, r3, r0
 c006880:	059d2004 	ldreq	r2, [sp, #4]
 c006884:	15882014 	strne	r2, [r8, #20]
 c006888:	158d3000 	strne	r3, [sp]
 c00688c:	05882014 	streq	r2, [r8, #20]
 c006890:	e3530000 	cmp	r3, #0
 c006894:	03a04001 	moveq	r4, #1
 c006898:	13a04002 	movne	r4, #2
 c00689c:	e35a0000 	cmp	sl, #0
 c0068a0:	e5883018 	str	r3, [r8, #24]
 c0068a4:	e5884010 	str	r4, [r8, #16]
 c0068a8:	1a000014 	bne	c006900 <__d2b+0xec>
 c0068ac:	e2400e43 	sub	r0, r0, #1072	; 0x430
 c0068b0:	e2403002 	sub	r3, r0, #2
 c0068b4:	e0882104 	add	r2, r8, r4, lsl #2
 c0068b8:	e5920010 	ldr	r0, [r2, #16]
 c0068bc:	e5873000 	str	r3, [r7]
 c0068c0:	ebfffde3 	bl	c006054 <__hi0bits>
 c0068c4:	e0600284 	rsb	r0, r0, r4, lsl #5
 c0068c8:	e5860000 	str	r0, [r6]
 c0068cc:	e1a00008 	mov	r0, r8
 c0068d0:	e28dd00c 	add	sp, sp, #12
 c0068d4:	e8bd45f0 	pop	{r4, r5, r6, r7, r8, sl, lr}
 c0068d8:	e12fff1e 	bx	lr
 c0068dc:	e1a0000d 	mov	r0, sp
 c0068e0:	ebfffdef 	bl	c0060a4 <__lo0bits>
 c0068e4:	e59d3000 	ldr	r3, [sp]
 c0068e8:	e3a04001 	mov	r4, #1
 c0068ec:	e35a0000 	cmp	sl, #0
 c0068f0:	e5883014 	str	r3, [r8, #20]
 c0068f4:	e5884010 	str	r4, [r8, #16]
 c0068f8:	e2800020 	add	r0, r0, #32
 c0068fc:	0affffea 	beq	c0068ac <__d2b+0x98>
 c006900:	e24aae43 	sub	sl, sl, #1072	; 0x430
 c006904:	e24aa003 	sub	sl, sl, #3
 c006908:	e08aa000 	add	sl, sl, r0
 c00690c:	e2600035 	rsb	r0, r0, #53	; 0x35
 c006910:	e587a000 	str	sl, [r7]
 c006914:	e5860000 	str	r0, [r6]
 c006918:	eaffffeb 	b	c0068cc <__d2b+0xb8>

0c00691c <__ratio>:
 c00691c:	e92d43f0 	push	{r4, r5, r6, r7, r8, r9, lr}
 c006920:	e24dd00c 	sub	sp, sp, #12
 c006924:	e1a06001 	mov	r6, r1
 c006928:	e28d1004 	add	r1, sp, #4
 c00692c:	e1a07000 	mov	r7, r0
 c006930:	ebffff86 	bl	c006750 <__b2d>
 c006934:	e1a05001 	mov	r5, r1
 c006938:	e1a04000 	mov	r4, r0
 c00693c:	e1a0100d 	mov	r1, sp
 c006940:	e1a00006 	mov	r0, r6
 c006944:	ebffff81 	bl	c006750 <__b2d>
 c006948:	e596c010 	ldr	ip, [r6, #16]
 c00694c:	e1a03001 	mov	r3, r1
 c006950:	e1a02000 	mov	r2, r0
 c006954:	e5971010 	ldr	r1, [r7, #16]
 c006958:	e89d4001 	ldm	sp, {r0, lr}
 c00695c:	e06c1001 	rsb	r1, ip, r1
 c006960:	e060000e 	rsb	r0, r0, lr
 c006964:	e0801281 	add	r1, r0, r1, lsl #5
 c006968:	e3510000 	cmp	r1, #0
 c00696c:	c0857a01 	addgt	r7, r5, r1, lsl #20
 c006970:	d0439a01 	suble	r9, r3, r1, lsl #20
 c006974:	c1a05007 	movgt	r5, r7
 c006978:	d1a03009 	movle	r3, r9
 c00697c:	e1a00004 	mov	r0, r4
 c006980:	e1a01005 	mov	r1, r5
 c006984:	eb000b62 	bl	c009714 <__aeabi_ddiv>
 c006988:	e28dd00c 	add	sp, sp, #12
 c00698c:	e8bd43f0 	pop	{r4, r5, r6, r7, r8, r9, lr}
 c006990:	e12fff1e 	bx	lr

0c006994 <_mprec_log10>:
 c006994:	e3500017 	cmp	r0, #23
 c006998:	e92d4010 	push	{r4, lr}
 c00699c:	c59f1038 	ldrgt	r1, [pc, #56]	; c0069dc <_mprec_log10+0x48>
 c0069a0:	e1a04000 	mov	r4, r0
 c0069a4:	c3a00000 	movgt	r0, #0
 c0069a8:	da000006 	ble	c0069c8 <_mprec_log10+0x34>
 c0069ac:	e3a02000 	mov	r2, #0
 c0069b0:	e59f3028 	ldr	r3, [pc, #40]	; c0069e0 <_mprec_log10+0x4c>
 c0069b4:	eb000ab2 	bl	c009484 <__aeabi_dmul>
 c0069b8:	e2544001 	subs	r4, r4, #1
 c0069bc:	1afffffa 	bne	c0069ac <_mprec_log10+0x18>
 c0069c0:	e8bd4010 	pop	{r4, lr}
 c0069c4:	e12fff1e 	bx	lr
 c0069c8:	e59f3014 	ldr	r3, [pc, #20]	; c0069e4 <_mprec_log10+0x50>
 c0069cc:	e0834180 	add	r4, r3, r0, lsl #3
 c0069d0:	e2841010 	add	r1, r4, #16
 c0069d4:	e8910003 	ldm	r1, {r0, r1}
 c0069d8:	eafffff8 	b	c0069c0 <_mprec_log10+0x2c>
 c0069dc:	3ff00000 	.word	0x3ff00000
 c0069e0:	40240000 	.word	0x40240000
 c0069e4:	0c00ae50 	.word	0x0c00ae50

0c0069e8 <__copybits>:
 c0069e8:	e5923010 	ldr	r3, [r2, #16]
 c0069ec:	e2411001 	sub	r1, r1, #1
 c0069f0:	e0823103 	add	r3, r2, r3, lsl #2
 c0069f4:	e1a0c2c1 	asr	ip, r1, #5
 c0069f8:	e2833014 	add	r3, r3, #20
 c0069fc:	e2821014 	add	r1, r2, #20
 c006a00:	e28cc001 	add	ip, ip, #1
 c006a04:	e1510003 	cmp	r1, r3
 c006a08:	e92d0030 	push	{r4, r5}
 c006a0c:	e080c10c 	add	ip, r0, ip, lsl #2
 c006a10:	2a000009 	bcs	c006a3c <__copybits+0x54>
 c006a14:	e1a04000 	mov	r4, r0
 c006a18:	e4915004 	ldr	r5, [r1], #4
 c006a1c:	e1530001 	cmp	r3, r1
 c006a20:	e4845004 	str	r5, [r4], #4
 c006a24:	8afffffb 	bhi	c006a18 <__copybits+0x30>
 c006a28:	e0623003 	rsb	r3, r2, r3
 c006a2c:	e2433015 	sub	r3, r3, #21
 c006a30:	e3c33003 	bic	r3, r3, #3
 c006a34:	e2833004 	add	r3, r3, #4
 c006a38:	e0800003 	add	r0, r0, r3
 c006a3c:	e15c0000 	cmp	ip, r0
 c006a40:	9a000003 	bls	c006a54 <__copybits+0x6c>
 c006a44:	e3a03000 	mov	r3, #0
 c006a48:	e4803004 	str	r3, [r0], #4
 c006a4c:	e15c0000 	cmp	ip, r0
 c006a50:	8afffffc 	bhi	c006a48 <__copybits+0x60>
 c006a54:	e8bd0030 	pop	{r4, r5}
 c006a58:	e12fff1e 	bx	lr

0c006a5c <__any_on>:
 c006a5c:	e5902010 	ldr	r2, [r0, #16]
 c006a60:	e1a032c1 	asr	r3, r1, #5
 c006a64:	e1520003 	cmp	r2, r3
 c006a68:	ba00000b 	blt	c006a9c <__any_on+0x40>
 c006a6c:	da000009 	ble	c006a98 <__any_on+0x3c>
 c006a70:	e211101f 	ands	r1, r1, #31
 c006a74:	0a000007 	beq	c006a98 <__any_on+0x3c>
 c006a78:	e1a02003 	mov	r2, r3
 c006a7c:	e0803103 	add	r3, r0, r3, lsl #2
 c006a80:	e5933014 	ldr	r3, [r3, #20]
 c006a84:	e1a0c133 	lsr	ip, r3, r1
 c006a88:	e153011c 	cmp	r3, ip, lsl r1
 c006a8c:	0a000002 	beq	c006a9c <__any_on+0x40>
 c006a90:	e3a00001 	mov	r0, #1
 c006a94:	e12fff1e 	bx	lr
 c006a98:	e1a02003 	mov	r2, r3
 c006a9c:	e2822004 	add	r2, r2, #4
 c006aa0:	e0803102 	add	r3, r0, r2, lsl #2
 c006aa4:	e2801014 	add	r1, r0, #20
 c006aa8:	e283c004 	add	ip, r3, #4
 c006aac:	e151000c 	cmp	r1, ip
 c006ab0:	2a000009 	bcs	c006adc <__any_on+0x80>
 c006ab4:	e7902102 	ldr	r2, [r0, r2, lsl #2]
 c006ab8:	e3520000 	cmp	r2, #0
 c006abc:	1afffff3 	bne	c006a90 <__any_on+0x34>
 c006ac0:	e1510003 	cmp	r1, r3
 c006ac4:	2a000004 	bcs	c006adc <__any_on+0x80>
 c006ac8:	e5332004 	ldr	r2, [r3, #-4]!
 c006acc:	e3520000 	cmp	r2, #0
 c006ad0:	0afffffa 	beq	c006ac0 <__any_on+0x64>
 c006ad4:	e3a00001 	mov	r0, #1
 c006ad8:	e12fff1e 	bx	lr
 c006adc:	e3a00000 	mov	r0, #0
 c006ae0:	e12fff1e 	bx	lr

0c006ae4 <__fpclassifyd>:
 c006ae4:	e1a02001 	mov	r2, r1
 c006ae8:	e1a03001 	mov	r3, r1
 c006aec:	e1901002 	orrs	r1, r0, r2
 c006af0:	e52d4004 	push	{r4}		; (str r4, [sp, #-4]!)
 c006af4:	0a000018 	beq	c006b5c <__fpclassifyd+0x78>
 c006af8:	e2704001 	rsbs	r4, r0, #1
 c006afc:	33a04000 	movcc	r4, #0
 c006b00:	e3520102 	cmp	r2, #-2147483648	; 0x80000000
 c006b04:	03500000 	cmpeq	r0, #0
 c006b08:	0a000013 	beq	c006b5c <__fpclassifyd+0x78>
 c006b0c:	e282c47f 	add	ip, r2, #2130706432	; 0x7f000000
 c006b10:	e59f2050 	ldr	r2, [pc, #80]	; c006b68 <__fpclassifyd+0x84>
 c006b14:	e28cc60f 	add	ip, ip, #15728640	; 0xf00000
 c006b18:	e2431601 	sub	r1, r3, #1048576	; 0x100000
 c006b1c:	e1510002 	cmp	r1, r2
 c006b20:	815c0002 	cmphi	ip, r2
 c006b24:	93a00004 	movls	r0, #4
 c006b28:	9a00000c 	bls	c006b60 <__fpclassifyd+0x7c>
 c006b2c:	e2832102 	add	r2, r3, #-2147483648	; 0x80000000
 c006b30:	e3530601 	cmp	r3, #1048576	; 0x100000
 c006b34:	23520601 	cmpcs	r2, #1048576	; 0x100000
 c006b38:	33a00003 	movcc	r0, #3
 c006b3c:	3a000007 	bcc	c006b60 <__fpclassifyd+0x7c>
 c006b40:	e59f0024 	ldr	r0, [pc, #36]	; c006b6c <__fpclassifyd+0x88>
 c006b44:	e3730601 	cmn	r3, #1048576	; 0x100000
 c006b48:	11530000 	cmpne	r3, r0
 c006b4c:	13a03000 	movne	r3, #0
 c006b50:	03a03001 	moveq	r3, #1
 c006b54:	e0040003 	and	r0, r4, r3
 c006b58:	ea000000 	b	c006b60 <__fpclassifyd+0x7c>
 c006b5c:	e3a00002 	mov	r0, #2
 c006b60:	e49d4004 	pop	{r4}		; (ldr r4, [sp], #4)
 c006b64:	e12fff1e 	bx	lr
 c006b68:	7fdfffff 	.word	0x7fdfffff
 c006b6c:	7ff00000 	.word	0x7ff00000

0c006b70 <_sbrk_r>:
 c006b70:	e92d4038 	push	{r3, r4, r5, lr}
 c006b74:	e59f4030 	ldr	r4, [pc, #48]	; c006bac <_sbrk_r+0x3c>
 c006b78:	e3a03000 	mov	r3, #0
 c006b7c:	e1a05000 	mov	r5, r0
 c006b80:	e1a00001 	mov	r0, r1
 c006b84:	e5843000 	str	r3, [r4]
 c006b88:	eb000e44 	bl	c00a4a0 <_sbrk>
 c006b8c:	e3700001 	cmn	r0, #1
 c006b90:	0a000001 	beq	c006b9c <_sbrk_r+0x2c>
 c006b94:	e8bd4038 	pop	{r3, r4, r5, lr}
 c006b98:	e12fff1e 	bx	lr
 c006b9c:	e5943000 	ldr	r3, [r4]
 c006ba0:	e3530000 	cmp	r3, #0
 c006ba4:	15853000 	strne	r3, [r5]
 c006ba8:	eafffff9 	b	c006b94 <_sbrk_r+0x24>
 c006bac:	0c00b15c 	.word	0x0c00b15c

0c006bb0 <strcmp>:
 c006bb0:	e0202001 	eor	r2, r0, r1
 c006bb4:	e3120003 	tst	r2, #3
 c006bb8:	1a000021 	bne	c006c44 <strcmp_unaligned>
 c006bbc:	e2102003 	ands	r2, r0, #3
 c006bc0:	e3c00003 	bic	r0, r0, #3
 c006bc4:	e3c11003 	bic	r1, r1, #3
 c006bc8:	e490c004 	ldr	ip, [r0], #4
 c006bcc:	04913004 	ldreq	r3, [r1], #4
 c006bd0:	0a000006 	beq	c006bf0 <strcmp+0x40>
 c006bd4:	e2222003 	eor	r2, r2, #3
 c006bd8:	e1a02182 	lsl	r2, r2, #3
 c006bdc:	e3e034ff 	mvn	r3, #-16777216	; 0xff000000
 c006be0:	e1a02233 	lsr	r2, r3, r2
 c006be4:	e4913004 	ldr	r3, [r1], #4
 c006be8:	e18cc002 	orr	ip, ip, r2
 c006bec:	e1833002 	orr	r3, r3, r2
 c006bf0:	e52d4004 	push	{r4}		; (str r4, [sp, #-4]!)
 c006bf4:	e3a04001 	mov	r4, #1
 c006bf8:	e1844404 	orr	r4, r4, r4, lsl #8
 c006bfc:	e1844804 	orr	r4, r4, r4, lsl #16
 c006c00:	e04c2004 	sub	r2, ip, r4
 c006c04:	e15c0003 	cmp	ip, r3
 c006c08:	01c2200c 	biceq	r2, r2, ip
 c006c0c:	01120384 	tsteq	r2, r4, lsl #7
 c006c10:	0490c004 	ldreq	ip, [r0], #4
 c006c14:	04913004 	ldreq	r3, [r1], #4
 c006c18:	0afffff8 	beq	c006c00 <strcmp+0x50>
 c006c1c:	e1a00c0c 	lsl	r0, ip, #24
 c006c20:	e1a0c42c 	lsr	ip, ip, #8
 c006c24:	e3500001 	cmp	r0, #1
 c006c28:	21500c03 	cmpcs	r0, r3, lsl #24
 c006c2c:	01a03423 	lsreq	r3, r3, #8
 c006c30:	0afffff9 	beq	c006c1c <strcmp+0x6c>
 c006c34:	e20330ff 	and	r3, r3, #255	; 0xff
 c006c38:	e0630c20 	rsb	r0, r3, r0, lsr #24
 c006c3c:	e49d4004 	pop	{r4}		; (ldr r4, [sp], #4)
 c006c40:	e12fff1e 	bx	lr

0c006c44 <strcmp_unaligned>:
 c006c44:	e3100003 	tst	r0, #3
 c006c48:	0a000006 	beq	c006c68 <strcmp_unaligned+0x24>
 c006c4c:	e4d02001 	ldrb	r2, [r0], #1
 c006c50:	e4d13001 	ldrb	r3, [r1], #1
 c006c54:	e3520001 	cmp	r2, #1
 c006c58:	21520003 	cmpcs	r2, r3
 c006c5c:	0afffff8 	beq	c006c44 <strcmp_unaligned>
 c006c60:	e0420003 	sub	r0, r2, r3
 c006c64:	e12fff1e 	bx	lr
 c006c68:	e52d5004 	push	{r5}		; (str r5, [sp, #-4]!)
 c006c6c:	e52d4004 	push	{r4}		; (str r4, [sp, #-4]!)
 c006c70:	e3a02001 	mov	r2, #1
 c006c74:	e1822402 	orr	r2, r2, r2, lsl #8
 c006c78:	e1822802 	orr	r2, r2, r2, lsl #16
 c006c7c:	e201c003 	and	ip, r1, #3
 c006c80:	e3c11003 	bic	r1, r1, #3
 c006c84:	e4904004 	ldr	r4, [r0], #4
 c006c88:	e4915004 	ldr	r5, [r1], #4
 c006c8c:	e35c0002 	cmp	ip, #2
 c006c90:	0a000017 	beq	c006cf4 <strcmp_unaligned+0xb0>
 c006c94:	8a00002d 	bhi	c006d50 <strcmp_unaligned+0x10c>
 c006c98:	e3c4c4ff 	bic	ip, r4, #-16777216	; 0xff000000
 c006c9c:	e15c0425 	cmp	ip, r5, lsr #8
 c006ca0:	e0443002 	sub	r3, r4, r2
 c006ca4:	e1c33004 	bic	r3, r3, r4
 c006ca8:	1a000007 	bne	c006ccc <strcmp_unaligned+0x88>
 c006cac:	e0133382 	ands	r3, r3, r2, lsl #7
 c006cb0:	04915004 	ldreq	r5, [r1], #4
 c006cb4:	1a000006 	bne	c006cd4 <strcmp_unaligned+0x90>
 c006cb8:	e02cc004 	eor	ip, ip, r4
 c006cbc:	e15c0c05 	cmp	ip, r5, lsl #24
 c006cc0:	1a000008 	bne	c006ce8 <strcmp_unaligned+0xa4>
 c006cc4:	e4904004 	ldr	r4, [r0], #4
 c006cc8:	eafffff2 	b	c006c98 <strcmp_unaligned+0x54>
 c006ccc:	e1a05425 	lsr	r5, r5, #8
 c006cd0:	ea000037 	b	c006db4 <strcmp_unaligned+0x170>
 c006cd4:	e3d334ff 	bics	r3, r3, #-16777216	; 0xff000000
 c006cd8:	1a000031 	bne	c006da4 <strcmp_unaligned+0x160>
 c006cdc:	e5d15000 	ldrb	r5, [r1]
 c006ce0:	e1a0cc24 	lsr	ip, r4, #24
 c006ce4:	ea000032 	b	c006db4 <strcmp_unaligned+0x170>
 c006ce8:	e1a0cc24 	lsr	ip, r4, #24
 c006cec:	e20550ff 	and	r5, r5, #255	; 0xff
 c006cf0:	ea00002f 	b	c006db4 <strcmp_unaligned+0x170>
 c006cf4:	e1a0c804 	lsl	ip, r4, #16
 c006cf8:	e0443002 	sub	r3, r4, r2
 c006cfc:	e1a0c82c 	lsr	ip, ip, #16
 c006d00:	e1c33004 	bic	r3, r3, r4
 c006d04:	e15c0825 	cmp	ip, r5, lsr #16
 c006d08:	1a00000e 	bne	c006d48 <strcmp_unaligned+0x104>
 c006d0c:	e0133382 	ands	r3, r3, r2, lsl #7
 c006d10:	04915004 	ldreq	r5, [r1], #4
 c006d14:	1a000004 	bne	c006d2c <strcmp_unaligned+0xe8>
 c006d18:	e02cc004 	eor	ip, ip, r4
 c006d1c:	e15c0805 	cmp	ip, r5, lsl #16
 c006d20:	1a000006 	bne	c006d40 <strcmp_unaligned+0xfc>
 c006d24:	e4904004 	ldr	r4, [r0], #4
 c006d28:	eafffff1 	b	c006cf4 <strcmp_unaligned+0xb0>
 c006d2c:	e1b03803 	lsls	r3, r3, #16
 c006d30:	1a00001b 	bne	c006da4 <strcmp_unaligned+0x160>
 c006d34:	e1d150b0 	ldrh	r5, [r1]
 c006d38:	e1a0c824 	lsr	ip, r4, #16
 c006d3c:	ea00001c 	b	c006db4 <strcmp_unaligned+0x170>
 c006d40:	e1a05805 	lsl	r5, r5, #16
 c006d44:	e1a0c824 	lsr	ip, r4, #16
 c006d48:	e1a05825 	lsr	r5, r5, #16
 c006d4c:	ea000018 	b	c006db4 <strcmp_unaligned+0x170>
 c006d50:	e204c0ff 	and	ip, r4, #255	; 0xff
 c006d54:	e15c0c25 	cmp	ip, r5, lsr #24
 c006d58:	e0443002 	sub	r3, r4, r2
 c006d5c:	e1c33004 	bic	r3, r3, r4
 c006d60:	1a000007 	bne	c006d84 <strcmp_unaligned+0x140>
 c006d64:	e0133382 	ands	r3, r3, r2, lsl #7
 c006d68:	04915004 	ldreq	r5, [r1], #4
 c006d6c:	1a000006 	bne	c006d8c <strcmp_unaligned+0x148>
 c006d70:	e02cc004 	eor	ip, ip, r4
 c006d74:	e15c0405 	cmp	ip, r5, lsl #8
 c006d78:	1a000006 	bne	c006d98 <strcmp_unaligned+0x154>
 c006d7c:	e4904004 	ldr	r4, [r0], #4
 c006d80:	eafffff2 	b	c006d50 <strcmp_unaligned+0x10c>
 c006d84:	e1a05c25 	lsr	r5, r5, #24
 c006d88:	ea000009 	b	c006db4 <strcmp_unaligned+0x170>
 c006d8c:	e31400ff 	tst	r4, #255	; 0xff
 c006d90:	0a000003 	beq	c006da4 <strcmp_unaligned+0x160>
 c006d94:	e4915004 	ldr	r5, [r1], #4
 c006d98:	e1a0c424 	lsr	ip, r4, #8
 c006d9c:	e3c554ff 	bic	r5, r5, #-16777216	; 0xff000000
 c006da0:	ea000003 	b	c006db4 <strcmp_unaligned+0x170>
 c006da4:	e3a00000 	mov	r0, #0
 c006da8:	e49d4004 	pop	{r4}		; (ldr r4, [sp], #4)
 c006dac:	e49d5004 	pop	{r5}		; (ldr r5, [sp], #4)
 c006db0:	e12fff1e 	bx	lr
 c006db4:	e20c20ff 	and	r2, ip, #255	; 0xff
 c006db8:	e20500ff 	and	r0, r5, #255	; 0xff
 c006dbc:	e3500001 	cmp	r0, #1
 c006dc0:	21500002 	cmpcs	r0, r2
 c006dc4:	01a0c42c 	lsreq	ip, ip, #8
 c006dc8:	01a05425 	lsreq	r5, r5, #8
 c006dcc:	0afffff8 	beq	c006db4 <strcmp_unaligned+0x170>
 c006dd0:	e0420000 	sub	r0, r2, r0
 c006dd4:	e49d4004 	pop	{r4}		; (ldr r4, [sp], #4)
 c006dd8:	e49d5004 	pop	{r5}		; (ldr r5, [sp], #4)
 c006ddc:	e12fff1e 	bx	lr

0c006de0 <strlen>:
 c006de0:	e3c01003 	bic	r1, r0, #3
 c006de4:	e2100003 	ands	r0, r0, #3
 c006de8:	e2600000 	rsb	r0, r0, #0
 c006dec:	e4913004 	ldr	r3, [r1], #4
 c006df0:	e280c004 	add	ip, r0, #4
 c006df4:	e1a0c18c 	lsl	ip, ip, #3
 c006df8:	e3e02000 	mvn	r2, #0
 c006dfc:	11833c32 	orrne	r3, r3, r2, lsr ip
 c006e00:	e3a0c001 	mov	ip, #1
 c006e04:	e18cc40c 	orr	ip, ip, ip, lsl #8
 c006e08:	e18cc80c 	orr	ip, ip, ip, lsl #16
 c006e0c:	e043200c 	sub	r2, r3, ip
 c006e10:	e1c22003 	bic	r2, r2, r3
 c006e14:	e012238c 	ands	r2, r2, ip, lsl #7
 c006e18:	04913004 	ldreq	r3, [r1], #4
 c006e1c:	02800004 	addeq	r0, r0, #4
 c006e20:	0afffff9 	beq	c006e0c <strlen+0x2c>
 c006e24:	e31300ff 	tst	r3, #255	; 0xff
 c006e28:	12800001 	addne	r0, r0, #1
 c006e2c:	13130cff 	tstne	r3, #65280	; 0xff00
 c006e30:	12800001 	addne	r0, r0, #1
 c006e34:	131308ff 	tstne	r3, #16711680	; 0xff0000
 c006e38:	12800001 	addne	r0, r0, #1
 c006e3c:	e12fff1e 	bx	lr

0c006e40 <__ssprint_r>:
 c006e40:	e92d4ff0 	push	{r4, r5, r6, r7, r8, r9, sl, fp, lr}
 c006e44:	e5924008 	ldr	r4, [r2, #8]
 c006e48:	e24dd00c 	sub	sp, sp, #12
 c006e4c:	e3540000 	cmp	r4, #0
 c006e50:	e58d0004 	str	r0, [sp, #4]
 c006e54:	e1a0a002 	mov	sl, r2
 c006e58:	e1a05001 	mov	r5, r1
 c006e5c:	e5927000 	ldr	r7, [r2]
 c006e60:	05824004 	streq	r4, [r2, #4]
 c006e64:	01a00004 	moveq	r0, r4
 c006e68:	0a000055 	beq	c006fc4 <__ssprint_r+0x184>
 c006e6c:	e3a09000 	mov	r9, #0
 c006e70:	e1a04009 	mov	r4, r9
 c006e74:	e3540000 	cmp	r4, #0
 c006e78:	e5910000 	ldr	r0, [r1]
 c006e7c:	e5913008 	ldr	r3, [r1, #8]
 c006e80:	0a000038 	beq	c006f68 <__ssprint_r+0x128>
 c006e84:	e1540003 	cmp	r4, r3
 c006e88:	e1a06003 	mov	r6, r3
 c006e8c:	e1a08003 	mov	r8, r3
 c006e90:	31a06004 	movcc	r6, r4
 c006e94:	31a08004 	movcc	r8, r4
 c006e98:	3a000024 	bcc	c006f30 <__ssprint_r+0xf0>
 c006e9c:	e1d530bc 	ldrh	r3, [r5, #12]
 c006ea0:	e3130d12 	tst	r3, #1152	; 0x480
 c006ea4:	0a000021 	beq	c006f30 <__ssprint_r+0xf0>
 c006ea8:	e2851010 	add	r1, r5, #16
 c006eac:	e8910042 	ldm	r1, {r1, r6}
 c006eb0:	e0866086 	add	r6, r6, r6, lsl #1
 c006eb4:	e0618000 	rsb	r8, r1, r0
 c006eb8:	e0866fa6 	add	r6, r6, r6, lsr #31
 c006ebc:	e2840001 	add	r0, r4, #1
 c006ec0:	e1a060c6 	asr	r6, r6, #1
 c006ec4:	e0800008 	add	r0, r0, r8
 c006ec8:	e1560000 	cmp	r6, r0
 c006ecc:	e1a02006 	mov	r2, r6
 c006ed0:	31a06000 	movcc	r6, r0
 c006ed4:	31a02000 	movcc	r2, r0
 c006ed8:	e3130b01 	tst	r3, #1024	; 0x400
 c006edc:	0a000027 	beq	c006f80 <__ssprint_r+0x140>
 c006ee0:	e59d0004 	ldr	r0, [sp, #4]
 c006ee4:	e1a01002 	mov	r1, r2
 c006ee8:	ebfff948 	bl	c005410 <_malloc_r>
 c006eec:	e250b000 	subs	fp, r0, #0
 c006ef0:	0a000029 	beq	c006f9c <__ssprint_r+0x15c>
 c006ef4:	e5951010 	ldr	r1, [r5, #16]
 c006ef8:	e1a02008 	mov	r2, r8
 c006efc:	ebfffb47 	bl	c005c20 <memcpy>
 c006f00:	e1d530bc 	ldrh	r3, [r5, #12]
 c006f04:	e3c33d12 	bic	r3, r3, #1152	; 0x480
 c006f08:	e3833080 	orr	r3, r3, #128	; 0x80
 c006f0c:	e1c530bc 	strh	r3, [r5, #12]
 c006f10:	e08b0008 	add	r0, fp, r8
 c006f14:	e585b010 	str	fp, [r5, #16]
 c006f18:	e0688006 	rsb	r8, r8, r6
 c006f1c:	e5850000 	str	r0, [r5]
 c006f20:	e5856014 	str	r6, [r5, #20]
 c006f24:	e5858008 	str	r8, [r5, #8]
 c006f28:	e1a06004 	mov	r6, r4
 c006f2c:	e1a08004 	mov	r8, r4
 c006f30:	e1a02008 	mov	r2, r8
 c006f34:	e1a01009 	mov	r1, r9
 c006f38:	eb00054d 	bl	c008474 <memmove>
 c006f3c:	e59a2008 	ldr	r2, [sl, #8]
 c006f40:	e5953008 	ldr	r3, [r5, #8]
 c006f44:	e5950000 	ldr	r0, [r5]
 c006f48:	e0644002 	rsb	r4, r4, r2
 c006f4c:	e0663003 	rsb	r3, r6, r3
 c006f50:	e0800008 	add	r0, r0, r8
 c006f54:	e3540000 	cmp	r4, #0
 c006f58:	e5853008 	str	r3, [r5, #8]
 c006f5c:	e5850000 	str	r0, [r5]
 c006f60:	e58a4008 	str	r4, [sl, #8]
 c006f64:	0a000019 	beq	c006fd0 <__ssprint_r+0x190>
 c006f68:	e5974004 	ldr	r4, [r7, #4]
 c006f6c:	e3540000 	cmp	r4, #0
 c006f70:	e5979000 	ldr	r9, [r7]
 c006f74:	e2877008 	add	r7, r7, #8
 c006f78:	0afffffa 	beq	c006f68 <__ssprint_r+0x128>
 c006f7c:	eaffffc0 	b	c006e84 <__ssprint_r+0x44>
 c006f80:	e59d0004 	ldr	r0, [sp, #4]
 c006f84:	eb0005c4 	bl	c00869c <_realloc_r>
 c006f88:	e250b000 	subs	fp, r0, #0
 c006f8c:	1affffdf 	bne	c006f10 <__ssprint_r+0xd0>
 c006f90:	e59d0004 	ldr	r0, [sp, #4]
 c006f94:	e5951010 	ldr	r1, [r5, #16]
 c006f98:	eb00049c 	bl	c008210 <_free_r>
 c006f9c:	e59d2004 	ldr	r2, [sp, #4]
 c006fa0:	e3a0300c 	mov	r3, #12
 c006fa4:	e5823000 	str	r3, [r2]
 c006fa8:	e1d520bc 	ldrh	r2, [r5, #12]
 c006fac:	e3a03000 	mov	r3, #0
 c006fb0:	e3822040 	orr	r2, r2, #64	; 0x40
 c006fb4:	e1c520bc 	strh	r2, [r5, #12]
 c006fb8:	e58a3008 	str	r3, [sl, #8]
 c006fbc:	e58a3004 	str	r3, [sl, #4]
 c006fc0:	e3e00000 	mvn	r0, #0
 c006fc4:	e28dd00c 	add	sp, sp, #12
 c006fc8:	e8bd4ff0 	pop	{r4, r5, r6, r7, r8, r9, sl, fp, lr}
 c006fcc:	e12fff1e 	bx	lr
 c006fd0:	e58a4004 	str	r4, [sl, #4]
 c006fd4:	e1a00004 	mov	r0, r4
 c006fd8:	eafffff9 	b	c006fc4 <__ssprint_r+0x184>

0c006fdc <_svfiprintf_r>:
 c006fdc:	e92d4ff0 	push	{r4, r5, r6, r7, r8, r9, sl, fp, lr}
 c006fe0:	e1a06001 	mov	r6, r1
 c006fe4:	e1d110bc 	ldrh	r1, [r1, #12]
 c006fe8:	e24dd0ac 	sub	sp, sp, #172	; 0xac
 c006fec:	e3110080 	tst	r1, #128	; 0x80
 c006ff0:	e58d0018 	str	r0, [sp, #24]
 c006ff4:	e58d3014 	str	r3, [sp, #20]
 c006ff8:	0a000002 	beq	c007008 <_svfiprintf_r+0x2c>
 c006ffc:	e5963010 	ldr	r3, [r6, #16]
 c007000:	e3530000 	cmp	r3, #0
 c007004:	0a0003ee 	beq	c007fc4 <_svfiprintf_r+0xfe8>
 c007008:	e3a03000 	mov	r3, #0
 c00700c:	e28dc030 	add	ip, sp, #48	; 0x30
 c007010:	e58d302c 	str	r3, [sp, #44]	; 0x2c
 c007014:	e58dc098 	str	ip, [sp, #152]	; 0x98
 c007018:	e58d30a0 	str	r3, [sp, #160]	; 0xa0
 c00701c:	e58d309c 	str	r3, [sp, #156]	; 0x9c
 c007020:	e58d3010 	str	r3, [sp, #16]
 c007024:	e1a05002 	mov	r5, r2
 c007028:	e1a0400c 	mov	r4, ip
 c00702c:	e5d53000 	ldrb	r3, [r5]
 c007030:	e3530000 	cmp	r3, #0
 c007034:	13530025 	cmpne	r3, #37	; 0x25
 c007038:	0a00016a 	beq	c0075e8 <_svfiprintf_r+0x60c>
 c00703c:	e2853001 	add	r3, r5, #1
 c007040:	e1a07003 	mov	r7, r3
 c007044:	e5d33000 	ldrb	r3, [r3]
 c007048:	e3530025 	cmp	r3, #37	; 0x25
 c00704c:	13530000 	cmpne	r3, #0
 c007050:	e2873001 	add	r3, r7, #1
 c007054:	1afffff9 	bne	c007040 <_svfiprintf_r+0x64>
 c007058:	e0578005 	subs	r8, r7, r5
 c00705c:	0a00000c 	beq	c007094 <_svfiprintf_r+0xb8>
 c007060:	e59d309c 	ldr	r3, [sp, #156]	; 0x9c
 c007064:	e59d20a0 	ldr	r2, [sp, #160]	; 0xa0
 c007068:	e2833001 	add	r3, r3, #1
 c00706c:	e0822008 	add	r2, r2, r8
 c007070:	e3530007 	cmp	r3, #7
 c007074:	e8840120 	stm	r4, {r5, r8}
 c007078:	e58d20a0 	str	r2, [sp, #160]	; 0xa0
 c00707c:	e58d309c 	str	r3, [sp, #156]	; 0x9c
 c007080:	d2844008 	addle	r4, r4, #8
 c007084:	ca0002ef 	bgt	c007c48 <_svfiprintf_r+0xc6c>
 c007088:	e59d0010 	ldr	r0, [sp, #16]
 c00708c:	e0800008 	add	r0, r0, r8
 c007090:	e58d0010 	str	r0, [sp, #16]
 c007094:	e5d73000 	ldrb	r3, [r7]
 c007098:	e3530000 	cmp	r3, #0
 c00709c:	0a00028a 	beq	c007acc <_svfiprintf_r+0xaf0>
 c0070a0:	e3a01000 	mov	r1, #0
 c0070a4:	e3a02000 	mov	r2, #0
 c0070a8:	e5cd10a7 	strb	r1, [sp, #167]	; 0xa7
 c0070ac:	e58d200c 	str	r2, [sp, #12]
 c0070b0:	e5d73001 	ldrb	r3, [r7, #1]
 c0070b4:	e2875001 	add	r5, r7, #1
 c0070b8:	e3e0a000 	mvn	sl, #0
 c0070bc:	e1a0b002 	mov	fp, r2
 c0070c0:	e3a00020 	mov	r0, #32
 c0070c4:	e3a0102b 	mov	r1, #43	; 0x2b
 c0070c8:	e2855001 	add	r5, r5, #1
 c0070cc:	e2432020 	sub	r2, r3, #32
 c0070d0:	e3520058 	cmp	r2, #88	; 0x58
 c0070d4:	979ff102 	ldrls	pc, [pc, r2, lsl #2]
 c0070d8:	ea000258 	b	c007a40 <_svfiprintf_r+0xa64>
 c0070dc:	0c007a50 	.word	0x0c007a50
 c0070e0:	0c007a40 	.word	0x0c007a40
 c0070e4:	0c007a40 	.word	0x0c007a40
 c0070e8:	0c007974 	.word	0x0c007974
 c0070ec:	0c007a40 	.word	0x0c007a40
 c0070f0:	0c007a40 	.word	0x0c007a40
 c0070f4:	0c007a40 	.word	0x0c007a40
 c0070f8:	0c007a40 	.word	0x0c007a40
 c0070fc:	0c007a40 	.word	0x0c007a40
 c007100:	0c007a40 	.word	0x0c007a40
 c007104:	0c0076ac 	.word	0x0c0076ac
 c007108:	0c0079bc 	.word	0x0c0079bc
 c00710c:	0c007a40 	.word	0x0c007a40
 c007110:	0c0076d8 	.word	0x0c0076d8
 c007114:	0c0079c8 	.word	0x0c0079c8
 c007118:	0c007a40 	.word	0x0c007a40
 c00711c:	0c0079b0 	.word	0x0c0079b0
 c007120:	0c007980 	.word	0x0c007980
 c007124:	0c007980 	.word	0x0c007980
 c007128:	0c007980 	.word	0x0c007980
 c00712c:	0c007980 	.word	0x0c007980
 c007130:	0c007980 	.word	0x0c007980
 c007134:	0c007980 	.word	0x0c007980
 c007138:	0c007980 	.word	0x0c007980
 c00713c:	0c007980 	.word	0x0c007980
 c007140:	0c007980 	.word	0x0c007980
 c007144:	0c007a40 	.word	0x0c007a40
 c007148:	0c007a40 	.word	0x0c007a40
 c00714c:	0c007a40 	.word	0x0c007a40
 c007150:	0c007a40 	.word	0x0c007a40
 c007154:	0c007a40 	.word	0x0c007a40
 c007158:	0c007a40 	.word	0x0c007a40
 c00715c:	0c007a40 	.word	0x0c007a40
 c007160:	0c007a40 	.word	0x0c007a40
 c007164:	0c007a40 	.word	0x0c007a40
 c007168:	0c007a40 	.word	0x0c007a40
 c00716c:	0c007628 	.word	0x0c007628
 c007170:	0c007a40 	.word	0x0c007a40
 c007174:	0c007a40 	.word	0x0c007a40
 c007178:	0c007a40 	.word	0x0c007a40
 c00717c:	0c007a40 	.word	0x0c007a40
 c007180:	0c007a40 	.word	0x0c007a40
 c007184:	0c007a40 	.word	0x0c007a40
 c007188:	0c007a40 	.word	0x0c007a40
 c00718c:	0c007a40 	.word	0x0c007a40
 c007190:	0c007a40 	.word	0x0c007a40
 c007194:	0c007a40 	.word	0x0c007a40
 c007198:	0c0075f0 	.word	0x0c0075f0
 c00719c:	0c007a40 	.word	0x0c007a40
 c0071a0:	0c007a40 	.word	0x0c007a40
 c0071a4:	0c007a40 	.word	0x0c007a40
 c0071a8:	0c007a40 	.word	0x0c007a40
 c0071ac:	0c007a40 	.word	0x0c007a40
 c0071b0:	0c007240 	.word	0x0c007240
 c0071b4:	0c007a40 	.word	0x0c007a40
 c0071b8:	0c007a40 	.word	0x0c007a40
 c0071bc:	0c007804 	.word	0x0c007804
 c0071c0:	0c007a40 	.word	0x0c007a40
 c0071c4:	0c007a40 	.word	0x0c007a40
 c0071c8:	0c007a40 	.word	0x0c007a40
 c0071cc:	0c007a40 	.word	0x0c007a40
 c0071d0:	0c007a40 	.word	0x0c007a40
 c0071d4:	0c007a40 	.word	0x0c007a40
 c0071d8:	0c007a40 	.word	0x0c007a40
 c0071dc:	0c007a40 	.word	0x0c007a40
 c0071e0:	0c007a40 	.word	0x0c007a40
 c0071e4:	0c007a40 	.word	0x0c007a40
 c0071e8:	0c007858 	.word	0x0c007858
 c0071ec:	0c00762c 	.word	0x0c00762c
 c0071f0:	0c007a40 	.word	0x0c007a40
 c0071f4:	0c007a40 	.word	0x0c007a40
 c0071f8:	0c007a40 	.word	0x0c007a40
 c0071fc:	0c0077c4 	.word	0x0c0077c4
 c007200:	0c00762c 	.word	0x0c00762c
 c007204:	0c007a40 	.word	0x0c007a40
 c007208:	0c007a40 	.word	0x0c007a40
 c00720c:	0c0077ac 	.word	0x0c0077ac
 c007210:	0c007a40 	.word	0x0c007a40
 c007214:	0c0077d0 	.word	0x0c0077d0
 c007218:	0c0075f4 	.word	0x0c0075f4
 c00721c:	0c007768 	.word	0x0c007768
 c007220:	0c00775c 	.word	0x0c00775c
 c007224:	0c007a40 	.word	0x0c007a40
 c007228:	0c0076e4 	.word	0x0c0076e4
 c00722c:	0c007a40 	.word	0x0c007a40
 c007230:	0c007244 	.word	0x0c007244
 c007234:	0c007a40 	.word	0x0c007a40
 c007238:	0c007a40 	.word	0x0c007a40
 c00723c:	0c007a10 	.word	0x0c007a10
 c007240:	e38bb010 	orr	fp, fp, #16
 c007244:	e31b0020 	tst	fp, #32
 c007248:	0a0002d0 	beq	c007d90 <_svfiprintf_r+0xdb4>
 c00724c:	e59dc014 	ldr	ip, [sp, #20]
 c007250:	e28c3007 	add	r3, ip, #7
 c007254:	e3c33007 	bic	r3, r3, #7
 c007258:	e8930300 	ldm	r3, {r8, r9}
 c00725c:	e2833008 	add	r3, r3, #8
 c007260:	e1980009 	orrs	r0, r8, r9
 c007264:	e58d3014 	str	r3, [sp, #20]
 c007268:	03a02000 	moveq	r2, #0
 c00726c:	13a02001 	movne	r2, #1
 c007270:	e3a03001 	mov	r3, #1
 c007274:	e3a01000 	mov	r1, #0
 c007278:	e5cd10a7 	strb	r1, [sp, #167]	; 0xa7
 c00727c:	e35a0000 	cmp	sl, #0
 c007280:	a3cbb080 	bicge	fp, fp, #128	; 0x80
 c007284:	e35a0000 	cmp	sl, #0
 c007288:	13822001 	orrne	r2, r2, #1
 c00728c:	e3520000 	cmp	r2, #0
 c007290:	0a0000fa 	beq	c007680 <_svfiprintf_r+0x6a4>
 c007294:	e3530001 	cmp	r3, #1
 c007298:	0a00028a 	beq	c007cc8 <_svfiprintf_r+0xcec>
 c00729c:	e3530002 	cmp	r3, #2
 c0072a0:	0a0001f0 	beq	c007a68 <_svfiprintf_r+0xa8c>
 c0072a4:	e28d2070 	add	r2, sp, #112	; 0x70
 c0072a8:	e2823027 	add	r3, r2, #39	; 0x27
 c0072ac:	e58d2008 	str	r2, [sp, #8]
 c0072b0:	e1a01003 	mov	r1, r3
 c0072b4:	e1a001a9 	lsr	r0, r9, #3
 c0072b8:	e1a0c1a8 	lsr	ip, r8, #3
 c0072bc:	e18cce89 	orr	ip, ip, r9, lsl #29
 c0072c0:	e1a03000 	mov	r3, r0
 c0072c4:	e1a09003 	mov	r9, r3
 c0072c8:	e2080007 	and	r0, r8, #7
 c0072cc:	e1a0800c 	mov	r8, ip
 c0072d0:	e2802030 	add	r2, r0, #48	; 0x30
 c0072d4:	e198c009 	orrs	ip, r8, r9
 c0072d8:	e1a03001 	mov	r3, r1
 c0072dc:	e5c12000 	strb	r2, [r1]
 c0072e0:	e2411001 	sub	r1, r1, #1
 c0072e4:	1afffff2 	bne	c0072b4 <_svfiprintf_r+0x2d8>
 c0072e8:	e31b0001 	tst	fp, #1
 c0072ec:	e58d3020 	str	r3, [sp, #32]
 c0072f0:	0a0001ef 	beq	c007ab4 <_svfiprintf_r+0xad8>
 c0072f4:	e3520030 	cmp	r2, #48	; 0x30
 c0072f8:	0a000346 	beq	c008018 <_svfiprintf_r+0x103c>
 c0072fc:	e59d0008 	ldr	r0, [sp, #8]
 c007300:	e58d1020 	str	r1, [sp, #32]
 c007304:	e59d1020 	ldr	r1, [sp, #32]
 c007308:	e2803028 	add	r3, r0, #40	; 0x28
 c00730c:	e3a02030 	mov	r2, #48	; 0x30
 c007310:	e0613003 	rsb	r3, r1, r3
 c007314:	e5c12000 	strb	r2, [r1]
 c007318:	e58d3008 	str	r3, [sp, #8]
 c00731c:	e58da01c 	str	sl, [sp, #28]
 c007320:	e5dd30a7 	ldrb	r3, [sp, #167]	; 0xa7
 c007324:	e59d9008 	ldr	r9, [sp, #8]
 c007328:	e59d001c 	ldr	r0, [sp, #28]
 c00732c:	e1590000 	cmp	r9, r0
 c007330:	b1a09000 	movlt	r9, r0
 c007334:	e3530000 	cmp	r3, #0
 c007338:	12899001 	addne	r9, r9, #1
 c00733c:	e21b1002 	ands	r1, fp, #2
 c007340:	12899002 	addne	r9, r9, #2
 c007344:	e21b2084 	ands	r2, fp, #132	; 0x84
 c007348:	e58d1024 	str	r1, [sp, #36]	; 0x24
 c00734c:	e58d2028 	str	r2, [sp, #40]	; 0x28
 c007350:	0a000154 	beq	c0078a8 <_svfiprintf_r+0x8cc>
 c007354:	e59d20a0 	ldr	r2, [sp, #160]	; 0xa0
 c007358:	e59d309c 	ldr	r3, [sp, #156]	; 0x9c
 c00735c:	e2841008 	add	r1, r4, #8
 c007360:	e5dd00a7 	ldrb	r0, [sp, #167]	; 0xa7
 c007364:	e3500000 	cmp	r0, #0
 c007368:	0a00000b 	beq	c00739c <_svfiprintf_r+0x3c0>
 c00736c:	e2833001 	add	r3, r3, #1
 c007370:	e28d00a7 	add	r0, sp, #167	; 0xa7
 c007374:	e5840000 	str	r0, [r4]
 c007378:	e3530007 	cmp	r3, #7
 c00737c:	e2822001 	add	r2, r2, #1
 c007380:	e3a00001 	mov	r0, #1
 c007384:	e5840004 	str	r0, [r4, #4]
 c007388:	d1a04001 	movle	r4, r1
 c00738c:	e58d20a0 	str	r2, [sp, #160]	; 0xa0
 c007390:	e58d309c 	str	r3, [sp, #156]	; 0x9c
 c007394:	d2811008 	addle	r1, r1, #8
 c007398:	ca000232 	bgt	c007c68 <_svfiprintf_r+0xc8c>
 c00739c:	e59d0024 	ldr	r0, [sp, #36]	; 0x24
 c0073a0:	e3500000 	cmp	r0, #0
 c0073a4:	0a00000b 	beq	c0073d8 <_svfiprintf_r+0x3fc>
 c0073a8:	e2833001 	add	r3, r3, #1
 c0073ac:	e28d00a4 	add	r0, sp, #164	; 0xa4
 c0073b0:	e5840000 	str	r0, [r4]
 c0073b4:	e3530007 	cmp	r3, #7
 c0073b8:	e2822002 	add	r2, r2, #2
 c0073bc:	e3a00002 	mov	r0, #2
 c0073c0:	e5840004 	str	r0, [r4, #4]
 c0073c4:	d1a04001 	movle	r4, r1
 c0073c8:	e58d20a0 	str	r2, [sp, #160]	; 0xa0
 c0073cc:	e58d309c 	str	r3, [sp, #156]	; 0x9c
 c0073d0:	d2811008 	addle	r1, r1, #8
 c0073d4:	ca00022f 	bgt	c007c98 <_svfiprintf_r+0xcbc>
 c0073d8:	e59d0028 	ldr	r0, [sp, #40]	; 0x28
 c0073dc:	e3500080 	cmp	r0, #128	; 0x80
 c0073e0:	0a0001c8 	beq	c007b08 <_svfiprintf_r+0xb2c>
 c0073e4:	e59d001c 	ldr	r0, [sp, #28]
 c0073e8:	e59dc008 	ldr	ip, [sp, #8]
 c0073ec:	e06c7000 	rsb	r7, ip, r0
 c0073f0:	e3570000 	cmp	r7, #0
 c0073f4:	da000035 	ble	c0074d0 <_svfiprintf_r+0x4f4>
 c0073f8:	e3570010 	cmp	r7, #16
 c0073fc:	da0002e0 	ble	c007f84 <_svfiprintf_r+0xfa8>
 c007400:	e1a01004 	mov	r1, r4
 c007404:	e59f8c58 	ldr	r8, [pc, #3160]	; c008064 <_svfiprintf_r+0x1088>
 c007408:	e3a0a010 	mov	sl, #16
 c00740c:	e59d4018 	ldr	r4, [sp, #24]
 c007410:	ea000002 	b	c007420 <_svfiprintf_r+0x444>
 c007414:	e2477010 	sub	r7, r7, #16
 c007418:	e3570010 	cmp	r7, #16
 c00741c:	da000015 	ble	c007478 <_svfiprintf_r+0x49c>
 c007420:	e2833001 	add	r3, r3, #1
 c007424:	e3530007 	cmp	r3, #7
 c007428:	e8810500 	stm	r1, {r8, sl}
 c00742c:	e2822010 	add	r2, r2, #16
 c007430:	d2811008 	addle	r1, r1, #8
 c007434:	e58d20a0 	str	r2, [sp, #160]	; 0xa0
 c007438:	e58d309c 	str	r3, [sp, #156]	; 0x9c
 c00743c:	d2810008 	addle	r0, r1, #8
 c007440:	dafffff3 	ble	c007414 <_svfiprintf_r+0x438>
 c007444:	e1a00004 	mov	r0, r4
 c007448:	e1a01006 	mov	r1, r6
 c00744c:	e28d2098 	add	r2, sp, #152	; 0x98
 c007450:	ebfffe7a 	bl	c006e40 <__ssprint_r>
 c007454:	e3500000 	cmp	r0, #0
 c007458:	1a0001a1 	bne	c007ae4 <_svfiprintf_r+0xb08>
 c00745c:	e2477010 	sub	r7, r7, #16
 c007460:	e28d1030 	add	r1, sp, #48	; 0x30
 c007464:	e3570010 	cmp	r7, #16
 c007468:	e59d20a0 	ldr	r2, [sp, #160]	; 0xa0
 c00746c:	e59d309c 	ldr	r3, [sp, #156]	; 0x9c
 c007470:	e2810008 	add	r0, r1, #8
 c007474:	caffffe9 	bgt	c007420 <_svfiprintf_r+0x444>
 c007478:	e1a04001 	mov	r4, r1
 c00747c:	e2833001 	add	r3, r3, #1
 c007480:	e3530007 	cmp	r3, #7
 c007484:	e0822007 	add	r2, r2, r7
 c007488:	e5848000 	str	r8, [r4]
 c00748c:	e5847004 	str	r7, [r4, #4]
 c007490:	d2801008 	addle	r1, r0, #8
 c007494:	e58d20a0 	str	r2, [sp, #160]	; 0xa0
 c007498:	e58d309c 	str	r3, [sp, #156]	; 0x9c
 c00749c:	d1a04000 	movle	r4, r0
 c0074a0:	da00000a 	ble	c0074d0 <_svfiprintf_r+0x4f4>
 c0074a4:	e59d0018 	ldr	r0, [sp, #24]
 c0074a8:	e1a01006 	mov	r1, r6
 c0074ac:	e28d2098 	add	r2, sp, #152	; 0x98
 c0074b0:	ebfffe62 	bl	c006e40 <__ssprint_r>
 c0074b4:	e3500000 	cmp	r0, #0
 c0074b8:	1a000189 	bne	c007ae4 <_svfiprintf_r+0xb08>
 c0074bc:	e28dc030 	add	ip, sp, #48	; 0x30
 c0074c0:	e59d20a0 	ldr	r2, [sp, #160]	; 0xa0
 c0074c4:	e59d309c 	ldr	r3, [sp, #156]	; 0x9c
 c0074c8:	e28c1008 	add	r1, ip, #8
 c0074cc:	e1a0400c 	mov	r4, ip
 c0074d0:	e59d0008 	ldr	r0, [sp, #8]
 c0074d4:	e2833001 	add	r3, r3, #1
 c0074d8:	e59dc020 	ldr	ip, [sp, #32]
 c0074dc:	e0822000 	add	r2, r2, r0
 c0074e0:	e3530007 	cmp	r3, #7
 c0074e4:	e584c000 	str	ip, [r4]
 c0074e8:	e5840004 	str	r0, [r4, #4]
 c0074ec:	e58d20a0 	str	r2, [sp, #160]	; 0xa0
 c0074f0:	e58d309c 	str	r3, [sp, #156]	; 0x9c
 c0074f4:	ca0001bf 	bgt	c007bf8 <_svfiprintf_r+0xc1c>
 c0074f8:	e31b0004 	tst	fp, #4
 c0074fc:	0a00002a 	beq	c0075ac <_svfiprintf_r+0x5d0>
 c007500:	e59d000c 	ldr	r0, [sp, #12]
 c007504:	e0694000 	rsb	r4, r9, r0
 c007508:	e3540000 	cmp	r4, #0
 c00750c:	da000026 	ble	c0075ac <_svfiprintf_r+0x5d0>
 c007510:	e3540010 	cmp	r4, #16
 c007514:	da0002cc 	ble	c00804c <_svfiprintf_r+0x1070>
 c007518:	e59d309c 	ldr	r3, [sp, #156]	; 0x9c
 c00751c:	e59f8b44 	ldr	r8, [pc, #2884]	; c008068 <_svfiprintf_r+0x108c>
 c007520:	e3a07010 	mov	r7, #16
 c007524:	e59da018 	ldr	sl, [sp, #24]
 c007528:	ea000002 	b	c007538 <_svfiprintf_r+0x55c>
 c00752c:	e2444010 	sub	r4, r4, #16
 c007530:	e3540010 	cmp	r4, #16
 c007534:	da000014 	ble	c00758c <_svfiprintf_r+0x5b0>
 c007538:	e2833001 	add	r3, r3, #1
 c00753c:	e2822010 	add	r2, r2, #16
 c007540:	e3530007 	cmp	r3, #7
 c007544:	e5818000 	str	r8, [r1]
 c007548:	e5817004 	str	r7, [r1, #4]
 c00754c:	e58d20a0 	str	r2, [sp, #160]	; 0xa0
 c007550:	e58d309c 	str	r3, [sp, #156]	; 0x9c
 c007554:	d2811008 	addle	r1, r1, #8
 c007558:	dafffff3 	ble	c00752c <_svfiprintf_r+0x550>
 c00755c:	e1a0000a 	mov	r0, sl
 c007560:	e1a01006 	mov	r1, r6
 c007564:	e28d2098 	add	r2, sp, #152	; 0x98
 c007568:	ebfffe34 	bl	c006e40 <__ssprint_r>
 c00756c:	e3500000 	cmp	r0, #0
 c007570:	1a00015b 	bne	c007ae4 <_svfiprintf_r+0xb08>
 c007574:	e2444010 	sub	r4, r4, #16
 c007578:	e3540010 	cmp	r4, #16
 c00757c:	e59d20a0 	ldr	r2, [sp, #160]	; 0xa0
 c007580:	e59d309c 	ldr	r3, [sp, #156]	; 0x9c
 c007584:	e28d1030 	add	r1, sp, #48	; 0x30
 c007588:	caffffea 	bgt	c007538 <_svfiprintf_r+0x55c>
 c00758c:	e2833001 	add	r3, r3, #1
 c007590:	e0842002 	add	r2, r4, r2
 c007594:	e3530007 	cmp	r3, #7
 c007598:	e5818000 	str	r8, [r1]
 c00759c:	e5814004 	str	r4, [r1, #4]
 c0075a0:	e58d20a0 	str	r2, [sp, #160]	; 0xa0
 c0075a4:	e58d309c 	str	r3, [sp, #156]	; 0x9c
 c0075a8:	ca00022f 	bgt	c007e6c <_svfiprintf_r+0xe90>
 c0075ac:	e59d1010 	ldr	r1, [sp, #16]
 c0075b0:	e59d300c 	ldr	r3, [sp, #12]
 c0075b4:	e1590003 	cmp	r9, r3
 c0075b8:	a0811009 	addge	r1, r1, r9
 c0075bc:	b0811003 	addlt	r1, r1, r3
 c0075c0:	e3520000 	cmp	r2, #0
 c0075c4:	e58d1010 	str	r1, [sp, #16]
 c0075c8:	1a000193 	bne	c007c1c <_svfiprintf_r+0xc40>
 c0075cc:	e3a0c000 	mov	ip, #0
 c0075d0:	e58dc09c 	str	ip, [sp, #156]	; 0x9c
 c0075d4:	e5d53000 	ldrb	r3, [r5]
 c0075d8:	e3530000 	cmp	r3, #0
 c0075dc:	13530025 	cmpne	r3, #37	; 0x25
 c0075e0:	e28d4030 	add	r4, sp, #48	; 0x30
 c0075e4:	1afffe94 	bne	c00703c <_svfiprintf_r+0x60>
 c0075e8:	e1a07005 	mov	r7, r5
 c0075ec:	eafffea8 	b	c007094 <_svfiprintf_r+0xb8>
 c0075f0:	e38bb010 	orr	fp, fp, #16
 c0075f4:	e21b3020 	ands	r3, fp, #32
 c0075f8:	0a0001d9 	beq	c007d64 <_svfiprintf_r+0xd88>
 c0075fc:	e59dc014 	ldr	ip, [sp, #20]
 c007600:	e28c3007 	add	r3, ip, #7
 c007604:	e3c33007 	bic	r3, r3, #7
 c007608:	e8930300 	ldm	r3, {r8, r9}
 c00760c:	e2833008 	add	r3, r3, #8
 c007610:	e1980009 	orrs	r0, r8, r9
 c007614:	e58d3014 	str	r3, [sp, #20]
 c007618:	03a02000 	moveq	r2, #0
 c00761c:	13a02001 	movne	r2, #1
 c007620:	e3a03000 	mov	r3, #0
 c007624:	eaffff12 	b	c007274 <_svfiprintf_r+0x298>
 c007628:	e38bb010 	orr	fp, fp, #16
 c00762c:	e31b0020 	tst	fp, #32
 c007630:	0a0001e5 	beq	c007dcc <_svfiprintf_r+0xdf0>
 c007634:	e59dc014 	ldr	ip, [sp, #20]
 c007638:	e28c3007 	add	r3, ip, #7
 c00763c:	e3c33007 	bic	r3, r3, #7
 c007640:	e2830008 	add	r0, r3, #8
 c007644:	e58d0014 	str	r0, [sp, #20]
 c007648:	e8930300 	ldm	r3, {r8, r9}
 c00764c:	e3580000 	cmp	r8, #0
 c007650:	e2d9c000 	sbcs	ip, r9, #0
 c007654:	ba0001e6 	blt	c007df4 <_svfiprintf_r+0xe18>
 c007658:	e1980009 	orrs	r0, r8, r9
 c00765c:	03a02000 	moveq	r2, #0
 c007660:	13a02001 	movne	r2, #1
 c007664:	e35a0000 	cmp	sl, #0
 c007668:	a3cbb080 	bicge	fp, fp, #128	; 0x80
 c00766c:	e35a0000 	cmp	sl, #0
 c007670:	13822001 	orrne	r2, r2, #1
 c007674:	e3520000 	cmp	r2, #0
 c007678:	e3a03001 	mov	r3, #1
 c00767c:	1affff04 	bne	c007294 <_svfiprintf_r+0x2b8>
 c007680:	e3530000 	cmp	r3, #0
 c007684:	1a00016b 	bne	c007c38 <_svfiprintf_r+0xc5c>
 c007688:	e31b0001 	tst	fp, #1
 c00768c:	0a0001b0 	beq	c007d54 <_svfiprintf_r+0xd78>
 c007690:	e3a03030 	mov	r3, #48	; 0x30
 c007694:	e5cd3097 	strb	r3, [sp, #151]	; 0x97
 c007698:	e3a02001 	mov	r2, #1
 c00769c:	e28d3097 	add	r3, sp, #151	; 0x97
 c0076a0:	e58d2008 	str	r2, [sp, #8]
 c0076a4:	e58d3020 	str	r3, [sp, #32]
 c0076a8:	eaffff1b 	b	c00731c <_svfiprintf_r+0x340>
 c0076ac:	e59d3014 	ldr	r3, [sp, #20]
 c0076b0:	e5933000 	ldr	r3, [r3]
 c0076b4:	e59dc014 	ldr	ip, [sp, #20]
 c0076b8:	e3530000 	cmp	r3, #0
 c0076bc:	e58d300c 	str	r3, [sp, #12]
 c0076c0:	e28c2004 	add	r2, ip, #4
 c0076c4:	aa0001e5 	bge	c007e60 <_svfiprintf_r+0xe84>
 c0076c8:	e59d300c 	ldr	r3, [sp, #12]
 c0076cc:	e2633000 	rsb	r3, r3, #0
 c0076d0:	e58d300c 	str	r3, [sp, #12]
 c0076d4:	e58d2014 	str	r2, [sp, #20]
 c0076d8:	e38bb004 	orr	fp, fp, #4
 c0076dc:	e5d53000 	ldrb	r3, [r5]
 c0076e0:	eafffe78 	b	c0070c8 <_svfiprintf_r+0xec>
 c0076e4:	e3a0c000 	mov	ip, #0
 c0076e8:	e59d3014 	ldr	r3, [sp, #20]
 c0076ec:	e5cdc0a7 	strb	ip, [sp, #167]	; 0xa7
 c0076f0:	e59d0014 	ldr	r0, [sp, #20]
 c0076f4:	e5933000 	ldr	r3, [r3]
 c0076f8:	e2800004 	add	r0, r0, #4
 c0076fc:	e3530000 	cmp	r3, #0
 c007700:	e58d3020 	str	r3, [sp, #32]
 c007704:	e58d0014 	str	r0, [sp, #20]
 c007708:	0a000248 	beq	c008030 <_svfiprintf_r+0x1054>
 c00770c:	e35a0000 	cmp	sl, #0
 c007710:	ba00020e 	blt	c007f50 <_svfiprintf_r+0xf74>
 c007714:	e59d0020 	ldr	r0, [sp, #32]
 c007718:	e3a01000 	mov	r1, #0
 c00771c:	e1a0200a 	mov	r2, sl
 c007720:	ebfff8fd 	bl	c005b1c <memchr>
 c007724:	e3500000 	cmp	r0, #0
 c007728:	058da008 	streq	sl, [sp, #8]
 c00772c:	058d001c 	streq	r0, [sp, #28]
 c007730:	0afffefa 	beq	c007320 <_svfiprintf_r+0x344>
 c007734:	e59d2020 	ldr	r2, [sp, #32]
 c007738:	e0620000 	rsb	r0, r2, r0
 c00773c:	e150000a 	cmp	r0, sl
 c007740:	c3a0c000 	movgt	ip, #0
 c007744:	e58d0008 	str	r0, [sp, #8]
 c007748:	c58dc01c 	strgt	ip, [sp, #28]
 c00774c:	c58da008 	strgt	sl, [sp, #8]
 c007750:	d3a03000 	movle	r3, #0
 c007754:	d58d301c 	strle	r3, [sp, #28]
 c007758:	eafffef0 	b	c007320 <_svfiprintf_r+0x344>
 c00775c:	e38bb020 	orr	fp, fp, #32
 c007760:	e5d53000 	ldrb	r3, [r5]
 c007764:	eafffe57 	b	c0070c8 <_svfiprintf_r+0xec>
 c007768:	e59d3014 	ldr	r3, [sp, #20]
 c00776c:	e5932000 	ldr	r2, [r3]
 c007770:	e2831004 	add	r1, r3, #4
 c007774:	e3a03030 	mov	r3, #48	; 0x30
 c007778:	e5cd30a4 	strb	r3, [sp, #164]	; 0xa4
 c00777c:	e3a03078 	mov	r3, #120	; 0x78
 c007780:	e5cd30a5 	strb	r3, [sp, #165]	; 0xa5
 c007784:	e59f38e0 	ldr	r3, [pc, #2272]	; c00806c <_svfiprintf_r+0x1090>
 c007788:	e1a08002 	mov	r8, r2
 c00778c:	e3a09000 	mov	r9, #0
 c007790:	e2522000 	subs	r2, r2, #0
 c007794:	e58d302c 	str	r3, [sp, #44]	; 0x2c
 c007798:	e58d1014 	str	r1, [sp, #20]
 c00779c:	e38bb002 	orr	fp, fp, #2
 c0077a0:	13a02001 	movne	r2, #1
 c0077a4:	e3a03002 	mov	r3, #2
 c0077a8:	eafffeb1 	b	c007274 <_svfiprintf_r+0x298>
 c0077ac:	e5d53000 	ldrb	r3, [r5]
 c0077b0:	e353006c 	cmp	r3, #108	; 0x6c
 c0077b4:	038bb020 	orreq	fp, fp, #32
 c0077b8:	05f53001 	ldrbeq	r3, [r5, #1]!
 c0077bc:	138bb010 	orrne	fp, fp, #16
 c0077c0:	eafffe40 	b	c0070c8 <_svfiprintf_r+0xec>
 c0077c4:	e38bb040 	orr	fp, fp, #64	; 0x40
 c0077c8:	e5d53000 	ldrb	r3, [r5]
 c0077cc:	eafffe3d 	b	c0070c8 <_svfiprintf_r+0xec>
 c0077d0:	e31b0020 	tst	fp, #32
 c0077d4:	1a0001c8 	bne	c007efc <_svfiprintf_r+0xf20>
 c0077d8:	e31b0010 	tst	fp, #16
 c0077dc:	1a0001e1 	bne	c007f68 <_svfiprintf_r+0xf8c>
 c0077e0:	e31b0040 	tst	fp, #64	; 0x40
 c0077e4:	0a0001df 	beq	c007f68 <_svfiprintf_r+0xf8c>
 c0077e8:	e28d0010 	add	r0, sp, #16
 c0077ec:	e8901001 	ldm	r0, {r0, ip}
 c0077f0:	e59c3000 	ldr	r3, [ip]
 c0077f4:	e28cc004 	add	ip, ip, #4
 c0077f8:	e58dc014 	str	ip, [sp, #20]
 c0077fc:	e1c300b0 	strh	r0, [r3]
 c007800:	eafffe09 	b	c00702c <_svfiprintf_r+0x50>
 c007804:	e59f2864 	ldr	r2, [pc, #2148]	; c008070 <_svfiprintf_r+0x1094>
 c007808:	e31b0020 	tst	fp, #32
 c00780c:	e58d202c 	str	r2, [sp, #44]	; 0x2c
 c007810:	0a000082 	beq	c007a20 <_svfiprintf_r+0xa44>
 c007814:	e59dc014 	ldr	ip, [sp, #20]
 c007818:	e28c2007 	add	r2, ip, #7
 c00781c:	e3c22007 	bic	r2, r2, #7
 c007820:	e2820008 	add	r0, r2, #8
 c007824:	e58d0014 	str	r0, [sp, #20]
 c007828:	e8920300 	ldm	r2, {r8, r9}
 c00782c:	e1980009 	orrs	r0, r8, r9
 c007830:	03a02000 	moveq	r2, #0
 c007834:	13a02001 	movne	r2, #1
 c007838:	e11b0002 	tst	fp, r2
 c00783c:	13a02030 	movne	r2, #48	; 0x30
 c007840:	15cd20a4 	strbne	r2, [sp, #164]	; 0xa4
 c007844:	15cd30a5 	strbne	r3, [sp, #165]	; 0xa5
 c007848:	138bb002 	orrne	fp, fp, #2
 c00784c:	13a02001 	movne	r2, #1
 c007850:	e3a03002 	mov	r3, #2
 c007854:	eafffe86 	b	c007274 <_svfiprintf_r+0x298>
 c007858:	e59d0014 	ldr	r0, [sp, #20]
 c00785c:	e59d3014 	ldr	r3, [sp, #20]
 c007860:	e2800004 	add	r0, r0, #4
 c007864:	e5933000 	ldr	r3, [r3]
 c007868:	e58d0014 	str	r0, [sp, #20]
 c00786c:	e3a09001 	mov	r9, #1
 c007870:	e3a01000 	mov	r1, #0
 c007874:	e28d2070 	add	r2, sp, #112	; 0x70
 c007878:	e5cd3070 	strb	r3, [sp, #112]	; 0x70
 c00787c:	e5cd10a7 	strb	r1, [sp, #167]	; 0xa7
 c007880:	e58d9008 	str	r9, [sp, #8]
 c007884:	e58d2020 	str	r2, [sp, #32]
 c007888:	e3a01000 	mov	r1, #0
 c00788c:	e58d101c 	str	r1, [sp, #28]
 c007890:	e21b1002 	ands	r1, fp, #2
 c007894:	12899002 	addne	r9, r9, #2
 c007898:	e21b2084 	ands	r2, fp, #132	; 0x84
 c00789c:	e58d1024 	str	r1, [sp, #36]	; 0x24
 c0078a0:	e58d2028 	str	r2, [sp, #40]	; 0x28
 c0078a4:	1afffeaa 	bne	c007354 <_svfiprintf_r+0x378>
 c0078a8:	e59d300c 	ldr	r3, [sp, #12]
 c0078ac:	e0697003 	rsb	r7, r9, r3
 c0078b0:	e3570000 	cmp	r7, #0
 c0078b4:	dafffea6 	ble	c007354 <_svfiprintf_r+0x378>
 c0078b8:	e3570010 	cmp	r7, #16
 c0078bc:	da0001d0 	ble	c008004 <_svfiprintf_r+0x1028>
 c0078c0:	e1a01004 	mov	r1, r4
 c0078c4:	e59d20a0 	ldr	r2, [sp, #160]	; 0xa0
 c0078c8:	e59d309c 	ldr	r3, [sp, #156]	; 0x9c
 c0078cc:	e59f8794 	ldr	r8, [pc, #1940]	; c008068 <_svfiprintf_r+0x108c>
 c0078d0:	e3a0a010 	mov	sl, #16
 c0078d4:	e59d4018 	ldr	r4, [sp, #24]
 c0078d8:	ea000002 	b	c0078e8 <_svfiprintf_r+0x90c>
 c0078dc:	e2477010 	sub	r7, r7, #16
 c0078e0:	e3570010 	cmp	r7, #16
 c0078e4:	da000016 	ble	c007944 <_svfiprintf_r+0x968>
 c0078e8:	e2833001 	add	r3, r3, #1
 c0078ec:	e3530007 	cmp	r3, #7
 c0078f0:	e8810500 	stm	r1, {r8, sl}
 c0078f4:	e2822010 	add	r2, r2, #16
 c0078f8:	d2811008 	addle	r1, r1, #8
 c0078fc:	e58d20a0 	str	r2, [sp, #160]	; 0xa0
 c007900:	e58d309c 	str	r3, [sp, #156]	; 0x9c
 c007904:	d2810008 	addle	r0, r1, #8
 c007908:	dafffff3 	ble	c0078dc <_svfiprintf_r+0x900>
 c00790c:	e1a00004 	mov	r0, r4
 c007910:	e1a01006 	mov	r1, r6
 c007914:	e28d2098 	add	r2, sp, #152	; 0x98
 c007918:	ebfffd48 	bl	c006e40 <__ssprint_r>
 c00791c:	e3500000 	cmp	r0, #0
 c007920:	1a00006f 	bne	c007ae4 <_svfiprintf_r+0xb08>
 c007924:	e2477010 	sub	r7, r7, #16
 c007928:	e28dc030 	add	ip, sp, #48	; 0x30
 c00792c:	e3570010 	cmp	r7, #16
 c007930:	e59d20a0 	ldr	r2, [sp, #160]	; 0xa0
 c007934:	e59d309c 	ldr	r3, [sp, #156]	; 0x9c
 c007938:	e28c0008 	add	r0, ip, #8
 c00793c:	e1a0100c 	mov	r1, ip
 c007940:	caffffe8 	bgt	c0078e8 <_svfiprintf_r+0x90c>
 c007944:	e1a04001 	mov	r4, r1
 c007948:	e2833001 	add	r3, r3, #1
 c00794c:	e0822007 	add	r2, r2, r7
 c007950:	e3530007 	cmp	r3, #7
 c007954:	e5848000 	str	r8, [r4]
 c007958:	e5847004 	str	r7, [r4, #4]
 c00795c:	e58d20a0 	str	r2, [sp, #160]	; 0xa0
 c007960:	e58d309c 	str	r3, [sp, #156]	; 0x9c
 c007964:	ca00012b 	bgt	c007e18 <_svfiprintf_r+0xe3c>
 c007968:	e2801008 	add	r1, r0, #8
 c00796c:	e1a04000 	mov	r4, r0
 c007970:	eafffe7a 	b	c007360 <_svfiprintf_r+0x384>
 c007974:	e38bb001 	orr	fp, fp, #1
 c007978:	e5d53000 	ldrb	r3, [r5]
 c00797c:	eafffdd1 	b	c0070c8 <_svfiprintf_r+0xec>
 c007980:	e1a0c005 	mov	ip, r5
 c007984:	e3a02000 	mov	r2, #0
 c007988:	e2435030 	sub	r5, r3, #48	; 0x30
 c00798c:	e4dc3001 	ldrb	r3, [ip], #1
 c007990:	e2437030 	sub	r7, r3, #48	; 0x30
 c007994:	e0822102 	add	r2, r2, r2, lsl #2
 c007998:	e3570009 	cmp	r7, #9
 c00799c:	e0852082 	add	r2, r5, r2, lsl #1
 c0079a0:	e1a0500c 	mov	r5, ip
 c0079a4:	9afffff7 	bls	c007988 <_svfiprintf_r+0x9ac>
 c0079a8:	e58d200c 	str	r2, [sp, #12]
 c0079ac:	eafffdc6 	b	c0070cc <_svfiprintf_r+0xf0>
 c0079b0:	e38bb080 	orr	fp, fp, #128	; 0x80
 c0079b4:	e5d53000 	ldrb	r3, [r5]
 c0079b8:	eafffdc2 	b	c0070c8 <_svfiprintf_r+0xec>
 c0079bc:	e5cd10a7 	strb	r1, [sp, #167]	; 0xa7
 c0079c0:	e5d53000 	ldrb	r3, [r5]
 c0079c4:	eafffdbf 	b	c0070c8 <_svfiprintf_r+0xec>
 c0079c8:	e4d53001 	ldrb	r3, [r5], #1
 c0079cc:	e353002a 	cmp	r3, #42	; 0x2a
 c0079d0:	0a00011a 	beq	c007e40 <_svfiprintf_r+0xe64>
 c0079d4:	e2432030 	sub	r2, r3, #48	; 0x30
 c0079d8:	e3520009 	cmp	r2, #9
 c0079dc:	83a0a000 	movhi	sl, #0
 c0079e0:	8a000008 	bhi	c007a08 <_svfiprintf_r+0xa2c>
 c0079e4:	e1a0c005 	mov	ip, r5
 c0079e8:	e3a0a000 	mov	sl, #0
 c0079ec:	e4dc3001 	ldrb	r3, [ip], #1
 c0079f0:	e08aa10a 	add	sl, sl, sl, lsl #2
 c0079f4:	e082a08a 	add	sl, r2, sl, lsl #1
 c0079f8:	e2432030 	sub	r2, r3, #48	; 0x30
 c0079fc:	e3520009 	cmp	r2, #9
 c007a00:	e1a0500c 	mov	r5, ip
 c007a04:	9afffff8 	bls	c0079ec <_svfiprintf_r+0xa10>
 c007a08:	e18aafca 	orr	sl, sl, sl, asr #31
 c007a0c:	eafffdae 	b	c0070cc <_svfiprintf_r+0xf0>
 c007a10:	e59f1654 	ldr	r1, [pc, #1620]	; c00806c <_svfiprintf_r+0x1090>
 c007a14:	e31b0020 	tst	fp, #32
 c007a18:	e58d102c 	str	r1, [sp, #44]	; 0x2c
 c007a1c:	1affff7c 	bne	c007814 <_svfiprintf_r+0x838>
 c007a20:	e31b0010 	tst	fp, #16
 c007a24:	0a00013e 	beq	c007f24 <_svfiprintf_r+0xf48>
 c007a28:	e59d1014 	ldr	r1, [sp, #20]
 c007a2c:	e5918000 	ldr	r8, [r1]
 c007a30:	e2811004 	add	r1, r1, #4
 c007a34:	e58d1014 	str	r1, [sp, #20]
 c007a38:	e3a09000 	mov	r9, #0
 c007a3c:	eaffff7a 	b	c00782c <_svfiprintf_r+0x850>
 c007a40:	e3530000 	cmp	r3, #0
 c007a44:	0a000020 	beq	c007acc <_svfiprintf_r+0xaf0>
 c007a48:	e3a09001 	mov	r9, #1
 c007a4c:	eaffff87 	b	c007870 <_svfiprintf_r+0x894>
 c007a50:	e5dd30a7 	ldrb	r3, [sp, #167]	; 0xa7
 c007a54:	e3530000 	cmp	r3, #0
 c007a58:	15d53000 	ldrbne	r3, [r5]
 c007a5c:	05cd00a7 	strbeq	r0, [sp, #167]	; 0xa7
 c007a60:	05d53000 	ldrbeq	r3, [r5]
 c007a64:	eafffd97 	b	c0070c8 <_svfiprintf_r+0xec>
 c007a68:	e28d3070 	add	r3, sp, #112	; 0x70
 c007a6c:	e58d3008 	str	r3, [sp, #8]
 c007a70:	e59d702c 	ldr	r7, [sp, #44]	; 0x2c
 c007a74:	e2833027 	add	r3, r3, #39	; 0x27
 c007a78:	e1a01003 	mov	r1, r3
 c007a7c:	e1a00229 	lsr	r0, r9, #4
 c007a80:	e1a0c228 	lsr	ip, r8, #4
 c007a84:	e18cce09 	orr	ip, ip, r9, lsl #28
 c007a88:	e1a03000 	mov	r3, r0
 c007a8c:	e208800f 	and	r8, r8, #15
 c007a90:	e7d70008 	ldrb	r0, [r7, r8]
 c007a94:	e1a09003 	mov	r9, r3
 c007a98:	e1a0800c 	mov	r8, ip
 c007a9c:	e198c009 	orrs	ip, r8, r9
 c007aa0:	e1a03001 	mov	r3, r1
 c007aa4:	e5c10000 	strb	r0, [r1]
 c007aa8:	e2411001 	sub	r1, r1, #1
 c007aac:	1afffff2 	bne	c007a7c <_svfiprintf_r+0xaa0>
 c007ab0:	e58d3020 	str	r3, [sp, #32]
 c007ab4:	e59d0008 	ldr	r0, [sp, #8]
 c007ab8:	e59d1020 	ldr	r1, [sp, #32]
 c007abc:	e2803028 	add	r3, r0, #40	; 0x28
 c007ac0:	e0613003 	rsb	r3, r1, r3
 c007ac4:	e58d3008 	str	r3, [sp, #8]
 c007ac8:	eafffe13 	b	c00731c <_svfiprintf_r+0x340>
 c007acc:	e59d30a0 	ldr	r3, [sp, #160]	; 0xa0
 c007ad0:	e3530000 	cmp	r3, #0
 c007ad4:	159d0018 	ldrne	r0, [sp, #24]
 c007ad8:	11a01006 	movne	r1, r6
 c007adc:	128d2098 	addne	r2, sp, #152	; 0x98
 c007ae0:	1bfffcd6 	blne	c006e40 <__ssprint_r>
 c007ae4:	e1d630bc 	ldrh	r3, [r6, #12]
 c007ae8:	e59d0010 	ldr	r0, [sp, #16]
 c007aec:	e3130040 	tst	r3, #64	; 0x40
 c007af0:	13e00000 	mvnne	r0, #0
 c007af4:	e58d0010 	str	r0, [sp, #16]
 c007af8:	e59d0010 	ldr	r0, [sp, #16]
 c007afc:	e28dd0ac 	add	sp, sp, #172	; 0xac
 c007b00:	e8bd4ff0 	pop	{r4, r5, r6, r7, r8, r9, sl, fp, lr}
 c007b04:	e12fff1e 	bx	lr
 c007b08:	e59dc00c 	ldr	ip, [sp, #12]
 c007b0c:	e069700c 	rsb	r7, r9, ip
 c007b10:	e3570000 	cmp	r7, #0
 c007b14:	d2841008 	addle	r1, r4, #8
 c007b18:	dafffe31 	ble	c0073e4 <_svfiprintf_r+0x408>
 c007b1c:	e3570010 	cmp	r7, #16
 c007b20:	da00014c 	ble	c008058 <_svfiprintf_r+0x107c>
 c007b24:	e1a01004 	mov	r1, r4
 c007b28:	e59f8534 	ldr	r8, [pc, #1332]	; c008064 <_svfiprintf_r+0x1088>
 c007b2c:	e3a0a010 	mov	sl, #16
 c007b30:	e59d4018 	ldr	r4, [sp, #24]
 c007b34:	ea000002 	b	c007b44 <_svfiprintf_r+0xb68>
 c007b38:	e2477010 	sub	r7, r7, #16
 c007b3c:	e3570010 	cmp	r7, #16
 c007b40:	da000015 	ble	c007b9c <_svfiprintf_r+0xbc0>
 c007b44:	e2833001 	add	r3, r3, #1
 c007b48:	e3530007 	cmp	r3, #7
 c007b4c:	e8810500 	stm	r1, {r8, sl}
 c007b50:	e2822010 	add	r2, r2, #16
 c007b54:	d2811008 	addle	r1, r1, #8
 c007b58:	e58d20a0 	str	r2, [sp, #160]	; 0xa0
 c007b5c:	e58d309c 	str	r3, [sp, #156]	; 0x9c
 c007b60:	d2810008 	addle	r0, r1, #8
 c007b64:	dafffff3 	ble	c007b38 <_svfiprintf_r+0xb5c>
 c007b68:	e1a00004 	mov	r0, r4
 c007b6c:	e1a01006 	mov	r1, r6
 c007b70:	e28d2098 	add	r2, sp, #152	; 0x98
 c007b74:	ebfffcb1 	bl	c006e40 <__ssprint_r>
 c007b78:	e3500000 	cmp	r0, #0
 c007b7c:	1affffd8 	bne	c007ae4 <_svfiprintf_r+0xb08>
 c007b80:	e2477010 	sub	r7, r7, #16
 c007b84:	e28d1030 	add	r1, sp, #48	; 0x30
 c007b88:	e3570010 	cmp	r7, #16
 c007b8c:	e59d20a0 	ldr	r2, [sp, #160]	; 0xa0
 c007b90:	e59d309c 	ldr	r3, [sp, #156]	; 0x9c
 c007b94:	e2810008 	add	r0, r1, #8
 c007b98:	caffffe9 	bgt	c007b44 <_svfiprintf_r+0xb68>
 c007b9c:	e1a04001 	mov	r4, r1
 c007ba0:	e2833001 	add	r3, r3, #1
 c007ba4:	e3530007 	cmp	r3, #7
 c007ba8:	e0822007 	add	r2, r2, r7
 c007bac:	e5848000 	str	r8, [r4]
 c007bb0:	e5847004 	str	r7, [r4, #4]
 c007bb4:	d2801008 	addle	r1, r0, #8
 c007bb8:	e58d20a0 	str	r2, [sp, #160]	; 0xa0
 c007bbc:	e58d309c 	str	r3, [sp, #156]	; 0x9c
 c007bc0:	d1a04000 	movle	r4, r0
 c007bc4:	dafffe06 	ble	c0073e4 <_svfiprintf_r+0x408>
 c007bc8:	e59d0018 	ldr	r0, [sp, #24]
 c007bcc:	e1a01006 	mov	r1, r6
 c007bd0:	e28d2098 	add	r2, sp, #152	; 0x98
 c007bd4:	ebfffc99 	bl	c006e40 <__ssprint_r>
 c007bd8:	e3500000 	cmp	r0, #0
 c007bdc:	1affffc0 	bne	c007ae4 <_svfiprintf_r+0xb08>
 c007be0:	e28dc030 	add	ip, sp, #48	; 0x30
 c007be4:	e59d20a0 	ldr	r2, [sp, #160]	; 0xa0
 c007be8:	e59d309c 	ldr	r3, [sp, #156]	; 0x9c
 c007bec:	e28c1008 	add	r1, ip, #8
 c007bf0:	e1a0400c 	mov	r4, ip
 c007bf4:	eafffdfa 	b	c0073e4 <_svfiprintf_r+0x408>
 c007bf8:	e59d0018 	ldr	r0, [sp, #24]
 c007bfc:	e1a01006 	mov	r1, r6
 c007c00:	e28d2098 	add	r2, sp, #152	; 0x98
 c007c04:	ebfffc8d 	bl	c006e40 <__ssprint_r>
 c007c08:	e3500000 	cmp	r0, #0
 c007c0c:	1affffb4 	bne	c007ae4 <_svfiprintf_r+0xb08>
 c007c10:	e59d20a0 	ldr	r2, [sp, #160]	; 0xa0
 c007c14:	e28d1030 	add	r1, sp, #48	; 0x30
 c007c18:	eafffe36 	b	c0074f8 <_svfiprintf_r+0x51c>
 c007c1c:	e59d0018 	ldr	r0, [sp, #24]
 c007c20:	e1a01006 	mov	r1, r6
 c007c24:	e28d2098 	add	r2, sp, #152	; 0x98
 c007c28:	ebfffc84 	bl	c006e40 <__ssprint_r>
 c007c2c:	e3500000 	cmp	r0, #0
 c007c30:	0afffe65 	beq	c0075cc <_svfiprintf_r+0x5f0>
 c007c34:	eaffffaa 	b	c007ae4 <_svfiprintf_r+0xb08>
 c007c38:	e28dc098 	add	ip, sp, #152	; 0x98
 c007c3c:	e58d2008 	str	r2, [sp, #8]
 c007c40:	e58dc020 	str	ip, [sp, #32]
 c007c44:	eafffdb4 	b	c00731c <_svfiprintf_r+0x340>
 c007c48:	e59d0018 	ldr	r0, [sp, #24]
 c007c4c:	e1a01006 	mov	r1, r6
 c007c50:	e28d2098 	add	r2, sp, #152	; 0x98
 c007c54:	ebfffc79 	bl	c006e40 <__ssprint_r>
 c007c58:	e3500000 	cmp	r0, #0
 c007c5c:	1affffa0 	bne	c007ae4 <_svfiprintf_r+0xb08>
 c007c60:	e28d4030 	add	r4, sp, #48	; 0x30
 c007c64:	eafffd07 	b	c007088 <_svfiprintf_r+0xac>
 c007c68:	e59d0018 	ldr	r0, [sp, #24]
 c007c6c:	e1a01006 	mov	r1, r6
 c007c70:	e28d2098 	add	r2, sp, #152	; 0x98
 c007c74:	ebfffc71 	bl	c006e40 <__ssprint_r>
 c007c78:	e3500000 	cmp	r0, #0
 c007c7c:	1affff98 	bne	c007ae4 <_svfiprintf_r+0xb08>
 c007c80:	e28dc030 	add	ip, sp, #48	; 0x30
 c007c84:	e59d20a0 	ldr	r2, [sp, #160]	; 0xa0
 c007c88:	e59d309c 	ldr	r3, [sp, #156]	; 0x9c
 c007c8c:	e28c1008 	add	r1, ip, #8
 c007c90:	e1a0400c 	mov	r4, ip
 c007c94:	eafffdc0 	b	c00739c <_svfiprintf_r+0x3c0>
 c007c98:	e59d0018 	ldr	r0, [sp, #24]
 c007c9c:	e1a01006 	mov	r1, r6
 c007ca0:	e28d2098 	add	r2, sp, #152	; 0x98
 c007ca4:	ebfffc65 	bl	c006e40 <__ssprint_r>
 c007ca8:	e3500000 	cmp	r0, #0
 c007cac:	1affff8c 	bne	c007ae4 <_svfiprintf_r+0xb08>
 c007cb0:	e28dc030 	add	ip, sp, #48	; 0x30
 c007cb4:	e59d20a0 	ldr	r2, [sp, #160]	; 0xa0
 c007cb8:	e59d309c 	ldr	r3, [sp, #156]	; 0x9c
 c007cbc:	e28c1008 	add	r1, ip, #8
 c007cc0:	e1a0400c 	mov	r4, ip
 c007cc4:	eafffdc3 	b	c0073d8 <_svfiprintf_r+0x3fc>
 c007cc8:	e3590000 	cmp	r9, #0
 c007ccc:	03580009 	cmpeq	r8, #9
 c007cd0:	9a00006d 	bls	c007e8c <_svfiprintf_r+0xeb0>
 c007cd4:	e28dc070 	add	ip, sp, #112	; 0x70
 c007cd8:	e58dc008 	str	ip, [sp, #8]
 c007cdc:	e58d501c 	str	r5, [sp, #28]
 c007ce0:	e28c7027 	add	r7, ip, #39	; 0x27
 c007ce4:	e1a05004 	mov	r5, r4
 c007ce8:	e1a00008 	mov	r0, r8
 c007cec:	e1a01009 	mov	r1, r9
 c007cf0:	e3a0200a 	mov	r2, #10
 c007cf4:	e3a03000 	mov	r3, #0
 c007cf8:	eb000770 	bl	c009ac0 <__aeabi_uldivmod>
 c007cfc:	e2822030 	add	r2, r2, #48	; 0x30
 c007d00:	e5c72000 	strb	r2, [r7]
 c007d04:	e1a00008 	mov	r0, r8
 c007d08:	e1a01009 	mov	r1, r9
 c007d0c:	e3a0200a 	mov	r2, #10
 c007d10:	e3a03000 	mov	r3, #0
 c007d14:	eb000769 	bl	c009ac0 <__aeabi_uldivmod>
 c007d18:	e1a08000 	mov	r8, r0
 c007d1c:	e1a09001 	mov	r9, r1
 c007d20:	e1980009 	orrs	r0, r8, r9
 c007d24:	e1a04007 	mov	r4, r7
 c007d28:	e2477001 	sub	r7, r7, #1
 c007d2c:	1affffed 	bne	c007ce8 <_svfiprintf_r+0xd0c>
 c007d30:	e58d4020 	str	r4, [sp, #32]
 c007d34:	e59d1008 	ldr	r1, [sp, #8]
 c007d38:	e59d2020 	ldr	r2, [sp, #32]
 c007d3c:	e2813028 	add	r3, r1, #40	; 0x28
 c007d40:	e0623003 	rsb	r3, r2, r3
 c007d44:	e1a04005 	mov	r4, r5
 c007d48:	e58d3008 	str	r3, [sp, #8]
 c007d4c:	e59d501c 	ldr	r5, [sp, #28]
 c007d50:	eafffd71 	b	c00731c <_svfiprintf_r+0x340>
 c007d54:	e28d0098 	add	r0, sp, #152	; 0x98
 c007d58:	e58d3008 	str	r3, [sp, #8]
 c007d5c:	e58d0020 	str	r0, [sp, #32]
 c007d60:	eafffd6d 	b	c00731c <_svfiprintf_r+0x340>
 c007d64:	e21b1010 	ands	r1, fp, #16
 c007d68:	0a000052 	beq	c007eb8 <_svfiprintf_r+0xedc>
 c007d6c:	e59d1014 	ldr	r1, [sp, #20]
 c007d70:	e5912000 	ldr	r2, [r1]
 c007d74:	e1a08002 	mov	r8, r2
 c007d78:	e3a09000 	mov	r9, #0
 c007d7c:	e2811004 	add	r1, r1, #4
 c007d80:	e2522000 	subs	r2, r2, #0
 c007d84:	13a02001 	movne	r2, #1
 c007d88:	e58d1014 	str	r1, [sp, #20]
 c007d8c:	eafffd38 	b	c007274 <_svfiprintf_r+0x298>
 c007d90:	e31b0010 	tst	fp, #16
 c007d94:	1a000043 	bne	c007ea8 <_svfiprintf_r+0xecc>
 c007d98:	e31b0040 	tst	fp, #64	; 0x40
 c007d9c:	0a000084 	beq	c007fb4 <_svfiprintf_r+0xfd8>
 c007da0:	e59d3014 	ldr	r3, [sp, #20]
 c007da4:	e1d320b0 	ldrh	r2, [r3]
 c007da8:	e3a03001 	mov	r3, #1
 c007dac:	e59dc014 	ldr	ip, [sp, #20]
 c007db0:	e1a08002 	mov	r8, r2
 c007db4:	e3a09000 	mov	r9, #0
 c007db8:	e28cc004 	add	ip, ip, #4
 c007dbc:	e2522000 	subs	r2, r2, #0
 c007dc0:	13a02001 	movne	r2, #1
 c007dc4:	e58dc014 	str	ip, [sp, #20]
 c007dc8:	eafffd29 	b	c007274 <_svfiprintf_r+0x298>
 c007dcc:	e31b0010 	tst	fp, #16
 c007dd0:	0a00003e 	beq	c007ed0 <_svfiprintf_r+0xef4>
 c007dd4:	e59d1014 	ldr	r1, [sp, #20]
 c007dd8:	e5918000 	ldr	r8, [r1]
 c007ddc:	e1a09fc8 	asr	r9, r8, #31
 c007de0:	e2811004 	add	r1, r1, #4
 c007de4:	e3580000 	cmp	r8, #0
 c007de8:	e2d9c000 	sbcs	ip, r9, #0
 c007dec:	e58d1014 	str	r1, [sp, #20]
 c007df0:	aafffe18 	bge	c007658 <_svfiprintf_r+0x67c>
 c007df4:	e2788000 	rsbs	r8, r8, #0
 c007df8:	e2e99000 	rsc	r9, r9, #0
 c007dfc:	e3a0302d 	mov	r3, #45	; 0x2d
 c007e00:	e1981009 	orrs	r1, r8, r9
 c007e04:	e5cd30a7 	strb	r3, [sp, #167]	; 0xa7
 c007e08:	03a02000 	moveq	r2, #0
 c007e0c:	13a02001 	movne	r2, #1
 c007e10:	e3a03001 	mov	r3, #1
 c007e14:	eafffd18 	b	c00727c <_svfiprintf_r+0x2a0>
 c007e18:	e59d0018 	ldr	r0, [sp, #24]
 c007e1c:	e1a01006 	mov	r1, r6
 c007e20:	e28d2098 	add	r2, sp, #152	; 0x98
 c007e24:	ebfffc05 	bl	c006e40 <__ssprint_r>
 c007e28:	e3500000 	cmp	r0, #0
 c007e2c:	1affff2c 	bne	c007ae4 <_svfiprintf_r+0xb08>
 c007e30:	e59d20a0 	ldr	r2, [sp, #160]	; 0xa0
 c007e34:	e59d309c 	ldr	r3, [sp, #156]	; 0x9c
 c007e38:	e28d0030 	add	r0, sp, #48	; 0x30
 c007e3c:	eafffec9 	b	c007968 <_svfiprintf_r+0x98c>
 c007e40:	e59dc014 	ldr	ip, [sp, #20]
 c007e44:	e59ca000 	ldr	sl, [ip]
 c007e48:	e28c2004 	add	r2, ip, #4
 c007e4c:	e35a0000 	cmp	sl, #0
 c007e50:	b5d53000 	ldrblt	r3, [r5]
 c007e54:	b3e0a000 	mvnlt	sl, #0
 c007e58:	b58d2014 	strlt	r2, [sp, #20]
 c007e5c:	bafffc99 	blt	c0070c8 <_svfiprintf_r+0xec>
 c007e60:	e5d53000 	ldrb	r3, [r5]
 c007e64:	e58d2014 	str	r2, [sp, #20]
 c007e68:	eafffc96 	b	c0070c8 <_svfiprintf_r+0xec>
 c007e6c:	e59d0018 	ldr	r0, [sp, #24]
 c007e70:	e1a01006 	mov	r1, r6
 c007e74:	e28d2098 	add	r2, sp, #152	; 0x98
 c007e78:	ebfffbf0 	bl	c006e40 <__ssprint_r>
 c007e7c:	e3500000 	cmp	r0, #0
 c007e80:	1affff17 	bne	c007ae4 <_svfiprintf_r+0xb08>
 c007e84:	e59d20a0 	ldr	r2, [sp, #160]	; 0xa0
 c007e88:	eafffdc7 	b	c0075ac <_svfiprintf_r+0x5d0>
 c007e8c:	e2888030 	add	r8, r8, #48	; 0x30
 c007e90:	e3a02001 	mov	r2, #1
 c007e94:	e28d3097 	add	r3, sp, #151	; 0x97
 c007e98:	e5cd8097 	strb	r8, [sp, #151]	; 0x97
 c007e9c:	e58d2008 	str	r2, [sp, #8]
 c007ea0:	e58d3020 	str	r3, [sp, #32]
 c007ea4:	eafffd1c 	b	c00731c <_svfiprintf_r+0x340>
 c007ea8:	e59d1014 	ldr	r1, [sp, #20]
 c007eac:	e3a03001 	mov	r3, #1
 c007eb0:	e5912000 	ldr	r2, [r1]
 c007eb4:	eaffffae 	b	c007d74 <_svfiprintf_r+0xd98>
 c007eb8:	e21b3040 	ands	r3, fp, #64	; 0x40
 c007ebc:	0a000033 	beq	c007f90 <_svfiprintf_r+0xfb4>
 c007ec0:	e59d3014 	ldr	r3, [sp, #20]
 c007ec4:	e1d320b0 	ldrh	r2, [r3]
 c007ec8:	e1a03001 	mov	r3, r1
 c007ecc:	eaffffb6 	b	c007dac <_svfiprintf_r+0xdd0>
 c007ed0:	e31b0040 	tst	fp, #64	; 0x40
 c007ed4:	159d2014 	ldrne	r2, [sp, #20]
 c007ed8:	059d3014 	ldreq	r3, [sp, #20]
 c007edc:	11d280f0 	ldrshne	r8, [r2]
 c007ee0:	05938000 	ldreq	r8, [r3]
 c007ee4:	12822004 	addne	r2, r2, #4
 c007ee8:	02833004 	addeq	r3, r3, #4
 c007eec:	158d2014 	strne	r2, [sp, #20]
 c007ef0:	058d3014 	streq	r3, [sp, #20]
 c007ef4:	e1a09fc8 	asr	r9, r8, #31
 c007ef8:	eafffdd3 	b	c00764c <_svfiprintf_r+0x670>
 c007efc:	e59d2014 	ldr	r2, [sp, #20]
 c007f00:	e59dc010 	ldr	ip, [sp, #16]
 c007f04:	e59d0014 	ldr	r0, [sp, #20]
 c007f08:	e5923000 	ldr	r3, [r2]
 c007f0c:	e2800004 	add	r0, r0, #4
 c007f10:	e1a0100c 	mov	r1, ip
 c007f14:	e1a02fc1 	asr	r2, r1, #31
 c007f18:	e8830006 	stm	r3, {r1, r2}
 c007f1c:	e58d0014 	str	r0, [sp, #20]
 c007f20:	eafffc41 	b	c00702c <_svfiprintf_r+0x50>
 c007f24:	e31b0040 	tst	fp, #64	; 0x40
 c007f28:	159d2014 	ldrne	r2, [sp, #20]
 c007f2c:	059dc014 	ldreq	ip, [sp, #20]
 c007f30:	11d280b0 	ldrhne	r8, [r2]
 c007f34:	059c8000 	ldreq	r8, [ip]
 c007f38:	12822004 	addne	r2, r2, #4
 c007f3c:	028cc004 	addeq	ip, ip, #4
 c007f40:	158d2014 	strne	r2, [sp, #20]
 c007f44:	058dc014 	streq	ip, [sp, #20]
 c007f48:	e3a09000 	mov	r9, #0
 c007f4c:	eafffe36 	b	c00782c <_svfiprintf_r+0x850>
 c007f50:	e59d0020 	ldr	r0, [sp, #32]
 c007f54:	ebfffba1 	bl	c006de0 <strlen>
 c007f58:	e3a03000 	mov	r3, #0
 c007f5c:	e58d0008 	str	r0, [sp, #8]
 c007f60:	e58d301c 	str	r3, [sp, #28]
 c007f64:	eafffced 	b	c007320 <_svfiprintf_r+0x344>
 c007f68:	e59d1014 	ldr	r1, [sp, #20]
 c007f6c:	e59d2010 	ldr	r2, [sp, #16]
 c007f70:	e5913000 	ldr	r3, [r1]
 c007f74:	e2811004 	add	r1, r1, #4
 c007f78:	e58d1014 	str	r1, [sp, #20]
 c007f7c:	e5832000 	str	r2, [r3]
 c007f80:	eafffc29 	b	c00702c <_svfiprintf_r+0x50>
 c007f84:	e59f80d8 	ldr	r8, [pc, #216]	; c008064 <_svfiprintf_r+0x1088>
 c007f88:	e1a00001 	mov	r0, r1
 c007f8c:	eafffd3a 	b	c00747c <_svfiprintf_r+0x4a0>
 c007f90:	e59d0014 	ldr	r0, [sp, #20]
 c007f94:	e5902000 	ldr	r2, [r0]
 c007f98:	e1a08002 	mov	r8, r2
 c007f9c:	e3a09000 	mov	r9, #0
 c007fa0:	e2800004 	add	r0, r0, #4
 c007fa4:	e2522000 	subs	r2, r2, #0
 c007fa8:	13a02001 	movne	r2, #1
 c007fac:	e58d0014 	str	r0, [sp, #20]
 c007fb0:	eafffcaf 	b	c007274 <_svfiprintf_r+0x298>
 c007fb4:	e59d0014 	ldr	r0, [sp, #20]
 c007fb8:	e3a03001 	mov	r3, #1
 c007fbc:	e5902000 	ldr	r2, [r0]
 c007fc0:	eafffff4 	b	c007f98 <_svfiprintf_r+0xfbc>
 c007fc4:	e3a01040 	mov	r1, #64	; 0x40
 c007fc8:	e58d2004 	str	r2, [sp, #4]
 c007fcc:	ebfff50f 	bl	c005410 <_malloc_r>
 c007fd0:	e3500000 	cmp	r0, #0
 c007fd4:	13a03040 	movne	r3, #64	; 0x40
 c007fd8:	e59d2004 	ldr	r2, [sp, #4]
 c007fdc:	e5860000 	str	r0, [r6]
 c007fe0:	e5860010 	str	r0, [r6, #16]
 c007fe4:	15863014 	strne	r3, [r6, #20]
 c007fe8:	1afffc06 	bne	c007008 <_svfiprintf_r+0x2c>
 c007fec:	e59d0018 	ldr	r0, [sp, #24]
 c007ff0:	e3a0300c 	mov	r3, #12
 c007ff4:	e3e01000 	mvn	r1, #0
 c007ff8:	e5803000 	str	r3, [r0]
 c007ffc:	e58d1010 	str	r1, [sp, #16]
 c008000:	eafffebc 	b	c007af8 <_svfiprintf_r+0xb1c>
 c008004:	e2840008 	add	r0, r4, #8
 c008008:	e59d20a0 	ldr	r2, [sp, #160]	; 0xa0
 c00800c:	e59d309c 	ldr	r3, [sp, #156]	; 0x9c
 c008010:	e59f8050 	ldr	r8, [pc, #80]	; c008068 <_svfiprintf_r+0x108c>
 c008014:	eafffe4b 	b	c007948 <_svfiprintf_r+0x96c>
 c008018:	e59d2008 	ldr	r2, [sp, #8]
 c00801c:	e59dc020 	ldr	ip, [sp, #32]
 c008020:	e2823028 	add	r3, r2, #40	; 0x28
 c008024:	e06c3003 	rsb	r3, ip, r3
 c008028:	e58d3008 	str	r3, [sp, #8]
 c00802c:	eafffcba 	b	c00731c <_svfiprintf_r+0x340>
 c008030:	e59f103c 	ldr	r1, [pc, #60]	; c008074 <_svfiprintf_r+0x1098>
 c008034:	e35a0006 	cmp	sl, #6
 c008038:	23a0a006 	movcs	sl, #6
 c00803c:	e58da008 	str	sl, [sp, #8]
 c008040:	e1ca9fca 	bic	r9, sl, sl, asr #31
 c008044:	e58d1020 	str	r1, [sp, #32]
 c008048:	eafffe0e 	b	c007888 <_svfiprintf_r+0x8ac>
 c00804c:	e59d309c 	ldr	r3, [sp, #156]	; 0x9c
 c008050:	e59f8010 	ldr	r8, [pc, #16]	; c008068 <_svfiprintf_r+0x108c>
 c008054:	eafffd4c 	b	c00758c <_svfiprintf_r+0x5b0>
 c008058:	e59f8004 	ldr	r8, [pc, #4]	; c008064 <_svfiprintf_r+0x1088>
 c00805c:	e1a00001 	mov	r0, r1
 c008060:	eafffece 	b	c007ba0 <_svfiprintf_r+0xbc4>
 c008064:	0c00af88 	.word	0x0c00af88
 c008068:	0c00af78 	.word	0x0c00af78
 c00806c:	0c00afc0 	.word	0x0c00afc0
 c008070:	0c00afac 	.word	0x0c00afac
 c008074:	0c00afd4 	.word	0x0c00afd4

0c008078 <_calloc_r>:
 c008078:	e92d4010 	push	{r4, lr}
 c00807c:	e0010192 	mul	r1, r2, r1
 c008080:	ebfff4e2 	bl	c005410 <_malloc_r>
 c008084:	e2504000 	subs	r4, r0, #0
 c008088:	0a00001b 	beq	c0080fc <_calloc_r+0x84>
 c00808c:	e5142004 	ldr	r2, [r4, #-4]
 c008090:	e3c22003 	bic	r2, r2, #3
 c008094:	e2422004 	sub	r2, r2, #4
 c008098:	e3520024 	cmp	r2, #36	; 0x24
 c00809c:	8a000019 	bhi	c008108 <_calloc_r+0x90>
 c0080a0:	e3520013 	cmp	r2, #19
 c0080a4:	e1a03004 	mov	r3, r4
 c0080a8:	9a00000e 	bls	c0080e8 <_calloc_r+0x70>
 c0080ac:	e3a01000 	mov	r1, #0
 c0080b0:	e1a00004 	mov	r0, r4
 c0080b4:	e4801004 	str	r1, [r0], #4
 c0080b8:	e352001b 	cmp	r2, #27
 c0080bc:	e5841004 	str	r1, [r4, #4]
 c0080c0:	e2803004 	add	r3, r0, #4
 c0080c4:	9a000007 	bls	c0080e8 <_calloc_r+0x70>
 c0080c8:	e3520024 	cmp	r2, #36	; 0x24
 c0080cc:	e5801004 	str	r1, [r0, #4]
 c0080d0:	e283c004 	add	ip, r3, #4
 c0080d4:	e5831004 	str	r1, [r3, #4]
 c0080d8:	e2833008 	add	r3, r3, #8
 c0080dc:	058c1004 	streq	r1, [ip, #4]
 c0080e0:	05831004 	streq	r1, [r3, #4]
 c0080e4:	02833008 	addeq	r3, r3, #8
 c0080e8:	e3a01000 	mov	r1, #0
 c0080ec:	e1a02003 	mov	r2, r3
 c0080f0:	e4821004 	str	r1, [r2], #4
 c0080f4:	e5831004 	str	r1, [r3, #4]
 c0080f8:	e5821004 	str	r1, [r2, #4]
 c0080fc:	e1a00004 	mov	r0, r4
 c008100:	e8bd4010 	pop	{r4, lr}
 c008104:	e12fff1e 	bx	lr
 c008108:	e3a01000 	mov	r1, #0
 c00810c:	eb000122 	bl	c00859c <memset>
 c008110:	eafffff9 	b	c0080fc <_calloc_r+0x84>

0c008114 <_malloc_trim_r>:
 c008114:	e92d40f8 	push	{r3, r4, r5, r6, r7, lr}
 c008118:	e59f50e4 	ldr	r5, [pc, #228]	; c008204 <_malloc_trim_r+0xf0>
 c00811c:	e1a07001 	mov	r7, r1
 c008120:	e1a04000 	mov	r4, r0
 c008124:	ebfff72d 	bl	c005de0 <__malloc_lock>
 c008128:	e5953008 	ldr	r3, [r5, #8]
 c00812c:	e5936004 	ldr	r6, [r3, #4]
 c008130:	e3c66003 	bic	r6, r6, #3
 c008134:	e2863efe 	add	r3, r6, #4064	; 0xfe0
 c008138:	e283300f 	add	r3, r3, #15
 c00813c:	e0677003 	rsb	r7, r7, r3
 c008140:	e1a07627 	lsr	r7, r7, #12
 c008144:	e2477001 	sub	r7, r7, #1
 c008148:	e1a07607 	lsl	r7, r7, #12
 c00814c:	e3570a01 	cmp	r7, #4096	; 0x1000
 c008150:	ba000006 	blt	c008170 <_malloc_trim_r+0x5c>
 c008154:	e1a00004 	mov	r0, r4
 c008158:	e3a01000 	mov	r1, #0
 c00815c:	ebfffa83 	bl	c006b70 <_sbrk_r>
 c008160:	e5953008 	ldr	r3, [r5, #8]
 c008164:	e0833006 	add	r3, r3, r6
 c008168:	e1500003 	cmp	r0, r3
 c00816c:	0a000004 	beq	c008184 <_malloc_trim_r+0x70>
 c008170:	e1a00004 	mov	r0, r4
 c008174:	ebfff71a 	bl	c005de4 <__malloc_unlock>
 c008178:	e3a00000 	mov	r0, #0
 c00817c:	e8bd40f8 	pop	{r3, r4, r5, r6, r7, lr}
 c008180:	e12fff1e 	bx	lr
 c008184:	e1a00004 	mov	r0, r4
 c008188:	e2671000 	rsb	r1, r7, #0
 c00818c:	ebfffa77 	bl	c006b70 <_sbrk_r>
 c008190:	e3700001 	cmn	r0, #1
 c008194:	0a00000b 	beq	c0081c8 <_malloc_trim_r+0xb4>
 c008198:	e59f3068 	ldr	r3, [pc, #104]	; c008208 <_malloc_trim_r+0xf4>
 c00819c:	e5931000 	ldr	r1, [r3]
 c0081a0:	e5952008 	ldr	r2, [r5, #8]
 c0081a4:	e0676006 	rsb	r6, r7, r6
 c0081a8:	e3866001 	orr	r6, r6, #1
 c0081ac:	e0677001 	rsb	r7, r7, r1
 c0081b0:	e1a00004 	mov	r0, r4
 c0081b4:	e5826004 	str	r6, [r2, #4]
 c0081b8:	e5837000 	str	r7, [r3]
 c0081bc:	ebfff708 	bl	c005de4 <__malloc_unlock>
 c0081c0:	e3a00001 	mov	r0, #1
 c0081c4:	eaffffec 	b	c00817c <_malloc_trim_r+0x68>
 c0081c8:	e1a00004 	mov	r0, r4
 c0081cc:	e3a01000 	mov	r1, #0
 c0081d0:	ebfffa66 	bl	c006b70 <_sbrk_r>
 c0081d4:	e5953008 	ldr	r3, [r5, #8]
 c0081d8:	e0632000 	rsb	r2, r3, r0
 c0081dc:	e352000f 	cmp	r2, #15
 c0081e0:	daffffe2 	ble	c008170 <_malloc_trim_r+0x5c>
 c0081e4:	e59f1020 	ldr	r1, [pc, #32]	; c00820c <_malloc_trim_r+0xf8>
 c0081e8:	e5911000 	ldr	r1, [r1]
 c0081ec:	e0610000 	rsb	r0, r1, r0
 c0081f0:	e59f1010 	ldr	r1, [pc, #16]	; c008208 <_malloc_trim_r+0xf4>
 c0081f4:	e3822001 	orr	r2, r2, #1
 c0081f8:	e5810000 	str	r0, [r1]
 c0081fc:	e5832004 	str	r2, [r3, #4]
 c008200:	eaffffda 	b	c008170 <_malloc_trim_r+0x5c>
 c008204:	0c00aa14 	.word	0x0c00aa14
 c008208:	0c00b01c 	.word	0x0c00b01c
 c00820c:	0c00ae1c 	.word	0x0c00ae1c

0c008210 <_free_r>:
 c008210:	e92d40f8 	push	{r3, r4, r5, r6, r7, lr}
 c008214:	e2515000 	subs	r5, r1, #0
 c008218:	e1a04000 	mov	r4, r0
 c00821c:	0a00005c 	beq	c008394 <_free_r+0x184>
 c008220:	ebfff6ee 	bl	c005de0 <__malloc_lock>
 c008224:	e2452008 	sub	r2, r5, #8
 c008228:	e5920004 	ldr	r0, [r2, #4]
 c00822c:	e59fc22c 	ldr	ip, [pc, #556]	; c008460 <_free_r+0x250>
 c008230:	e3c03001 	bic	r3, r0, #1
 c008234:	e0821003 	add	r1, r2, r3
 c008238:	e59c6008 	ldr	r6, [ip, #8]
 c00823c:	e591e004 	ldr	lr, [r1, #4]
 c008240:	e1560001 	cmp	r6, r1
 c008244:	e3cee003 	bic	lr, lr, #3
 c008248:	0a000060 	beq	c0083d0 <_free_r+0x1c0>
 c00824c:	e2100001 	ands	r0, r0, #1
 c008250:	e581e004 	str	lr, [r1, #4]
 c008254:	13a00000 	movne	r0, #0
 c008258:	1a000009 	bne	c008284 <_free_r+0x74>
 c00825c:	e5156008 	ldr	r6, [r5, #-8]
 c008260:	e0662002 	rsb	r2, r6, r2
 c008264:	e5925008 	ldr	r5, [r2, #8]
 c008268:	e28c7008 	add	r7, ip, #8
 c00826c:	e1550007 	cmp	r5, r7
 c008270:	e0833006 	add	r3, r3, r6
 c008274:	1592600c 	ldrne	r6, [r2, #12]
 c008278:	1585600c 	strne	r6, [r5, #12]
 c00827c:	15865008 	strne	r5, [r6, #8]
 c008280:	03a00001 	moveq	r0, #1
 c008284:	e081500e 	add	r5, r1, lr
 c008288:	e5955004 	ldr	r5, [r5, #4]
 c00828c:	e3150001 	tst	r5, #1
 c008290:	1a00000a 	bne	c0082c0 <_free_r+0xb0>
 c008294:	e3500000 	cmp	r0, #0
 c008298:	e083300e 	add	r3, r3, lr
 c00829c:	1591e008 	ldrne	lr, [r1, #8]
 c0082a0:	1a000003 	bne	c0082b4 <_free_r+0xa4>
 c0082a4:	e591e008 	ldr	lr, [r1, #8]
 c0082a8:	e59f51b4 	ldr	r5, [pc, #436]	; c008464 <_free_r+0x254>
 c0082ac:	e15e0005 	cmp	lr, r5
 c0082b0:	0a00005c 	beq	c008428 <_free_r+0x218>
 c0082b4:	e591100c 	ldr	r1, [r1, #12]
 c0082b8:	e58e100c 	str	r1, [lr, #12]
 c0082bc:	e581e008 	str	lr, [r1, #8]
 c0082c0:	e3831001 	orr	r1, r3, #1
 c0082c4:	e3500000 	cmp	r0, #0
 c0082c8:	e5821004 	str	r1, [r2, #4]
 c0082cc:	e7823003 	str	r3, [r2, r3]
 c0082d0:	1a00002d 	bne	c00838c <_free_r+0x17c>
 c0082d4:	e3530c02 	cmp	r3, #512	; 0x200
 c0082d8:	3a00002f 	bcc	c00839c <_free_r+0x18c>
 c0082dc:	e1a014a3 	lsr	r1, r3, #9
 c0082e0:	e3510004 	cmp	r1, #4
 c0082e4:	91a00323 	lsrls	r0, r3, #6
 c0082e8:	92800038 	addls	r0, r0, #56	; 0x38
 c0082ec:	91a0e180 	lslls	lr, r0, #3
 c0082f0:	9a000014 	bls	c008348 <_free_r+0x138>
 c0082f4:	e3510014 	cmp	r1, #20
 c0082f8:	9281005b 	addls	r0, r1, #91	; 0x5b
 c0082fc:	91a0e180 	lslls	lr, r0, #3
 c008300:	9a000010 	bls	c008348 <_free_r+0x138>
 c008304:	e3510054 	cmp	r1, #84	; 0x54
 c008308:	91a00623 	lsrls	r0, r3, #12
 c00830c:	9280006e 	addls	r0, r0, #110	; 0x6e
 c008310:	91a0e180 	lslls	lr, r0, #3
 c008314:	9a00000b 	bls	c008348 <_free_r+0x138>
 c008318:	e3510f55 	cmp	r1, #340	; 0x154
 c00831c:	91a007a3 	lsrls	r0, r3, #15
 c008320:	92800077 	addls	r0, r0, #119	; 0x77
 c008324:	91a0e180 	lslls	lr, r0, #3
 c008328:	9a000006 	bls	c008348 <_free_r+0x138>
 c00832c:	e59f0134 	ldr	r0, [pc, #308]	; c008468 <_free_r+0x258>
 c008330:	e1510000 	cmp	r1, r0
 c008334:	91a00923 	lsrls	r0, r3, #18
 c008338:	9280007c 	addls	r0, r0, #124	; 0x7c
 c00833c:	91a0e180 	lslls	lr, r0, #3
 c008340:	83a0ee3f 	movhi	lr, #1008	; 0x3f0
 c008344:	83a0007e 	movhi	r0, #126	; 0x7e
 c008348:	e08ce00e 	add	lr, ip, lr
 c00834c:	e59e1008 	ldr	r1, [lr, #8]
 c008350:	e151000e 	cmp	r1, lr
 c008354:	1a000003 	bne	c008368 <_free_r+0x158>
 c008358:	ea000039 	b	c008444 <_free_r+0x234>
 c00835c:	e5911008 	ldr	r1, [r1, #8]
 c008360:	e15e0001 	cmp	lr, r1
 c008364:	0a000003 	beq	c008378 <_free_r+0x168>
 c008368:	e5910004 	ldr	r0, [r1, #4]
 c00836c:	e3c00003 	bic	r0, r0, #3
 c008370:	e1530000 	cmp	r3, r0
 c008374:	3afffff8 	bcc	c00835c <_free_r+0x14c>
 c008378:	e591300c 	ldr	r3, [r1, #12]
 c00837c:	e582300c 	str	r3, [r2, #12]
 c008380:	e5821008 	str	r1, [r2, #8]
 c008384:	e581200c 	str	r2, [r1, #12]
 c008388:	e5832008 	str	r2, [r3, #8]
 c00838c:	e1a00004 	mov	r0, r4
 c008390:	ebfff693 	bl	c005de4 <__malloc_unlock>
 c008394:	e8bd40f8 	pop	{r3, r4, r5, r6, r7, lr}
 c008398:	e12fff1e 	bx	lr
 c00839c:	e59c1004 	ldr	r1, [ip, #4]
 c0083a0:	e1a031a3 	lsr	r3, r3, #3
 c0083a4:	e1a00143 	asr	r0, r3, #2
 c0083a8:	e3a0e001 	mov	lr, #1
 c0083ac:	e181001e 	orr	r0, r1, lr, lsl r0
 c0083b0:	e08c3183 	add	r3, ip, r3, lsl #3
 c0083b4:	e5931008 	ldr	r1, [r3, #8]
 c0083b8:	e582300c 	str	r3, [r2, #12]
 c0083bc:	e5821008 	str	r1, [r2, #8]
 c0083c0:	e58c0004 	str	r0, [ip, #4]
 c0083c4:	e5832008 	str	r2, [r3, #8]
 c0083c8:	e581200c 	str	r2, [r1, #12]
 c0083cc:	eaffffee 	b	c00838c <_free_r+0x17c>
 c0083d0:	e3100001 	tst	r0, #1
 c0083d4:	e08e3003 	add	r3, lr, r3
 c0083d8:	1a000006 	bne	c0083f8 <_free_r+0x1e8>
 c0083dc:	e5151008 	ldr	r1, [r5, #-8]
 c0083e0:	e0612002 	rsb	r2, r1, r2
 c0083e4:	e592000c 	ldr	r0, [r2, #12]
 c0083e8:	e592e008 	ldr	lr, [r2, #8]
 c0083ec:	e58e000c 	str	r0, [lr, #12]
 c0083f0:	e580e008 	str	lr, [r0, #8]
 c0083f4:	e0833001 	add	r3, r3, r1
 c0083f8:	e59f106c 	ldr	r1, [pc, #108]	; c00846c <_free_r+0x25c>
 c0083fc:	e5910000 	ldr	r0, [r1]
 c008400:	e3831001 	orr	r1, r3, #1
 c008404:	e1530000 	cmp	r3, r0
 c008408:	e5821004 	str	r1, [r2, #4]
 c00840c:	e58c2008 	str	r2, [ip, #8]
 c008410:	3affffdd 	bcc	c00838c <_free_r+0x17c>
 c008414:	e59f3054 	ldr	r3, [pc, #84]	; c008470 <_free_r+0x260>
 c008418:	e1a00004 	mov	r0, r4
 c00841c:	e5931000 	ldr	r1, [r3]
 c008420:	ebffff3b 	bl	c008114 <_malloc_trim_r>
 c008424:	eaffffd8 	b	c00838c <_free_r+0x17c>
 c008428:	e3831001 	orr	r1, r3, #1
 c00842c:	e58e200c 	str	r2, [lr, #12]
 c008430:	e58e2008 	str	r2, [lr, #8]
 c008434:	e582e00c 	str	lr, [r2, #12]
 c008438:	e9824002 	stmib	r2, {r1, lr}
 c00843c:	e7823003 	str	r3, [r2, r3]
 c008440:	eaffffd1 	b	c00838c <_free_r+0x17c>
 c008444:	e59c3004 	ldr	r3, [ip, #4]
 c008448:	e1a00140 	asr	r0, r0, #2
 c00844c:	e3a0e001 	mov	lr, #1
 c008450:	e183001e 	orr	r0, r3, lr, lsl r0
 c008454:	e1a03001 	mov	r3, r1
 c008458:	e58c0004 	str	r0, [ip, #4]
 c00845c:	eaffffc6 	b	c00837c <_free_r+0x16c>
 c008460:	0c00aa14 	.word	0x0c00aa14
 c008464:	0c00aa1c 	.word	0x0c00aa1c
 c008468:	00000554 	.word	0x00000554
 c00846c:	0c00ae20 	.word	0x0c00ae20
 c008470:	0c00b018 	.word	0x0c00b018

0c008474 <memmove>:
 c008474:	e1500001 	cmp	r0, r1
 c008478:	e92d00f0 	push	{r4, r5, r6, r7}
 c00847c:	e1a03000 	mov	r3, r0
 c008480:	e1a0c001 	mov	ip, r1
 c008484:	9a00000d 	bls	c0084c0 <memmove+0x4c>
 c008488:	e0814002 	add	r4, r1, r2
 c00848c:	e1500004 	cmp	r0, r4
 c008490:	2a00000a 	bcs	c0084c0 <memmove+0x4c>
 c008494:	e3520000 	cmp	r2, #0
 c008498:	0a000006 	beq	c0084b8 <memmove+0x44>
 c00849c:	e0803002 	add	r3, r0, r2
 c0084a0:	e1a01004 	mov	r1, r4
 c0084a4:	e0622003 	rsb	r2, r2, r3
 c0084a8:	e571c001 	ldrb	ip, [r1, #-1]!
 c0084ac:	e563c001 	strb	ip, [r3, #-1]!
 c0084b0:	e1530002 	cmp	r3, r2
 c0084b4:	1afffffb 	bne	c0084a8 <memmove+0x34>
 c0084b8:	e8bd00f0 	pop	{r4, r5, r6, r7}
 c0084bc:	e12fff1e 	bx	lr
 c0084c0:	e352000f 	cmp	r2, #15
 c0084c4:	9a00002b 	bls	c008578 <memmove+0x104>
 c0084c8:	e1814000 	orr	r4, r1, r0
 c0084cc:	e3140003 	tst	r4, #3
 c0084d0:	1a00002a 	bne	c008580 <memmove+0x10c>
 c0084d4:	e2425010 	sub	r5, r2, #16
 c0084d8:	e1a06225 	lsr	r6, r5, #4
 c0084dc:	e2814010 	add	r4, r1, #16
 c0084e0:	e0844206 	add	r4, r4, r6, lsl #4
 c0084e4:	e1a03001 	mov	r3, r1
 c0084e8:	e1a02000 	mov	r2, r0
 c0084ec:	e593c000 	ldr	ip, [r3]
 c0084f0:	e582c000 	str	ip, [r2]
 c0084f4:	e593c004 	ldr	ip, [r3, #4]
 c0084f8:	e582c004 	str	ip, [r2, #4]
 c0084fc:	e593c008 	ldr	ip, [r3, #8]
 c008500:	e582c008 	str	ip, [r2, #8]
 c008504:	e593c00c 	ldr	ip, [r3, #12]
 c008508:	e2833010 	add	r3, r3, #16
 c00850c:	e1540003 	cmp	r4, r3
 c008510:	e582c00c 	str	ip, [r2, #12]
 c008514:	e2822010 	add	r2, r2, #16
 c008518:	1afffff3 	bne	c0084ec <memmove+0x78>
 c00851c:	e286c001 	add	ip, r6, #1
 c008520:	e205200f 	and	r2, r5, #15
 c008524:	e1a0c20c 	lsl	ip, ip, #4
 c008528:	e3520003 	cmp	r2, #3
 c00852c:	e080300c 	add	r3, r0, ip
 c008530:	e081100c 	add	r1, r1, ip
 c008534:	9a00000e 	bls	c008574 <memmove+0x100>
 c008538:	e2422004 	sub	r2, r2, #4
 c00853c:	e1a07122 	lsr	r7, r2, #2
 c008540:	e0816107 	add	r6, r1, r7, lsl #2
 c008544:	e1a0c001 	mov	ip, r1
 c008548:	e2866004 	add	r6, r6, #4
 c00854c:	e1a04003 	mov	r4, r3
 c008550:	e49c5004 	ldr	r5, [ip], #4
 c008554:	e15c0006 	cmp	ip, r6
 c008558:	e4845004 	str	r5, [r4], #4
 c00855c:	1afffffb 	bne	c008550 <memmove+0xdc>
 c008560:	e287c001 	add	ip, r7, #1
 c008564:	e1a0c10c 	lsl	ip, ip, #2
 c008568:	e083300c 	add	r3, r3, ip
 c00856c:	e081100c 	add	r1, r1, ip
 c008570:	e2022003 	and	r2, r2, #3
 c008574:	e1a0c001 	mov	ip, r1
 c008578:	e3520000 	cmp	r2, #0
 c00857c:	0affffcd 	beq	c0084b8 <memmove+0x44>
 c008580:	e1a0100c 	mov	r1, ip
 c008584:	e08c2002 	add	r2, ip, r2
 c008588:	e4d1c001 	ldrb	ip, [r1], #1
 c00858c:	e1510002 	cmp	r1, r2
 c008590:	e4c3c001 	strb	ip, [r3], #1
 c008594:	1afffffb 	bne	c008588 <memmove+0x114>
 c008598:	eaffffc6 	b	c0084b8 <memmove+0x44>

0c00859c <memset>:
 c00859c:	e3520003 	cmp	r2, #3
 c0085a0:	e52d4004 	push	{r4}		; (str r4, [sp, #-4]!)
 c0085a4:	e20110ff 	and	r1, r1, #255	; 0xff
 c0085a8:	8a000008 	bhi	c0085d0 <memset+0x34>
 c0085ac:	e3520000 	cmp	r2, #0
 c0085b0:	0a000004 	beq	c0085c8 <memset+0x2c>
 c0085b4:	e1a03000 	mov	r3, r0
 c0085b8:	e0822000 	add	r2, r2, r0
 c0085bc:	e4c31001 	strb	r1, [r3], #1
 c0085c0:	e1530002 	cmp	r3, r2
 c0085c4:	1afffffc 	bne	c0085bc <memset+0x20>
 c0085c8:	e49d4004 	pop	{r4}		; (ldr r4, [sp], #4)
 c0085cc:	e12fff1e 	bx	lr
 c0085d0:	e0802002 	add	r2, r0, r2
 c0085d4:	e1a0c000 	mov	ip, r0
 c0085d8:	ea000000 	b	c0085e0 <memset+0x44>
 c0085dc:	e4cc1001 	strb	r1, [ip], #1
 c0085e0:	e31c0003 	tst	ip, #3
 c0085e4:	1afffffc 	bne	c0085dc <memset+0x40>
 c0085e8:	e0813401 	add	r3, r1, r1, lsl #8
 c0085ec:	e0833803 	add	r3, r3, r3, lsl #16
 c0085f0:	ea00000f 	b	c008634 <memset+0x98>
 c0085f4:	e50c3040 	str	r3, [ip, #-64]	; 0xffffffc0
 c0085f8:	e50c303c 	str	r3, [ip, #-60]	; 0xffffffc4
 c0085fc:	e50c3038 	str	r3, [ip, #-56]	; 0xffffffc8
 c008600:	e50c3034 	str	r3, [ip, #-52]	; 0xffffffcc
 c008604:	e50c3030 	str	r3, [ip, #-48]	; 0xffffffd0
 c008608:	e50c302c 	str	r3, [ip, #-44]	; 0xffffffd4
 c00860c:	e50c3028 	str	r3, [ip, #-40]	; 0xffffffd8
 c008610:	e50c3024 	str	r3, [ip, #-36]	; 0xffffffdc
 c008614:	e50c3020 	str	r3, [ip, #-32]	; 0xffffffe0
 c008618:	e50c301c 	str	r3, [ip, #-28]	; 0xffffffe4
 c00861c:	e50c3018 	str	r3, [ip, #-24]	; 0xffffffe8
 c008620:	e50c3014 	str	r3, [ip, #-20]	; 0xffffffec
 c008624:	e50c3010 	str	r3, [ip, #-16]
 c008628:	e50c300c 	str	r3, [ip, #-12]
 c00862c:	e50c3008 	str	r3, [ip, #-8]
 c008630:	e50c3004 	str	r3, [ip, #-4]
 c008634:	e06c4002 	rsb	r4, ip, r2
 c008638:	e354003f 	cmp	r4, #63	; 0x3f
 c00863c:	e1a0400c 	mov	r4, ip
 c008640:	e28cc040 	add	ip, ip, #64	; 0x40
 c008644:	caffffea 	bgt	c0085f4 <memset+0x58>
 c008648:	e1a0c004 	mov	ip, r4
 c00864c:	ea000003 	b	c008660 <memset+0xc4>
 c008650:	e50c3010 	str	r3, [ip, #-16]
 c008654:	e50c300c 	str	r3, [ip, #-12]
 c008658:	e50c3008 	str	r3, [ip, #-8]
 c00865c:	e50c3004 	str	r3, [ip, #-4]
 c008660:	e06c4002 	rsb	r4, ip, r2
 c008664:	e354000f 	cmp	r4, #15
 c008668:	e1a0400c 	mov	r4, ip
 c00866c:	e28cc010 	add	ip, ip, #16
 c008670:	cafffff6 	bgt	c008650 <memset+0xb4>
 c008674:	ea000000 	b	c00867c <memset+0xe0>
 c008678:	e4843004 	str	r3, [r4], #4
 c00867c:	e064c002 	rsb	ip, r4, r2
 c008680:	e35c0003 	cmp	ip, #3
 c008684:	cafffffb 	bgt	c008678 <memset+0xdc>
 c008688:	ea000000 	b	c008690 <memset+0xf4>
 c00868c:	e4c41001 	strb	r1, [r4], #1
 c008690:	e1540002 	cmp	r4, r2
 c008694:	3afffffc 	bcc	c00868c <memset+0xf0>
 c008698:	eaffffca 	b	c0085c8 <memset+0x2c>

0c00869c <_realloc_r>:
 c00869c:	e92d4ff0 	push	{r4, r5, r6, r7, r8, r9, sl, fp, lr}
 c0086a0:	e2516000 	subs	r6, r1, #0
 c0086a4:	e24dd00c 	sub	sp, sp, #12
 c0086a8:	e1a08000 	mov	r8, r0
 c0086ac:	e1a07002 	mov	r7, r2
 c0086b0:	0a0000f8 	beq	c008a98 <_realloc_r+0x3fc>
 c0086b4:	ebfff5c9 	bl	c005de0 <__malloc_lock>
 c0086b8:	e287400b 	add	r4, r7, #11
 c0086bc:	e3540016 	cmp	r4, #22
 c0086c0:	83c44007 	bichi	r4, r4, #7
 c0086c4:	93a02010 	movls	r2, #16
 c0086c8:	81a00fa4 	lsrhi	r0, r4, #31
 c0086cc:	93a00000 	movls	r0, #0
 c0086d0:	91a04002 	movls	r4, r2
 c0086d4:	81a02004 	movhi	r2, r4
 c0086d8:	e1540007 	cmp	r4, r7
 c0086dc:	33800001 	orrcc	r0, r0, #1
 c0086e0:	e3500000 	cmp	r0, #0
 c0086e4:	e2469008 	sub	r9, r6, #8
 c0086e8:	13a0300c 	movne	r3, #12
 c0086ec:	e599c004 	ldr	ip, [r9, #4]
 c0086f0:	13a07000 	movne	r7, #0
 c0086f4:	15883000 	strne	r3, [r8]
 c0086f8:	1a00005c 	bne	c008870 <_realloc_r+0x1d4>
 c0086fc:	e3ccb003 	bic	fp, ip, #3
 c008700:	e15b0002 	cmp	fp, r2
 c008704:	a2897008 	addge	r7, r9, #8
 c008708:	a1a0500b 	movge	r5, fp
 c00870c:	aa00004b 	bge	c008840 <_realloc_r+0x1a4>
 c008710:	e59f3540 	ldr	r3, [pc, #1344]	; c008c58 <_realloc_r+0x5bc>
 c008714:	e593e008 	ldr	lr, [r3, #8]
 c008718:	e089100b 	add	r1, r9, fp
 c00871c:	e15e0001 	cmp	lr, r1
 c008720:	0a0000e0 	beq	c008aa8 <_realloc_r+0x40c>
 c008724:	e5915004 	ldr	r5, [r1, #4]
 c008728:	e3c5a001 	bic	sl, r5, #1
 c00872c:	e081a00a 	add	sl, r1, sl
 c008730:	e59aa004 	ldr	sl, [sl, #4]
 c008734:	e31a0001 	tst	sl, #1
 c008738:	11a01000 	movne	r1, r0
 c00873c:	0a00005d 	beq	c0088b8 <_realloc_r+0x21c>
 c008740:	e31c0001 	tst	ip, #1
 c008744:	1a000065 	bne	c0088e0 <_realloc_r+0x244>
 c008748:	e516a008 	ldr	sl, [r6, #-8]
 c00874c:	e06aa009 	rsb	sl, sl, r9
 c008750:	e59ac004 	ldr	ip, [sl, #4]
 c008754:	e3510000 	cmp	r1, #0
 c008758:	e3ccc003 	bic	ip, ip, #3
 c00875c:	0a000099 	beq	c0089c8 <_realloc_r+0x32c>
 c008760:	e151000e 	cmp	r1, lr
 c008764:	0a0000ed 	beq	c008b20 <_realloc_r+0x484>
 c008768:	e08cc00b 	add	ip, ip, fp
 c00876c:	e080500c 	add	r5, r0, ip
 c008770:	e1520005 	cmp	r2, r5
 c008774:	e58dc004 	str	ip, [sp, #4]
 c008778:	ca000094 	bgt	c0089d0 <_realloc_r+0x334>
 c00877c:	e2812008 	add	r2, r1, #8
 c008780:	e892000c 	ldm	r2, {r2, r3}
 c008784:	e5832008 	str	r2, [r3, #8]
 c008788:	e582300c 	str	r3, [r2, #12]
 c00878c:	e1a0700a 	mov	r7, sl
 c008790:	e59a300c 	ldr	r3, [sl, #12]
 c008794:	e5b71008 	ldr	r1, [r7, #8]!
 c008798:	e24b2004 	sub	r2, fp, #4
 c00879c:	e3520024 	cmp	r2, #36	; 0x24
 c0087a0:	e581300c 	str	r3, [r1, #12]
 c0087a4:	e5831008 	str	r1, [r3, #8]
 c0087a8:	8a00011e 	bhi	c008c28 <_realloc_r+0x58c>
 c0087ac:	e3520013 	cmp	r2, #19
 c0087b0:	e1a01007 	mov	r1, r7
 c0087b4:	9a000017 	bls	c008818 <_realloc_r+0x17c>
 c0087b8:	e1a03006 	mov	r3, r6
 c0087bc:	e4931004 	ldr	r1, [r3], #4
 c0087c0:	e58a1008 	str	r1, [sl, #8]
 c0087c4:	e5961004 	ldr	r1, [r6, #4]
 c0087c8:	e352001b 	cmp	r2, #27
 c0087cc:	e58a100c 	str	r1, [sl, #12]
 c0087d0:	e2836004 	add	r6, r3, #4
 c0087d4:	e28a1010 	add	r1, sl, #16
 c0087d8:	9a00000e 	bls	c008818 <_realloc_r+0x17c>
 c0087dc:	e5933004 	ldr	r3, [r3, #4]
 c0087e0:	e58a3010 	str	r3, [sl, #16]
 c0087e4:	e5961004 	ldr	r1, [r6, #4]
 c0087e8:	e3520024 	cmp	r2, #36	; 0x24
 c0087ec:	e2863004 	add	r3, r6, #4
 c0087f0:	e58a1014 	str	r1, [sl, #20]
 c0087f4:	e2866008 	add	r6, r6, #8
 c0087f8:	e28a1018 	add	r1, sl, #24
 c0087fc:	1a000005 	bne	c008818 <_realloc_r+0x17c>
 c008800:	e5933004 	ldr	r3, [r3, #4]
 c008804:	e58a3018 	str	r3, [sl, #24]
 c008808:	e5963004 	ldr	r3, [r6, #4]
 c00880c:	e58a301c 	str	r3, [sl, #28]
 c008810:	e28a1020 	add	r1, sl, #32
 c008814:	e2866008 	add	r6, r6, #8
 c008818:	e1a02006 	mov	r2, r6
 c00881c:	e4920004 	ldr	r0, [r2], #4
 c008820:	e1a03001 	mov	r3, r1
 c008824:	e4830004 	str	r0, [r3], #4
 c008828:	e5960004 	ldr	r0, [r6, #4]
 c00882c:	e5810004 	str	r0, [r1, #4]
 c008830:	e5922004 	ldr	r2, [r2, #4]
 c008834:	e5832004 	str	r2, [r3, #4]
 c008838:	e59ac004 	ldr	ip, [sl, #4]
 c00883c:	e1a0900a 	mov	r9, sl
 c008840:	e0643005 	rsb	r3, r4, r5
 c008844:	e353000f 	cmp	r3, #15
 c008848:	8a00000c 	bhi	c008880 <_realloc_r+0x1e4>
 c00884c:	e20cc001 	and	ip, ip, #1
 c008850:	e18cc005 	orr	ip, ip, r5
 c008854:	e589c004 	str	ip, [r9, #4]
 c008858:	e0899005 	add	r9, r9, r5
 c00885c:	e5993004 	ldr	r3, [r9, #4]
 c008860:	e3833001 	orr	r3, r3, #1
 c008864:	e5893004 	str	r3, [r9, #4]
 c008868:	e1a00008 	mov	r0, r8
 c00886c:	ebfff55c 	bl	c005de4 <__malloc_unlock>
 c008870:	e1a00007 	mov	r0, r7
 c008874:	e28dd00c 	add	sp, sp, #12
 c008878:	e8bd4ff0 	pop	{r4, r5, r6, r7, r8, r9, sl, fp, lr}
 c00887c:	e12fff1e 	bx	lr
 c008880:	e20cc001 	and	ip, ip, #1
 c008884:	e0891004 	add	r1, r9, r4
 c008888:	e3832001 	orr	r2, r3, #1
 c00888c:	e18c4004 	orr	r4, ip, r4
 c008890:	e5894004 	str	r4, [r9, #4]
 c008894:	e5812004 	str	r2, [r1, #4]
 c008898:	e0813003 	add	r3, r1, r3
 c00889c:	e5932004 	ldr	r2, [r3, #4]
 c0088a0:	e3822001 	orr	r2, r2, #1
 c0088a4:	e5832004 	str	r2, [r3, #4]
 c0088a8:	e1a00008 	mov	r0, r8
 c0088ac:	e2811008 	add	r1, r1, #8
 c0088b0:	ebfffe56 	bl	c008210 <_free_r>
 c0088b4:	eaffffeb 	b	c008868 <_realloc_r+0x1cc>
 c0088b8:	e3c50003 	bic	r0, r5, #3
 c0088bc:	e080500b 	add	r5, r0, fp
 c0088c0:	e1520005 	cmp	r2, r5
 c0088c4:	caffff9d 	bgt	c008740 <_realloc_r+0xa4>
 c0088c8:	e2812008 	add	r2, r1, #8
 c0088cc:	e892000c 	ldm	r2, {r2, r3}
 c0088d0:	e2897008 	add	r7, r9, #8
 c0088d4:	e582300c 	str	r3, [r2, #12]
 c0088d8:	e5832008 	str	r2, [r3, #8]
 c0088dc:	eaffffd7 	b	c008840 <_realloc_r+0x1a4>
 c0088e0:	e1a01007 	mov	r1, r7
 c0088e4:	e1a00008 	mov	r0, r8
 c0088e8:	ebfff2c8 	bl	c005410 <_malloc_r>
 c0088ec:	e2507000 	subs	r7, r0, #0
 c0088f0:	0affffdc 	beq	c008868 <_realloc_r+0x1cc>
 c0088f4:	e599c004 	ldr	ip, [r9, #4]
 c0088f8:	e3cc2001 	bic	r2, ip, #1
 c0088fc:	e2473008 	sub	r3, r7, #8
 c008900:	e0892002 	add	r2, r9, r2
 c008904:	e1530002 	cmp	r3, r2
 c008908:	0a0000c1 	beq	c008c14 <_realloc_r+0x578>
 c00890c:	e24b2004 	sub	r2, fp, #4
 c008910:	e3520024 	cmp	r2, #36	; 0x24
 c008914:	8a00007e 	bhi	c008b14 <_realloc_r+0x478>
 c008918:	e3520013 	cmp	r2, #19
 c00891c:	e1a01006 	mov	r1, r6
 c008920:	e1a03007 	mov	r3, r7
 c008924:	9a000019 	bls	c008990 <_realloc_r+0x2f4>
 c008928:	e1a0c006 	mov	ip, r6
 c00892c:	e49c3004 	ldr	r3, [ip], #4
 c008930:	e1a00007 	mov	r0, r7
 c008934:	e4803004 	str	r3, [r0], #4
 c008938:	e5963004 	ldr	r3, [r6, #4]
 c00893c:	e352001b 	cmp	r2, #27
 c008940:	e5873004 	str	r3, [r7, #4]
 c008944:	e28c1004 	add	r1, ip, #4
 c008948:	e2803004 	add	r3, r0, #4
 c00894c:	9a00000f 	bls	c008990 <_realloc_r+0x2f4>
 c008950:	e59cc004 	ldr	ip, [ip, #4]
 c008954:	e580c004 	str	ip, [r0, #4]
 c008958:	e591e004 	ldr	lr, [r1, #4]
 c00895c:	e3520024 	cmp	r2, #36	; 0x24
 c008960:	e2830004 	add	r0, r3, #4
 c008964:	e281c004 	add	ip, r1, #4
 c008968:	e583e004 	str	lr, [r3, #4]
 c00896c:	e2811008 	add	r1, r1, #8
 c008970:	e2833008 	add	r3, r3, #8
 c008974:	1a000005 	bne	c008990 <_realloc_r+0x2f4>
 c008978:	e59c2004 	ldr	r2, [ip, #4]
 c00897c:	e5802004 	str	r2, [r0, #4]
 c008980:	e5912004 	ldr	r2, [r1, #4]
 c008984:	e2811008 	add	r1, r1, #8
 c008988:	e5832004 	str	r2, [r3, #4]
 c00898c:	e2833008 	add	r3, r3, #8
 c008990:	e1a00001 	mov	r0, r1
 c008994:	e490c004 	ldr	ip, [r0], #4
 c008998:	e1a02003 	mov	r2, r3
 c00899c:	e482c004 	str	ip, [r2], #4
 c0089a0:	e5911004 	ldr	r1, [r1, #4]
 c0089a4:	e5831004 	str	r1, [r3, #4]
 c0089a8:	e5903004 	ldr	r3, [r0, #4]
 c0089ac:	e5823004 	str	r3, [r2, #4]
 c0089b0:	e1a00008 	mov	r0, r8
 c0089b4:	e1a01006 	mov	r1, r6
 c0089b8:	ebfffe14 	bl	c008210 <_free_r>
 c0089bc:	e1a00008 	mov	r0, r8
 c0089c0:	ebfff507 	bl	c005de4 <__malloc_unlock>
 c0089c4:	eaffffa9 	b	c008870 <_realloc_r+0x1d4>
 c0089c8:	e08cc00b 	add	ip, ip, fp
 c0089cc:	e58dc004 	str	ip, [sp, #4]
 c0089d0:	e59d1004 	ldr	r1, [sp, #4]
 c0089d4:	e1520001 	cmp	r2, r1
 c0089d8:	caffffc0 	bgt	c0088e0 <_realloc_r+0x244>
 c0089dc:	e1a0700a 	mov	r7, sl
 c0089e0:	e59a300c 	ldr	r3, [sl, #12]
 c0089e4:	e5b71008 	ldr	r1, [r7, #8]!
 c0089e8:	e24b2004 	sub	r2, fp, #4
 c0089ec:	e3520024 	cmp	r2, #36	; 0x24
 c0089f0:	e581300c 	str	r3, [r1, #12]
 c0089f4:	e5831008 	str	r1, [r3, #8]
 c0089f8:	8a00003e 	bhi	c008af8 <_realloc_r+0x45c>
 c0089fc:	e3520013 	cmp	r2, #19
 c008a00:	e1a01007 	mov	r1, r7
 c008a04:	9a000017 	bls	c008a68 <_realloc_r+0x3cc>
 c008a08:	e1a03006 	mov	r3, r6
 c008a0c:	e4931004 	ldr	r1, [r3], #4
 c008a10:	e58a1008 	str	r1, [sl, #8]
 c008a14:	e5961004 	ldr	r1, [r6, #4]
 c008a18:	e352001b 	cmp	r2, #27
 c008a1c:	e58a100c 	str	r1, [sl, #12]
 c008a20:	e2836004 	add	r6, r3, #4
 c008a24:	e28a1010 	add	r1, sl, #16
 c008a28:	9a00000e 	bls	c008a68 <_realloc_r+0x3cc>
 c008a2c:	e5933004 	ldr	r3, [r3, #4]
 c008a30:	e58a3010 	str	r3, [sl, #16]
 c008a34:	e5961004 	ldr	r1, [r6, #4]
 c008a38:	e3520024 	cmp	r2, #36	; 0x24
 c008a3c:	e2863004 	add	r3, r6, #4
 c008a40:	e58a1014 	str	r1, [sl, #20]
 c008a44:	e2866008 	add	r6, r6, #8
 c008a48:	e28a1018 	add	r1, sl, #24
 c008a4c:	1a000005 	bne	c008a68 <_realloc_r+0x3cc>
 c008a50:	e5933004 	ldr	r3, [r3, #4]
 c008a54:	e58a3018 	str	r3, [sl, #24]
 c008a58:	e5963004 	ldr	r3, [r6, #4]
 c008a5c:	e58a301c 	str	r3, [sl, #28]
 c008a60:	e28a1020 	add	r1, sl, #32
 c008a64:	e2866008 	add	r6, r6, #8
 c008a68:	e1a02006 	mov	r2, r6
 c008a6c:	e4920004 	ldr	r0, [r2], #4
 c008a70:	e1a03001 	mov	r3, r1
 c008a74:	e4830004 	str	r0, [r3], #4
 c008a78:	e5960004 	ldr	r0, [r6, #4]
 c008a7c:	e5810004 	str	r0, [r1, #4]
 c008a80:	e5922004 	ldr	r2, [r2, #4]
 c008a84:	e5832004 	str	r2, [r3, #4]
 c008a88:	e59d5004 	ldr	r5, [sp, #4]
 c008a8c:	e59ac004 	ldr	ip, [sl, #4]
 c008a90:	e1a0900a 	mov	r9, sl
 c008a94:	eaffff69 	b	c008840 <_realloc_r+0x1a4>
 c008a98:	e1a01002 	mov	r1, r2
 c008a9c:	ebfff25b 	bl	c005410 <_malloc_r>
 c008aa0:	e1a07000 	mov	r7, r0
 c008aa4:	eaffff71 	b	c008870 <_realloc_r+0x1d4>
 c008aa8:	e59e0004 	ldr	r0, [lr, #4]
 c008aac:	e3c00003 	bic	r0, r0, #3
 c008ab0:	e080100b 	add	r1, r0, fp
 c008ab4:	e2845010 	add	r5, r4, #16
 c008ab8:	e1510005 	cmp	r1, r5
 c008abc:	b1a0100e 	movlt	r1, lr
 c008ac0:	baffff1e 	blt	c008740 <_realloc_r+0xa4>
 c008ac4:	e0641001 	rsb	r1, r4, r1
 c008ac8:	e0892004 	add	r2, r9, r4
 c008acc:	e3811001 	orr	r1, r1, #1
 c008ad0:	e5821004 	str	r1, [r2, #4]
 c008ad4:	e5991004 	ldr	r1, [r9, #4]
 c008ad8:	e2011001 	and	r1, r1, #1
 c008adc:	e1844001 	orr	r4, r4, r1
 c008ae0:	e5894004 	str	r4, [r9, #4]
 c008ae4:	e1a00008 	mov	r0, r8
 c008ae8:	e5832008 	str	r2, [r3, #8]
 c008aec:	e1a07006 	mov	r7, r6
 c008af0:	ebfff4bb 	bl	c005de4 <__malloc_unlock>
 c008af4:	eaffff5d 	b	c008870 <_realloc_r+0x1d4>
 c008af8:	e1a00007 	mov	r0, r7
 c008afc:	e1a01006 	mov	r1, r6
 c008b00:	ebfffe5b 	bl	c008474 <memmove>
 c008b04:	e1a0900a 	mov	r9, sl
 c008b08:	e59ac004 	ldr	ip, [sl, #4]
 c008b0c:	e59d5004 	ldr	r5, [sp, #4]
 c008b10:	eaffff4a 	b	c008840 <_realloc_r+0x1a4>
 c008b14:	e1a01006 	mov	r1, r6
 c008b18:	ebfffe55 	bl	c008474 <memmove>
 c008b1c:	eaffffa3 	b	c0089b0 <_realloc_r+0x314>
 c008b20:	e08cc00b 	add	ip, ip, fp
 c008b24:	e080500c 	add	r5, r0, ip
 c008b28:	e2841010 	add	r1, r4, #16
 c008b2c:	e1550001 	cmp	r5, r1
 c008b30:	e58dc004 	str	ip, [sp, #4]
 c008b34:	baffffa5 	blt	c0089d0 <_realloc_r+0x334>
 c008b38:	e1a0700a 	mov	r7, sl
 c008b3c:	e59a100c 	ldr	r1, [sl, #12]
 c008b40:	e5b70008 	ldr	r0, [r7, #8]!
 c008b44:	e24b2004 	sub	r2, fp, #4
 c008b48:	e3520024 	cmp	r2, #36	; 0x24
 c008b4c:	e580100c 	str	r1, [r0, #12]
 c008b50:	e5810008 	str	r0, [r1, #8]
 c008b54:	8a000039 	bhi	c008c40 <_realloc_r+0x5a4>
 c008b58:	e3520013 	cmp	r2, #19
 c008b5c:	e1a00007 	mov	r0, r7
 c008b60:	9a000017 	bls	c008bc4 <_realloc_r+0x528>
 c008b64:	e1a01006 	mov	r1, r6
 c008b68:	e4910004 	ldr	r0, [r1], #4
 c008b6c:	e58a0008 	str	r0, [sl, #8]
 c008b70:	e5960004 	ldr	r0, [r6, #4]
 c008b74:	e352001b 	cmp	r2, #27
 c008b78:	e58a000c 	str	r0, [sl, #12]
 c008b7c:	e2816004 	add	r6, r1, #4
 c008b80:	e28a0010 	add	r0, sl, #16
 c008b84:	9a00000e 	bls	c008bc4 <_realloc_r+0x528>
 c008b88:	e5911004 	ldr	r1, [r1, #4]
 c008b8c:	e58a1010 	str	r1, [sl, #16]
 c008b90:	e5960004 	ldr	r0, [r6, #4]
 c008b94:	e3520024 	cmp	r2, #36	; 0x24
 c008b98:	e2861004 	add	r1, r6, #4
 c008b9c:	e58a0014 	str	r0, [sl, #20]
 c008ba0:	e2866008 	add	r6, r6, #8
 c008ba4:	e28a0018 	add	r0, sl, #24
 c008ba8:	1a000005 	bne	c008bc4 <_realloc_r+0x528>
 c008bac:	e5912004 	ldr	r2, [r1, #4]
 c008bb0:	e58a2018 	str	r2, [sl, #24]
 c008bb4:	e5962004 	ldr	r2, [r6, #4]
 c008bb8:	e58a201c 	str	r2, [sl, #28]
 c008bbc:	e28a0020 	add	r0, sl, #32
 c008bc0:	e2866008 	add	r6, r6, #8
 c008bc4:	e1a01006 	mov	r1, r6
 c008bc8:	e491c004 	ldr	ip, [r1], #4
 c008bcc:	e1a02000 	mov	r2, r0
 c008bd0:	e482c004 	str	ip, [r2], #4
 c008bd4:	e596c004 	ldr	ip, [r6, #4]
 c008bd8:	e580c004 	str	ip, [r0, #4]
 c008bdc:	e5911004 	ldr	r1, [r1, #4]
 c008be0:	e5821004 	str	r1, [r2, #4]
 c008be4:	e0641005 	rsb	r1, r4, r5
 c008be8:	e08a2004 	add	r2, sl, r4
 c008bec:	e3811001 	orr	r1, r1, #1
 c008bf0:	e5821004 	str	r1, [r2, #4]
 c008bf4:	e59a1004 	ldr	r1, [sl, #4]
 c008bf8:	e2011001 	and	r1, r1, #1
 c008bfc:	e1844001 	orr	r4, r4, r1
 c008c00:	e58a4004 	str	r4, [sl, #4]
 c008c04:	e1a00008 	mov	r0, r8
 c008c08:	e5832008 	str	r2, [r3, #8]
 c008c0c:	ebfff474 	bl	c005de4 <__malloc_unlock>
 c008c10:	eaffff16 	b	c008870 <_realloc_r+0x1d4>
 c008c14:	e5175004 	ldr	r5, [r7, #-4]
 c008c18:	e3c55003 	bic	r5, r5, #3
 c008c1c:	e085500b 	add	r5, r5, fp
 c008c20:	e2897008 	add	r7, r9, #8
 c008c24:	eaffff05 	b	c008840 <_realloc_r+0x1a4>
 c008c28:	e1a00007 	mov	r0, r7
 c008c2c:	e1a01006 	mov	r1, r6
 c008c30:	ebfffe0f 	bl	c008474 <memmove>
 c008c34:	e1a0900a 	mov	r9, sl
 c008c38:	e59ac004 	ldr	ip, [sl, #4]
 c008c3c:	eafffeff 	b	c008840 <_realloc_r+0x1a4>
 c008c40:	e1a00007 	mov	r0, r7
 c008c44:	e1a01006 	mov	r1, r6
 c008c48:	e58d3000 	str	r3, [sp]
 c008c4c:	ebfffe08 	bl	c008474 <memmove>
 c008c50:	e59d3000 	ldr	r3, [sp]
 c008c54:	eaffffe2 	b	c008be4 <_realloc_r+0x548>
 c008c58:	0c00aa14 	.word	0x0c00aa14

0c008c5c <cleanup_glue>:
 c008c5c:	e92d4038 	push	{r3, r4, r5, lr}
 c008c60:	e1a04001 	mov	r4, r1
 c008c64:	e5911000 	ldr	r1, [r1]
 c008c68:	e3510000 	cmp	r1, #0
 c008c6c:	e1a05000 	mov	r5, r0
 c008c70:	1bfffff9 	blne	c008c5c <cleanup_glue>
 c008c74:	e1a00005 	mov	r0, r5
 c008c78:	e1a01004 	mov	r1, r4
 c008c7c:	ebfffd63 	bl	c008210 <_free_r>
 c008c80:	e8bd4038 	pop	{r3, r4, r5, lr}
 c008c84:	e12fff1e 	bx	lr

0c008c88 <_reclaim_reent>:
 c008c88:	e59f30fc 	ldr	r3, [pc, #252]	; c008d8c <_reclaim_reent+0x104>
 c008c8c:	e5933000 	ldr	r3, [r3]
 c008c90:	e1500003 	cmp	r0, r3
 c008c94:	e92d4070 	push	{r4, r5, r6, lr}
 c008c98:	e1a05000 	mov	r5, r0
 c008c9c:	0a00002e 	beq	c008d5c <_reclaim_reent+0xd4>
 c008ca0:	e590304c 	ldr	r3, [r0, #76]	; 0x4c
 c008ca4:	e3530000 	cmp	r3, #0
 c008ca8:	0a000013 	beq	c008cfc <_reclaim_reent+0x74>
 c008cac:	e3a02000 	mov	r2, #0
 c008cb0:	e1a06002 	mov	r6, r2
 c008cb4:	e7931102 	ldr	r1, [r3, r2, lsl #2]
 c008cb8:	e3510000 	cmp	r1, #0
 c008cbc:	1a000001 	bne	c008cc8 <_reclaim_reent+0x40>
 c008cc0:	ea000006 	b	c008ce0 <_reclaim_reent+0x58>
 c008cc4:	e1a01004 	mov	r1, r4
 c008cc8:	e5914000 	ldr	r4, [r1]
 c008ccc:	e1a00005 	mov	r0, r5
 c008cd0:	ebfffd4e 	bl	c008210 <_free_r>
 c008cd4:	e3540000 	cmp	r4, #0
 c008cd8:	1afffff9 	bne	c008cc4 <_reclaim_reent+0x3c>
 c008cdc:	e595304c 	ldr	r3, [r5, #76]	; 0x4c
 c008ce0:	e2866001 	add	r6, r6, #1
 c008ce4:	e3560020 	cmp	r6, #32
 c008ce8:	e1a02006 	mov	r2, r6
 c008cec:	1afffff0 	bne	c008cb4 <_reclaim_reent+0x2c>
 c008cf0:	e1a00005 	mov	r0, r5
 c008cf4:	e1a01003 	mov	r1, r3
 c008cf8:	ebfffd44 	bl	c008210 <_free_r>
 c008cfc:	e5951040 	ldr	r1, [r5, #64]	; 0x40
 c008d00:	e3510000 	cmp	r1, #0
 c008d04:	11a00005 	movne	r0, r5
 c008d08:	1bfffd40 	blne	c008210 <_free_r>
 c008d0c:	e5951148 	ldr	r1, [r5, #328]	; 0x148
 c008d10:	e3510000 	cmp	r1, #0
 c008d14:	0a000009 	beq	c008d40 <_reclaim_reent+0xb8>
 c008d18:	e2856f53 	add	r6, r5, #332	; 0x14c
 c008d1c:	e1510006 	cmp	r1, r6
 c008d20:	1a000001 	bne	c008d2c <_reclaim_reent+0xa4>
 c008d24:	ea000005 	b	c008d40 <_reclaim_reent+0xb8>
 c008d28:	e1a01004 	mov	r1, r4
 c008d2c:	e5914000 	ldr	r4, [r1]
 c008d30:	e1a00005 	mov	r0, r5
 c008d34:	ebfffd35 	bl	c008210 <_free_r>
 c008d38:	e1560004 	cmp	r6, r4
 c008d3c:	1afffff9 	bne	c008d28 <_reclaim_reent+0xa0>
 c008d40:	e5951054 	ldr	r1, [r5, #84]	; 0x54
 c008d44:	e3510000 	cmp	r1, #0
 c008d48:	11a00005 	movne	r0, r5
 c008d4c:	1bfffd2f 	blne	c008210 <_free_r>
 c008d50:	e5953038 	ldr	r3, [r5, #56]	; 0x38
 c008d54:	e3530000 	cmp	r3, #0
 c008d58:	1a000001 	bne	c008d64 <_reclaim_reent+0xdc>
 c008d5c:	e8bd4070 	pop	{r4, r5, r6, lr}
 c008d60:	e12fff1e 	bx	lr
 c008d64:	e1a00005 	mov	r0, r5
 c008d68:	e595c03c 	ldr	ip, [r5, #60]	; 0x3c
 c008d6c:	e1a0e00f 	mov	lr, pc
 c008d70:	e12fff1c 	bx	ip
 c008d74:	e59512e0 	ldr	r1, [r5, #736]	; 0x2e0
 c008d78:	e3510000 	cmp	r1, #0
 c008d7c:	0afffff6 	beq	c008d5c <_reclaim_reent+0xd4>
 c008d80:	e1a00005 	mov	r0, r5
 c008d84:	e8bd4070 	pop	{r4, r5, r6, lr}
 c008d88:	eaffffb3 	b	c008c5c <cleanup_glue>
 c008d8c:	0c00a568 	.word	0x0c00a568

0c008d90 <_wrapup_reent>:
 c008d90:	e92d41f0 	push	{r4, r5, r6, r7, r8, lr}
 c008d94:	e2508000 	subs	r8, r0, #0
 c008d98:	059f3064 	ldreq	r3, [pc, #100]	; c008e04 <_wrapup_reent+0x74>
 c008d9c:	05938000 	ldreq	r8, [r3]
 c008da0:	e5987148 	ldr	r7, [r8, #328]	; 0x148
 c008da4:	e3570000 	cmp	r7, #0
 c008da8:	0a00000e 	beq	c008de8 <_wrapup_reent+0x58>
 c008dac:	e5976004 	ldr	r6, [r7, #4]
 c008db0:	e3560000 	cmp	r6, #0
 c008db4:	da000008 	ble	c008ddc <_wrapup_reent+0x4c>
 c008db8:	e2865002 	add	r5, r6, #2
 c008dbc:	e0875105 	add	r5, r7, r5, lsl #2
 c008dc0:	e3a04000 	mov	r4, #0
 c008dc4:	e5353004 	ldr	r3, [r5, #-4]!
 c008dc8:	e2844001 	add	r4, r4, #1
 c008dcc:	e1a0e00f 	mov	lr, pc
 c008dd0:	e12fff13 	bx	r3
 c008dd4:	e1540006 	cmp	r4, r6
 c008dd8:	1afffff9 	bne	c008dc4 <_wrapup_reent+0x34>
 c008ddc:	e5977000 	ldr	r7, [r7]
 c008de0:	e3570000 	cmp	r7, #0
 c008de4:	1afffff0 	bne	c008dac <_wrapup_reent+0x1c>
 c008de8:	e598303c 	ldr	r3, [r8, #60]	; 0x3c
 c008dec:	e3530000 	cmp	r3, #0
 c008df0:	11a00008 	movne	r0, r8
 c008df4:	11a0e00f 	movne	lr, pc
 c008df8:	112fff13 	bxne	r3
 c008dfc:	e8bd41f0 	pop	{r4, r5, r6, r7, r8, lr}
 c008e00:	e12fff1e 	bx	lr
 c008e04:	0c00a568 	.word	0x0c00a568

0c008e08 <__aeabi_uidiv>:
 c008e08:	e2512001 	subs	r2, r1, #1
 c008e0c:	012fff1e 	bxeq	lr
 c008e10:	3a000036 	bcc	c008ef0 <__aeabi_uidiv+0xe8>
 c008e14:	e1500001 	cmp	r0, r1
 c008e18:	9a000022 	bls	c008ea8 <__aeabi_uidiv+0xa0>
 c008e1c:	e1110002 	tst	r1, r2
 c008e20:	0a000023 	beq	c008eb4 <__aeabi_uidiv+0xac>
 c008e24:	e311020e 	tst	r1, #-536870912	; 0xe0000000
 c008e28:	01a01181 	lsleq	r1, r1, #3
 c008e2c:	03a03008 	moveq	r3, #8
 c008e30:	13a03001 	movne	r3, #1
 c008e34:	e3510201 	cmp	r1, #268435456	; 0x10000000
 c008e38:	31510000 	cmpcc	r1, r0
 c008e3c:	31a01201 	lslcc	r1, r1, #4
 c008e40:	31a03203 	lslcc	r3, r3, #4
 c008e44:	3afffffa 	bcc	c008e34 <__aeabi_uidiv+0x2c>
 c008e48:	e3510102 	cmp	r1, #-2147483648	; 0x80000000
 c008e4c:	31510000 	cmpcc	r1, r0
 c008e50:	31a01081 	lslcc	r1, r1, #1
 c008e54:	31a03083 	lslcc	r3, r3, #1
 c008e58:	3afffffa 	bcc	c008e48 <__aeabi_uidiv+0x40>
 c008e5c:	e3a02000 	mov	r2, #0
 c008e60:	e1500001 	cmp	r0, r1
 c008e64:	20400001 	subcs	r0, r0, r1
 c008e68:	21822003 	orrcs	r2, r2, r3
 c008e6c:	e15000a1 	cmp	r0, r1, lsr #1
 c008e70:	204000a1 	subcs	r0, r0, r1, lsr #1
 c008e74:	218220a3 	orrcs	r2, r2, r3, lsr #1
 c008e78:	e1500121 	cmp	r0, r1, lsr #2
 c008e7c:	20400121 	subcs	r0, r0, r1, lsr #2
 c008e80:	21822123 	orrcs	r2, r2, r3, lsr #2
 c008e84:	e15001a1 	cmp	r0, r1, lsr #3
 c008e88:	204001a1 	subcs	r0, r0, r1, lsr #3
 c008e8c:	218221a3 	orrcs	r2, r2, r3, lsr #3
 c008e90:	e3500000 	cmp	r0, #0
 c008e94:	11b03223 	lsrsne	r3, r3, #4
 c008e98:	11a01221 	lsrne	r1, r1, #4
 c008e9c:	1affffef 	bne	c008e60 <__aeabi_uidiv+0x58>
 c008ea0:	e1a00002 	mov	r0, r2
 c008ea4:	e12fff1e 	bx	lr
 c008ea8:	03a00001 	moveq	r0, #1
 c008eac:	13a00000 	movne	r0, #0
 c008eb0:	e12fff1e 	bx	lr
 c008eb4:	e3510801 	cmp	r1, #65536	; 0x10000
 c008eb8:	21a01821 	lsrcs	r1, r1, #16
 c008ebc:	23a02010 	movcs	r2, #16
 c008ec0:	33a02000 	movcc	r2, #0
 c008ec4:	e3510c01 	cmp	r1, #256	; 0x100
 c008ec8:	21a01421 	lsrcs	r1, r1, #8
 c008ecc:	22822008 	addcs	r2, r2, #8
 c008ed0:	e3510010 	cmp	r1, #16
 c008ed4:	21a01221 	lsrcs	r1, r1, #4
 c008ed8:	22822004 	addcs	r2, r2, #4
 c008edc:	e3510004 	cmp	r1, #4
 c008ee0:	82822003 	addhi	r2, r2, #3
 c008ee4:	908220a1 	addls	r2, r2, r1, lsr #1
 c008ee8:	e1a00230 	lsr	r0, r0, r2
 c008eec:	e12fff1e 	bx	lr
 c008ef0:	e3500000 	cmp	r0, #0
 c008ef4:	13e00000 	mvnne	r0, #0
 c008ef8:	ea000059 	b	c009064 <__aeabi_idiv0>

0c008efc <__aeabi_uidivmod>:
 c008efc:	e3510000 	cmp	r1, #0
 c008f00:	0afffffa 	beq	c008ef0 <__aeabi_uidiv+0xe8>
 c008f04:	e92d4003 	push	{r0, r1, lr}
 c008f08:	ebffffbe 	bl	c008e08 <__aeabi_uidiv>
 c008f0c:	e8bd4006 	pop	{r1, r2, lr}
 c008f10:	e0030092 	mul	r3, r2, r0
 c008f14:	e0411003 	sub	r1, r1, r3
 c008f18:	e12fff1e 	bx	lr

0c008f1c <__aeabi_idiv>:
 c008f1c:	e3510000 	cmp	r1, #0
 c008f20:	0a000043 	beq	c009034 <.divsi3_skip_div0_test+0x110>

0c008f24 <.divsi3_skip_div0_test>:
 c008f24:	e020c001 	eor	ip, r0, r1
 c008f28:	42611000 	rsbmi	r1, r1, #0
 c008f2c:	e2512001 	subs	r2, r1, #1
 c008f30:	0a000027 	beq	c008fd4 <.divsi3_skip_div0_test+0xb0>
 c008f34:	e1b03000 	movs	r3, r0
 c008f38:	42603000 	rsbmi	r3, r0, #0
 c008f3c:	e1530001 	cmp	r3, r1
 c008f40:	9a000026 	bls	c008fe0 <.divsi3_skip_div0_test+0xbc>
 c008f44:	e1110002 	tst	r1, r2
 c008f48:	0a000028 	beq	c008ff0 <.divsi3_skip_div0_test+0xcc>
 c008f4c:	e311020e 	tst	r1, #-536870912	; 0xe0000000
 c008f50:	01a01181 	lsleq	r1, r1, #3
 c008f54:	03a02008 	moveq	r2, #8
 c008f58:	13a02001 	movne	r2, #1
 c008f5c:	e3510201 	cmp	r1, #268435456	; 0x10000000
 c008f60:	31510003 	cmpcc	r1, r3
 c008f64:	31a01201 	lslcc	r1, r1, #4
 c008f68:	31a02202 	lslcc	r2, r2, #4
 c008f6c:	3afffffa 	bcc	c008f5c <.divsi3_skip_div0_test+0x38>
 c008f70:	e3510102 	cmp	r1, #-2147483648	; 0x80000000
 c008f74:	31510003 	cmpcc	r1, r3
 c008f78:	31a01081 	lslcc	r1, r1, #1
 c008f7c:	31a02082 	lslcc	r2, r2, #1
 c008f80:	3afffffa 	bcc	c008f70 <.divsi3_skip_div0_test+0x4c>
 c008f84:	e3a00000 	mov	r0, #0
 c008f88:	e1530001 	cmp	r3, r1
 c008f8c:	20433001 	subcs	r3, r3, r1
 c008f90:	21800002 	orrcs	r0, r0, r2
 c008f94:	e15300a1 	cmp	r3, r1, lsr #1
 c008f98:	204330a1 	subcs	r3, r3, r1, lsr #1
 c008f9c:	218000a2 	orrcs	r0, r0, r2, lsr #1
 c008fa0:	e1530121 	cmp	r3, r1, lsr #2
 c008fa4:	20433121 	subcs	r3, r3, r1, lsr #2
 c008fa8:	21800122 	orrcs	r0, r0, r2, lsr #2
 c008fac:	e15301a1 	cmp	r3, r1, lsr #3
 c008fb0:	204331a1 	subcs	r3, r3, r1, lsr #3
 c008fb4:	218001a2 	orrcs	r0, r0, r2, lsr #3
 c008fb8:	e3530000 	cmp	r3, #0
 c008fbc:	11b02222 	lsrsne	r2, r2, #4
 c008fc0:	11a01221 	lsrne	r1, r1, #4
 c008fc4:	1affffef 	bne	c008f88 <.divsi3_skip_div0_test+0x64>
 c008fc8:	e35c0000 	cmp	ip, #0
 c008fcc:	42600000 	rsbmi	r0, r0, #0
 c008fd0:	e12fff1e 	bx	lr
 c008fd4:	e13c0000 	teq	ip, r0
 c008fd8:	42600000 	rsbmi	r0, r0, #0
 c008fdc:	e12fff1e 	bx	lr
 c008fe0:	33a00000 	movcc	r0, #0
 c008fe4:	01a00fcc 	asreq	r0, ip, #31
 c008fe8:	03800001 	orreq	r0, r0, #1
 c008fec:	e12fff1e 	bx	lr
 c008ff0:	e3510801 	cmp	r1, #65536	; 0x10000
 c008ff4:	21a01821 	lsrcs	r1, r1, #16
 c008ff8:	23a02010 	movcs	r2, #16
 c008ffc:	33a02000 	movcc	r2, #0
 c009000:	e3510c01 	cmp	r1, #256	; 0x100
 c009004:	21a01421 	lsrcs	r1, r1, #8
 c009008:	22822008 	addcs	r2, r2, #8
 c00900c:	e3510010 	cmp	r1, #16
 c009010:	21a01221 	lsrcs	r1, r1, #4
 c009014:	22822004 	addcs	r2, r2, #4
 c009018:	e3510004 	cmp	r1, #4
 c00901c:	82822003 	addhi	r2, r2, #3
 c009020:	908220a1 	addls	r2, r2, r1, lsr #1
 c009024:	e35c0000 	cmp	ip, #0
 c009028:	e1a00233 	lsr	r0, r3, r2
 c00902c:	42600000 	rsbmi	r0, r0, #0
 c009030:	e12fff1e 	bx	lr
 c009034:	e3500000 	cmp	r0, #0
 c009038:	c3e00102 	mvngt	r0, #-2147483648	; 0x80000000
 c00903c:	b3a00102 	movlt	r0, #-2147483648	; 0x80000000
 c009040:	ea000007 	b	c009064 <__aeabi_idiv0>

0c009044 <__aeabi_idivmod>:
 c009044:	e3510000 	cmp	r1, #0
 c009048:	0afffff9 	beq	c009034 <.divsi3_skip_div0_test+0x110>
 c00904c:	e92d4003 	push	{r0, r1, lr}
 c009050:	ebffffb3 	bl	c008f24 <.divsi3_skip_div0_test>
 c009054:	e8bd4006 	pop	{r1, r2, lr}
 c009058:	e0030092 	mul	r3, r2, r0
 c00905c:	e0411003 	sub	r1, r1, r3
 c009060:	e12fff1e 	bx	lr

0c009064 <__aeabi_idiv0>:
 c009064:	e12fff1e 	bx	lr

0c009068 <__aeabi_drsub>:
 c009068:	e2211102 	eor	r1, r1, #-2147483648	; 0x80000000
 c00906c:	ea000000 	b	c009074 <__adddf3>

0c009070 <__aeabi_dsub>:
 c009070:	e2233102 	eor	r3, r3, #-2147483648	; 0x80000000

0c009074 <__adddf3>:
 c009074:	e92d4030 	push	{r4, r5, lr}
 c009078:	e1a04081 	lsl	r4, r1, #1
 c00907c:	e1a05083 	lsl	r5, r3, #1
 c009080:	e1340005 	teq	r4, r5
 c009084:	01300002 	teqeq	r0, r2
 c009088:	1194c000 	orrsne	ip, r4, r0
 c00908c:	1195c002 	orrsne	ip, r5, r2
 c009090:	11f0cac4 	mvnsne	ip, r4, asr #21
 c009094:	11f0cac5 	mvnsne	ip, r5, asr #21
 c009098:	0a00008c 	beq	c0092d0 <__adddf3+0x25c>
 c00909c:	e1a04aa4 	lsr	r4, r4, #21
 c0090a0:	e0745aa5 	rsbs	r5, r4, r5, lsr #21
 c0090a4:	b2655000 	rsblt	r5, r5, #0
 c0090a8:	da000006 	ble	c0090c8 <__adddf3+0x54>
 c0090ac:	e0844005 	add	r4, r4, r5
 c0090b0:	e0202002 	eor	r2, r0, r2
 c0090b4:	e0213003 	eor	r3, r1, r3
 c0090b8:	e0220000 	eor	r0, r2, r0
 c0090bc:	e0231001 	eor	r1, r3, r1
 c0090c0:	e0202002 	eor	r2, r0, r2
 c0090c4:	e0213003 	eor	r3, r1, r3
 c0090c8:	e3550036 	cmp	r5, #54	; 0x36
 c0090cc:	88bd4030 	pophi	{r4, r5, lr}
 c0090d0:	812fff1e 	bxhi	lr
 c0090d4:	e3110102 	tst	r1, #-2147483648	; 0x80000000
 c0090d8:	e1a01601 	lsl	r1, r1, #12
 c0090dc:	e3a0c601 	mov	ip, #1048576	; 0x100000
 c0090e0:	e18c1621 	orr	r1, ip, r1, lsr #12
 c0090e4:	0a000001 	beq	c0090f0 <__adddf3+0x7c>
 c0090e8:	e2700000 	rsbs	r0, r0, #0
 c0090ec:	e2e11000 	rsc	r1, r1, #0
 c0090f0:	e3130102 	tst	r3, #-2147483648	; 0x80000000
 c0090f4:	e1a03603 	lsl	r3, r3, #12
 c0090f8:	e18c3623 	orr	r3, ip, r3, lsr #12
 c0090fc:	0a000001 	beq	c009108 <__adddf3+0x94>
 c009100:	e2722000 	rsbs	r2, r2, #0
 c009104:	e2e33000 	rsc	r3, r3, #0
 c009108:	e1340005 	teq	r4, r5
 c00910c:	0a000069 	beq	c0092b8 <__adddf3+0x244>
 c009110:	e2444001 	sub	r4, r4, #1
 c009114:	e275e020 	rsbs	lr, r5, #32
 c009118:	ba000005 	blt	c009134 <__adddf3+0xc0>
 c00911c:	e1a0ce12 	lsl	ip, r2, lr
 c009120:	e0900532 	adds	r0, r0, r2, lsr r5
 c009124:	e2a11000 	adc	r1, r1, #0
 c009128:	e0900e13 	adds	r0, r0, r3, lsl lr
 c00912c:	e0b11553 	adcs	r1, r1, r3, asr r5
 c009130:	ea000006 	b	c009150 <__adddf3+0xdc>
 c009134:	e2455020 	sub	r5, r5, #32
 c009138:	e28ee020 	add	lr, lr, #32
 c00913c:	e3520001 	cmp	r2, #1
 c009140:	e1a0ce13 	lsl	ip, r3, lr
 c009144:	238cc002 	orrcs	ip, ip, #2
 c009148:	e0900553 	adds	r0, r0, r3, asr r5
 c00914c:	e0b11fc3 	adcs	r1, r1, r3, asr #31
 c009150:	e2015102 	and	r5, r1, #-2147483648	; 0x80000000
 c009154:	5a000002 	bpl	c009164 <__adddf3+0xf0>
 c009158:	e27cc000 	rsbs	ip, ip, #0
 c00915c:	e2f00000 	rscs	r0, r0, #0
 c009160:	e2e11000 	rsc	r1, r1, #0
 c009164:	e3510601 	cmp	r1, #1048576	; 0x100000
 c009168:	3a00000f 	bcc	c0091ac <__adddf3+0x138>
 c00916c:	e3510602 	cmp	r1, #2097152	; 0x200000
 c009170:	3a000006 	bcc	c009190 <__adddf3+0x11c>
 c009174:	e1b010a1 	lsrs	r1, r1, #1
 c009178:	e1b00060 	rrxs	r0, r0
 c00917c:	e1a0c06c 	rrx	ip, ip
 c009180:	e2844001 	add	r4, r4, #1
 c009184:	e1a02a84 	lsl	r2, r4, #21
 c009188:	e3720501 	cmn	r2, #4194304	; 0x400000
 c00918c:	2a00006b 	bcs	c009340 <__adddf3+0x2cc>
 c009190:	e35c0102 	cmp	ip, #-2147483648	; 0x80000000
 c009194:	01b0c0a0 	lsrseq	ip, r0, #1
 c009198:	e2b00000 	adcs	r0, r0, #0
 c00919c:	e0a11a04 	adc	r1, r1, r4, lsl #20
 c0091a0:	e1811005 	orr	r1, r1, r5
 c0091a4:	e8bd4030 	pop	{r4, r5, lr}
 c0091a8:	e12fff1e 	bx	lr
 c0091ac:	e1b0c08c 	lsls	ip, ip, #1
 c0091b0:	e0b00000 	adcs	r0, r0, r0
 c0091b4:	e0a11001 	adc	r1, r1, r1
 c0091b8:	e3110601 	tst	r1, #1048576	; 0x100000
 c0091bc:	e2444001 	sub	r4, r4, #1
 c0091c0:	1afffff2 	bne	c009190 <__adddf3+0x11c>
 c0091c4:	e3310000 	teq	r1, #0
 c0091c8:	13a03014 	movne	r3, #20
 c0091cc:	03a03034 	moveq	r3, #52	; 0x34
 c0091d0:	01a01000 	moveq	r1, r0
 c0091d4:	03a00000 	moveq	r0, #0
 c0091d8:	e1a02001 	mov	r2, r1
 c0091dc:	e3520801 	cmp	r2, #65536	; 0x10000
 c0091e0:	21a02822 	lsrcs	r2, r2, #16
 c0091e4:	22433010 	subcs	r3, r3, #16
 c0091e8:	e3520c01 	cmp	r2, #256	; 0x100
 c0091ec:	21a02422 	lsrcs	r2, r2, #8
 c0091f0:	22433008 	subcs	r3, r3, #8
 c0091f4:	e3520010 	cmp	r2, #16
 c0091f8:	21a02222 	lsrcs	r2, r2, #4
 c0091fc:	22433004 	subcs	r3, r3, #4
 c009200:	e3520004 	cmp	r2, #4
 c009204:	22433002 	subcs	r3, r3, #2
 c009208:	304330a2 	subcc	r3, r3, r2, lsr #1
 c00920c:	e04331a2 	sub	r3, r3, r2, lsr #3
 c009210:	e2532020 	subs	r2, r3, #32
 c009214:	aa000007 	bge	c009238 <__adddf3+0x1c4>
 c009218:	e292200c 	adds	r2, r2, #12
 c00921c:	da000004 	ble	c009234 <__adddf3+0x1c0>
 c009220:	e282c014 	add	ip, r2, #20
 c009224:	e262200c 	rsb	r2, r2, #12
 c009228:	e1a00c11 	lsl	r0, r1, ip
 c00922c:	e1a01231 	lsr	r1, r1, r2
 c009230:	ea000004 	b	c009248 <__adddf3+0x1d4>
 c009234:	e2822014 	add	r2, r2, #20
 c009238:	d262c020 	rsble	ip, r2, #32
 c00923c:	e1a01211 	lsl	r1, r1, r2
 c009240:	d1811c30 	orrle	r1, r1, r0, lsr ip
 c009244:	d1a00210 	lslle	r0, r0, r2
 c009248:	e0544003 	subs	r4, r4, r3
 c00924c:	a0811a04 	addge	r1, r1, r4, lsl #20
 c009250:	a1811005 	orrge	r1, r1, r5
 c009254:	a8bd4030 	popge	{r4, r5, lr}
 c009258:	a12fff1e 	bxge	lr
 c00925c:	e1e04004 	mvn	r4, r4
 c009260:	e254401f 	subs	r4, r4, #31
 c009264:	aa00000f 	bge	c0092a8 <__adddf3+0x234>
 c009268:	e294400c 	adds	r4, r4, #12
 c00926c:	ca000006 	bgt	c00928c <__adddf3+0x218>
 c009270:	e2844014 	add	r4, r4, #20
 c009274:	e2642020 	rsb	r2, r4, #32
 c009278:	e1a00430 	lsr	r0, r0, r4
 c00927c:	e1800211 	orr	r0, r0, r1, lsl r2
 c009280:	e1851431 	orr	r1, r5, r1, lsr r4
 c009284:	e8bd4030 	pop	{r4, r5, lr}
 c009288:	e12fff1e 	bx	lr
 c00928c:	e264400c 	rsb	r4, r4, #12
 c009290:	e2642020 	rsb	r2, r4, #32
 c009294:	e1a00230 	lsr	r0, r0, r2
 c009298:	e1800411 	orr	r0, r0, r1, lsl r4
 c00929c:	e1a01005 	mov	r1, r5
 c0092a0:	e8bd4030 	pop	{r4, r5, lr}
 c0092a4:	e12fff1e 	bx	lr
 c0092a8:	e1a00431 	lsr	r0, r1, r4
 c0092ac:	e1a01005 	mov	r1, r5
 c0092b0:	e8bd4030 	pop	{r4, r5, lr}
 c0092b4:	e12fff1e 	bx	lr
 c0092b8:	e3340000 	teq	r4, #0
 c0092bc:	e2233601 	eor	r3, r3, #1048576	; 0x100000
 c0092c0:	02211601 	eoreq	r1, r1, #1048576	; 0x100000
 c0092c4:	02844001 	addeq	r4, r4, #1
 c0092c8:	12455001 	subne	r5, r5, #1
 c0092cc:	eaffff8f 	b	c009110 <__adddf3+0x9c>
 c0092d0:	e1f0cac4 	mvns	ip, r4, asr #21
 c0092d4:	11f0cac5 	mvnsne	ip, r5, asr #21
 c0092d8:	0a00001d 	beq	c009354 <__adddf3+0x2e0>
 c0092dc:	e1340005 	teq	r4, r5
 c0092e0:	01300002 	teqeq	r0, r2
 c0092e4:	0a000004 	beq	c0092fc <__adddf3+0x288>
 c0092e8:	e194c000 	orrs	ip, r4, r0
 c0092ec:	01a01003 	moveq	r1, r3
 c0092f0:	01a00002 	moveq	r0, r2
 c0092f4:	e8bd4030 	pop	{r4, r5, lr}
 c0092f8:	e12fff1e 	bx	lr
 c0092fc:	e1310003 	teq	r1, r3
 c009300:	13a01000 	movne	r1, #0
 c009304:	13a00000 	movne	r0, #0
 c009308:	18bd4030 	popne	{r4, r5, lr}
 c00930c:	112fff1e 	bxne	lr
 c009310:	e1b0caa4 	lsrs	ip, r4, #21
 c009314:	1a000004 	bne	c00932c <__adddf3+0x2b8>
 c009318:	e1b00080 	lsls	r0, r0, #1
 c00931c:	e0b11001 	adcs	r1, r1, r1
 c009320:	23811102 	orrcs	r1, r1, #-2147483648	; 0x80000000
 c009324:	e8bd4030 	pop	{r4, r5, lr}
 c009328:	e12fff1e 	bx	lr
 c00932c:	e2944501 	adds	r4, r4, #4194304	; 0x400000
 c009330:	32811601 	addcc	r1, r1, #1048576	; 0x100000
 c009334:	38bd4030 	popcc	{r4, r5, lr}
 c009338:	312fff1e 	bxcc	lr
 c00933c:	e2015102 	and	r5, r1, #-2147483648	; 0x80000000
 c009340:	e385147f 	orr	r1, r5, #2130706432	; 0x7f000000
 c009344:	e381160f 	orr	r1, r1, #15728640	; 0xf00000
 c009348:	e3a00000 	mov	r0, #0
 c00934c:	e8bd4030 	pop	{r4, r5, lr}
 c009350:	e12fff1e 	bx	lr
 c009354:	e1f0cac4 	mvns	ip, r4, asr #21
 c009358:	11a01003 	movne	r1, r3
 c00935c:	11a00002 	movne	r0, r2
 c009360:	01f0cac5 	mvnseq	ip, r5, asr #21
 c009364:	11a03001 	movne	r3, r1
 c009368:	11a02000 	movne	r2, r0
 c00936c:	e1904601 	orrs	r4, r0, r1, lsl #12
 c009370:	01925603 	orrseq	r5, r2, r3, lsl #12
 c009374:	01310003 	teqeq	r1, r3
 c009378:	13811702 	orrne	r1, r1, #524288	; 0x80000
 c00937c:	e8bd4030 	pop	{r4, r5, lr}
 c009380:	e12fff1e 	bx	lr

0c009384 <__aeabi_ui2d>:
 c009384:	e3300000 	teq	r0, #0
 c009388:	03a01000 	moveq	r1, #0
 c00938c:	012fff1e 	bxeq	lr
 c009390:	e92d4030 	push	{r4, r5, lr}
 c009394:	e3a04b01 	mov	r4, #1024	; 0x400
 c009398:	e2844032 	add	r4, r4, #50	; 0x32
 c00939c:	e3a05000 	mov	r5, #0
 c0093a0:	e3a01000 	mov	r1, #0
 c0093a4:	eaffff86 	b	c0091c4 <__adddf3+0x150>

0c0093a8 <__aeabi_i2d>:
 c0093a8:	e3300000 	teq	r0, #0
 c0093ac:	03a01000 	moveq	r1, #0
 c0093b0:	012fff1e 	bxeq	lr
 c0093b4:	e92d4030 	push	{r4, r5, lr}
 c0093b8:	e3a04b01 	mov	r4, #1024	; 0x400
 c0093bc:	e2844032 	add	r4, r4, #50	; 0x32
 c0093c0:	e2105102 	ands	r5, r0, #-2147483648	; 0x80000000
 c0093c4:	42600000 	rsbmi	r0, r0, #0
 c0093c8:	e3a01000 	mov	r1, #0
 c0093cc:	eaffff7c 	b	c0091c4 <__adddf3+0x150>

0c0093d0 <__aeabi_f2d>:
 c0093d0:	e1b02080 	lsls	r2, r0, #1
 c0093d4:	e1a011c2 	asr	r1, r2, #3
 c0093d8:	e1a01061 	rrx	r1, r1
 c0093dc:	e1a00e02 	lsl	r0, r2, #28
 c0093e0:	121234ff 	andsne	r3, r2, #-16777216	; 0xff000000
 c0093e4:	133304ff 	teqne	r3, #-16777216	; 0xff000000
 c0093e8:	1221130e 	eorne	r1, r1, #939524096	; 0x38000000
 c0093ec:	112fff1e 	bxne	lr
 c0093f0:	e3320000 	teq	r2, #0
 c0093f4:	133304ff 	teqne	r3, #-16777216	; 0xff000000
 c0093f8:	012fff1e 	bxeq	lr
 c0093fc:	e92d4030 	push	{r4, r5, lr}
 c009400:	e3a04d0e 	mov	r4, #896	; 0x380
 c009404:	e2015102 	and	r5, r1, #-2147483648	; 0x80000000
 c009408:	e3c11102 	bic	r1, r1, #-2147483648	; 0x80000000
 c00940c:	eaffff6c 	b	c0091c4 <__adddf3+0x150>

0c009410 <__aeabi_ul2d>:
 c009410:	e1902001 	orrs	r2, r0, r1
 c009414:	012fff1e 	bxeq	lr
 c009418:	e92d4030 	push	{r4, r5, lr}
 c00941c:	e3a05000 	mov	r5, #0
 c009420:	ea000006 	b	c009440 <__aeabi_l2d+0x1c>

0c009424 <__aeabi_l2d>:
 c009424:	e1902001 	orrs	r2, r0, r1
 c009428:	012fff1e 	bxeq	lr
 c00942c:	e92d4030 	push	{r4, r5, lr}
 c009430:	e2115102 	ands	r5, r1, #-2147483648	; 0x80000000
 c009434:	5a000001 	bpl	c009440 <__aeabi_l2d+0x1c>
 c009438:	e2700000 	rsbs	r0, r0, #0
 c00943c:	e2e11000 	rsc	r1, r1, #0
 c009440:	e3a04b01 	mov	r4, #1024	; 0x400
 c009444:	e2844032 	add	r4, r4, #50	; 0x32
 c009448:	e1b0cb21 	lsrs	ip, r1, #22
 c00944c:	0affff44 	beq	c009164 <__adddf3+0xf0>
 c009450:	e3a02003 	mov	r2, #3
 c009454:	e1b0c1ac 	lsrs	ip, ip, #3
 c009458:	12822003 	addne	r2, r2, #3
 c00945c:	e1b0c1ac 	lsrs	ip, ip, #3
 c009460:	12822003 	addne	r2, r2, #3
 c009464:	e08221ac 	add	r2, r2, ip, lsr #3
 c009468:	e2623020 	rsb	r3, r2, #32
 c00946c:	e1a0c310 	lsl	ip, r0, r3
 c009470:	e1a00230 	lsr	r0, r0, r2
 c009474:	e1800311 	orr	r0, r0, r1, lsl r3
 c009478:	e1a01231 	lsr	r1, r1, r2
 c00947c:	e0844002 	add	r4, r4, r2
 c009480:	eaffff37 	b	c009164 <__adddf3+0xf0>

0c009484 <__aeabi_dmul>:
 c009484:	e92d4070 	push	{r4, r5, r6, lr}
 c009488:	e3a0c0ff 	mov	ip, #255	; 0xff
 c00948c:	e38ccc07 	orr	ip, ip, #1792	; 0x700
 c009490:	e01c4a21 	ands	r4, ip, r1, lsr #20
 c009494:	101c5a23 	andsne	r5, ip, r3, lsr #20
 c009498:	1134000c 	teqne	r4, ip
 c00949c:	1135000c 	teqne	r5, ip
 c0094a0:	0b000075 	bleq	c00967c <__aeabi_dmul+0x1f8>
 c0094a4:	e0844005 	add	r4, r4, r5
 c0094a8:	e0216003 	eor	r6, r1, r3
 c0094ac:	e1c11a8c 	bic	r1, r1, ip, lsl #21
 c0094b0:	e1c33a8c 	bic	r3, r3, ip, lsl #21
 c0094b4:	e1905601 	orrs	r5, r0, r1, lsl #12
 c0094b8:	11925603 	orrsne	r5, r2, r3, lsl #12
 c0094bc:	e3811601 	orr	r1, r1, #1048576	; 0x100000
 c0094c0:	e3833601 	orr	r3, r3, #1048576	; 0x100000
 c0094c4:	0a00001d 	beq	c009540 <__aeabi_dmul+0xbc>
 c0094c8:	e08ec290 	umull	ip, lr, r0, r2
 c0094cc:	e3a05000 	mov	r5, #0
 c0094d0:	e0a5e291 	umlal	lr, r5, r1, r2
 c0094d4:	e2062102 	and	r2, r6, #-2147483648	; 0x80000000
 c0094d8:	e0a5e390 	umlal	lr, r5, r0, r3
 c0094dc:	e3a06000 	mov	r6, #0
 c0094e0:	e0a65391 	umlal	r5, r6, r1, r3
 c0094e4:	e33c0000 	teq	ip, #0
 c0094e8:	138ee001 	orrne	lr, lr, #1
 c0094ec:	e24440ff 	sub	r4, r4, #255	; 0xff
 c0094f0:	e3560c02 	cmp	r6, #512	; 0x200
 c0094f4:	e2c44c03 	sbc	r4, r4, #768	; 0x300
 c0094f8:	2a000002 	bcs	c009508 <__aeabi_dmul+0x84>
 c0094fc:	e1b0e08e 	lsls	lr, lr, #1
 c009500:	e0b55005 	adcs	r5, r5, r5
 c009504:	e0a66006 	adc	r6, r6, r6
 c009508:	e1821586 	orr	r1, r2, r6, lsl #11
 c00950c:	e1811aa5 	orr	r1, r1, r5, lsr #21
 c009510:	e1a00585 	lsl	r0, r5, #11
 c009514:	e1800aae 	orr	r0, r0, lr, lsr #21
 c009518:	e1a0e58e 	lsl	lr, lr, #11
 c00951c:	e254c0fd 	subs	ip, r4, #253	; 0xfd
 c009520:	835c0c07 	cmphi	ip, #1792	; 0x700
 c009524:	8a000011 	bhi	c009570 <__aeabi_dmul+0xec>
 c009528:	e35e0102 	cmp	lr, #-2147483648	; 0x80000000
 c00952c:	01b0e0a0 	lsrseq	lr, r0, #1
 c009530:	e2b00000 	adcs	r0, r0, #0
 c009534:	e0a11a04 	adc	r1, r1, r4, lsl #20
 c009538:	e8bd4070 	pop	{r4, r5, r6, lr}
 c00953c:	e12fff1e 	bx	lr
 c009540:	e2066102 	and	r6, r6, #-2147483648	; 0x80000000
 c009544:	e1861001 	orr	r1, r6, r1
 c009548:	e1800002 	orr	r0, r0, r2
 c00954c:	e0211003 	eor	r1, r1, r3
 c009550:	e05440ac 	subs	r4, r4, ip, lsr #1
 c009554:	c074500c 	rsbsgt	r5, r4, ip
 c009558:	c1811a04 	orrgt	r1, r1, r4, lsl #20
 c00955c:	c8bd4070 	popgt	{r4, r5, r6, lr}
 c009560:	c12fff1e 	bxgt	lr
 c009564:	e3811601 	orr	r1, r1, #1048576	; 0x100000
 c009568:	e3a0e000 	mov	lr, #0
 c00956c:	e2544001 	subs	r4, r4, #1
 c009570:	ca00005d 	bgt	c0096ec <__aeabi_dmul+0x268>
 c009574:	e3740036 	cmn	r4, #54	; 0x36
 c009578:	d3a00000 	movle	r0, #0
 c00957c:	d2011102 	andle	r1, r1, #-2147483648	; 0x80000000
 c009580:	d8bd4070 	pople	{r4, r5, r6, lr}
 c009584:	d12fff1e 	bxle	lr
 c009588:	e2644000 	rsb	r4, r4, #0
 c00958c:	e2544020 	subs	r4, r4, #32
 c009590:	aa00001a 	bge	c009600 <__aeabi_dmul+0x17c>
 c009594:	e294400c 	adds	r4, r4, #12
 c009598:	ca00000c 	bgt	c0095d0 <__aeabi_dmul+0x14c>
 c00959c:	e2844014 	add	r4, r4, #20
 c0095a0:	e2645020 	rsb	r5, r4, #32
 c0095a4:	e1a03510 	lsl	r3, r0, r5
 c0095a8:	e1a00430 	lsr	r0, r0, r4
 c0095ac:	e1800511 	orr	r0, r0, r1, lsl r5
 c0095b0:	e2012102 	and	r2, r1, #-2147483648	; 0x80000000
 c0095b4:	e3c11102 	bic	r1, r1, #-2147483648	; 0x80000000
 c0095b8:	e0900fa3 	adds	r0, r0, r3, lsr #31
 c0095bc:	e0a21431 	adc	r1, r2, r1, lsr r4
 c0095c0:	e19ee083 	orrs	lr, lr, r3, lsl #1
 c0095c4:	01c00fa3 	biceq	r0, r0, r3, lsr #31
 c0095c8:	e8bd4070 	pop	{r4, r5, r6, lr}
 c0095cc:	e12fff1e 	bx	lr
 c0095d0:	e264400c 	rsb	r4, r4, #12
 c0095d4:	e2645020 	rsb	r5, r4, #32
 c0095d8:	e1a03410 	lsl	r3, r0, r4
 c0095dc:	e1a00530 	lsr	r0, r0, r5
 c0095e0:	e1800411 	orr	r0, r0, r1, lsl r4
 c0095e4:	e2011102 	and	r1, r1, #-2147483648	; 0x80000000
 c0095e8:	e0900fa3 	adds	r0, r0, r3, lsr #31
 c0095ec:	e2a11000 	adc	r1, r1, #0
 c0095f0:	e19ee083 	orrs	lr, lr, r3, lsl #1
 c0095f4:	01c00fa3 	biceq	r0, r0, r3, lsr #31
 c0095f8:	e8bd4070 	pop	{r4, r5, r6, lr}
 c0095fc:	e12fff1e 	bx	lr
 c009600:	e2645020 	rsb	r5, r4, #32
 c009604:	e18ee510 	orr	lr, lr, r0, lsl r5
 c009608:	e1a03430 	lsr	r3, r0, r4
 c00960c:	e1833511 	orr	r3, r3, r1, lsl r5
 c009610:	e1a00431 	lsr	r0, r1, r4
 c009614:	e2011102 	and	r1, r1, #-2147483648	; 0x80000000
 c009618:	e1c00431 	bic	r0, r0, r1, lsr r4
 c00961c:	e0800fa3 	add	r0, r0, r3, lsr #31
 c009620:	e19ee083 	orrs	lr, lr, r3, lsl #1
 c009624:	01c00fa3 	biceq	r0, r0, r3, lsr #31
 c009628:	e8bd4070 	pop	{r4, r5, r6, lr}
 c00962c:	e12fff1e 	bx	lr
 c009630:	e3340000 	teq	r4, #0
 c009634:	1a000008 	bne	c00965c <__aeabi_dmul+0x1d8>
 c009638:	e2016102 	and	r6, r1, #-2147483648	; 0x80000000
 c00963c:	e1b00080 	lsls	r0, r0, #1
 c009640:	e0a11001 	adc	r1, r1, r1
 c009644:	e3110601 	tst	r1, #1048576	; 0x100000
 c009648:	02444001 	subeq	r4, r4, #1
 c00964c:	0afffffa 	beq	c00963c <__aeabi_dmul+0x1b8>
 c009650:	e1811006 	orr	r1, r1, r6
 c009654:	e3350000 	teq	r5, #0
 c009658:	112fff1e 	bxne	lr
 c00965c:	e2036102 	and	r6, r3, #-2147483648	; 0x80000000
 c009660:	e1b02082 	lsls	r2, r2, #1
 c009664:	e0a33003 	adc	r3, r3, r3
 c009668:	e3130601 	tst	r3, #1048576	; 0x100000
 c00966c:	02455001 	subeq	r5, r5, #1
 c009670:	0afffffa 	beq	c009660 <__aeabi_dmul+0x1dc>
 c009674:	e1833006 	orr	r3, r3, r6
 c009678:	e12fff1e 	bx	lr
 c00967c:	e134000c 	teq	r4, ip
 c009680:	e00c5a23 	and	r5, ip, r3, lsr #20
 c009684:	1135000c 	teqne	r5, ip
 c009688:	0a000007 	beq	c0096ac <__aeabi_dmul+0x228>
 c00968c:	e1906081 	orrs	r6, r0, r1, lsl #1
 c009690:	11926083 	orrsne	r6, r2, r3, lsl #1
 c009694:	1affffe5 	bne	c009630 <__aeabi_dmul+0x1ac>
 c009698:	e0211003 	eor	r1, r1, r3
 c00969c:	e2011102 	and	r1, r1, #-2147483648	; 0x80000000
 c0096a0:	e3a00000 	mov	r0, #0
 c0096a4:	e8bd4070 	pop	{r4, r5, r6, lr}
 c0096a8:	e12fff1e 	bx	lr
 c0096ac:	e1906081 	orrs	r6, r0, r1, lsl #1
 c0096b0:	01a00002 	moveq	r0, r2
 c0096b4:	01a01003 	moveq	r1, r3
 c0096b8:	11926083 	orrsne	r6, r2, r3, lsl #1
 c0096bc:	0a000010 	beq	c009704 <__aeabi_dmul+0x280>
 c0096c0:	e134000c 	teq	r4, ip
 c0096c4:	1a000001 	bne	c0096d0 <__aeabi_dmul+0x24c>
 c0096c8:	e1906601 	orrs	r6, r0, r1, lsl #12
 c0096cc:	1a00000c 	bne	c009704 <__aeabi_dmul+0x280>
 c0096d0:	e135000c 	teq	r5, ip
 c0096d4:	1a000003 	bne	c0096e8 <__aeabi_dmul+0x264>
 c0096d8:	e1926603 	orrs	r6, r2, r3, lsl #12
 c0096dc:	11a00002 	movne	r0, r2
 c0096e0:	11a01003 	movne	r1, r3
 c0096e4:	1a000006 	bne	c009704 <__aeabi_dmul+0x280>
 c0096e8:	e0211003 	eor	r1, r1, r3
 c0096ec:	e2011102 	and	r1, r1, #-2147483648	; 0x80000000
 c0096f0:	e381147f 	orr	r1, r1, #2130706432	; 0x7f000000
 c0096f4:	e381160f 	orr	r1, r1, #15728640	; 0xf00000
 c0096f8:	e3a00000 	mov	r0, #0
 c0096fc:	e8bd4070 	pop	{r4, r5, r6, lr}
 c009700:	e12fff1e 	bx	lr
 c009704:	e381147f 	orr	r1, r1, #2130706432	; 0x7f000000
 c009708:	e381173e 	orr	r1, r1, #16252928	; 0xf80000
 c00970c:	e8bd4070 	pop	{r4, r5, r6, lr}
 c009710:	e12fff1e 	bx	lr

0c009714 <__aeabi_ddiv>:
 c009714:	e92d4070 	push	{r4, r5, r6, lr}
 c009718:	e3a0c0ff 	mov	ip, #255	; 0xff
 c00971c:	e38ccc07 	orr	ip, ip, #1792	; 0x700
 c009720:	e01c4a21 	ands	r4, ip, r1, lsr #20
 c009724:	101c5a23 	andsne	r5, ip, r3, lsr #20
 c009728:	1134000c 	teqne	r4, ip
 c00972c:	1135000c 	teqne	r5, ip
 c009730:	0b00005e 	bleq	c0098b0 <__aeabi_ddiv+0x19c>
 c009734:	e0444005 	sub	r4, r4, r5
 c009738:	e021e003 	eor	lr, r1, r3
 c00973c:	e1925603 	orrs	r5, r2, r3, lsl #12
 c009740:	e1a01601 	lsl	r1, r1, #12
 c009744:	0a00004c 	beq	c00987c <__aeabi_ddiv+0x168>
 c009748:	e1a03603 	lsl	r3, r3, #12
 c00974c:	e3a05201 	mov	r5, #268435456	; 0x10000000
 c009750:	e1853223 	orr	r3, r5, r3, lsr #4
 c009754:	e1833c22 	orr	r3, r3, r2, lsr #24
 c009758:	e1a02402 	lsl	r2, r2, #8
 c00975c:	e1855221 	orr	r5, r5, r1, lsr #4
 c009760:	e1855c20 	orr	r5, r5, r0, lsr #24
 c009764:	e1a06400 	lsl	r6, r0, #8
 c009768:	e20e1102 	and	r1, lr, #-2147483648	; 0x80000000
 c00976c:	e1550003 	cmp	r5, r3
 c009770:	01560002 	cmpeq	r6, r2
 c009774:	e2a440fd 	adc	r4, r4, #253	; 0xfd
 c009778:	e2844c03 	add	r4, r4, #768	; 0x300
 c00977c:	2a000001 	bcs	c009788 <__aeabi_ddiv+0x74>
 c009780:	e1b030a3 	lsrs	r3, r3, #1
 c009784:	e1a02062 	rrx	r2, r2
 c009788:	e0566002 	subs	r6, r6, r2
 c00978c:	e0c55003 	sbc	r5, r5, r3
 c009790:	e1b030a3 	lsrs	r3, r3, #1
 c009794:	e1a02062 	rrx	r2, r2
 c009798:	e3a00601 	mov	r0, #1048576	; 0x100000
 c00979c:	e3a0c702 	mov	ip, #524288	; 0x80000
 c0097a0:	e056e002 	subs	lr, r6, r2
 c0097a4:	e0d5e003 	sbcs	lr, r5, r3
 c0097a8:	20466002 	subcs	r6, r6, r2
 c0097ac:	21a0500e 	movcs	r5, lr
 c0097b0:	2180000c 	orrcs	r0, r0, ip
 c0097b4:	e1b030a3 	lsrs	r3, r3, #1
 c0097b8:	e1a02062 	rrx	r2, r2
 c0097bc:	e056e002 	subs	lr, r6, r2
 c0097c0:	e0d5e003 	sbcs	lr, r5, r3
 c0097c4:	20466002 	subcs	r6, r6, r2
 c0097c8:	21a0500e 	movcs	r5, lr
 c0097cc:	218000ac 	orrcs	r0, r0, ip, lsr #1
 c0097d0:	e1b030a3 	lsrs	r3, r3, #1
 c0097d4:	e1a02062 	rrx	r2, r2
 c0097d8:	e056e002 	subs	lr, r6, r2
 c0097dc:	e0d5e003 	sbcs	lr, r5, r3
 c0097e0:	20466002 	subcs	r6, r6, r2
 c0097e4:	21a0500e 	movcs	r5, lr
 c0097e8:	2180012c 	orrcs	r0, r0, ip, lsr #2
 c0097ec:	e1b030a3 	lsrs	r3, r3, #1
 c0097f0:	e1a02062 	rrx	r2, r2
 c0097f4:	e056e002 	subs	lr, r6, r2
 c0097f8:	e0d5e003 	sbcs	lr, r5, r3
 c0097fc:	20466002 	subcs	r6, r6, r2
 c009800:	21a0500e 	movcs	r5, lr
 c009804:	218001ac 	orrcs	r0, r0, ip, lsr #3
 c009808:	e195e006 	orrs	lr, r5, r6
 c00980c:	0a00000d 	beq	c009848 <__aeabi_ddiv+0x134>
 c009810:	e1a05205 	lsl	r5, r5, #4
 c009814:	e1855e26 	orr	r5, r5, r6, lsr #28
 c009818:	e1a06206 	lsl	r6, r6, #4
 c00981c:	e1a03183 	lsl	r3, r3, #3
 c009820:	e1833ea2 	orr	r3, r3, r2, lsr #29
 c009824:	e1a02182 	lsl	r2, r2, #3
 c009828:	e1b0c22c 	lsrs	ip, ip, #4
 c00982c:	1affffdb 	bne	c0097a0 <__aeabi_ddiv+0x8c>
 c009830:	e3110601 	tst	r1, #1048576	; 0x100000
 c009834:	1a000006 	bne	c009854 <__aeabi_ddiv+0x140>
 c009838:	e1811000 	orr	r1, r1, r0
 c00983c:	e3a00000 	mov	r0, #0
 c009840:	e3a0c102 	mov	ip, #-2147483648	; 0x80000000
 c009844:	eaffffd5 	b	c0097a0 <__aeabi_ddiv+0x8c>
 c009848:	e3110601 	tst	r1, #1048576	; 0x100000
 c00984c:	01811000 	orreq	r1, r1, r0
 c009850:	03a00000 	moveq	r0, #0
 c009854:	e254c0fd 	subs	ip, r4, #253	; 0xfd
 c009858:	835c0c07 	cmphi	ip, #1792	; 0x700
 c00985c:	8affff43 	bhi	c009570 <__aeabi_dmul+0xec>
 c009860:	e055c003 	subs	ip, r5, r3
 c009864:	0056c002 	subseq	ip, r6, r2
 c009868:	01b0c0a0 	lsrseq	ip, r0, #1
 c00986c:	e2b00000 	adcs	r0, r0, #0
 c009870:	e0a11a04 	adc	r1, r1, r4, lsl #20
 c009874:	e8bd4070 	pop	{r4, r5, r6, lr}
 c009878:	e12fff1e 	bx	lr
 c00987c:	e20ee102 	and	lr, lr, #-2147483648	; 0x80000000
 c009880:	e18e1621 	orr	r1, lr, r1, lsr #12
 c009884:	e09440ac 	adds	r4, r4, ip, lsr #1
 c009888:	c074500c 	rsbsgt	r5, r4, ip
 c00988c:	c1811a04 	orrgt	r1, r1, r4, lsl #20
 c009890:	c8bd4070 	popgt	{r4, r5, r6, lr}
 c009894:	c12fff1e 	bxgt	lr
 c009898:	e3811601 	orr	r1, r1, #1048576	; 0x100000
 c00989c:	e3a0e000 	mov	lr, #0
 c0098a0:	e2544001 	subs	r4, r4, #1
 c0098a4:	eaffff31 	b	c009570 <__aeabi_dmul+0xec>
 c0098a8:	e185e006 	orr	lr, r5, r6
 c0098ac:	eaffff2f 	b	c009570 <__aeabi_dmul+0xec>
 c0098b0:	e00c5a23 	and	r5, ip, r3, lsr #20
 c0098b4:	e134000c 	teq	r4, ip
 c0098b8:	0135000c 	teqeq	r5, ip
 c0098bc:	0affff90 	beq	c009704 <__aeabi_dmul+0x280>
 c0098c0:	e134000c 	teq	r4, ip
 c0098c4:	1a000006 	bne	c0098e4 <__aeabi_ddiv+0x1d0>
 c0098c8:	e1904601 	orrs	r4, r0, r1, lsl #12
 c0098cc:	1affff8c 	bne	c009704 <__aeabi_dmul+0x280>
 c0098d0:	e135000c 	teq	r5, ip
 c0098d4:	1affff83 	bne	c0096e8 <__aeabi_dmul+0x264>
 c0098d8:	e1a00002 	mov	r0, r2
 c0098dc:	e1a01003 	mov	r1, r3
 c0098e0:	eaffff87 	b	c009704 <__aeabi_dmul+0x280>
 c0098e4:	e135000c 	teq	r5, ip
 c0098e8:	1a000004 	bne	c009900 <__aeabi_ddiv+0x1ec>
 c0098ec:	e1925603 	orrs	r5, r2, r3, lsl #12
 c0098f0:	0affff68 	beq	c009698 <__aeabi_dmul+0x214>
 c0098f4:	e1a00002 	mov	r0, r2
 c0098f8:	e1a01003 	mov	r1, r3
 c0098fc:	eaffff80 	b	c009704 <__aeabi_dmul+0x280>
 c009900:	e1906081 	orrs	r6, r0, r1, lsl #1
 c009904:	11926083 	orrsne	r6, r2, r3, lsl #1
 c009908:	1affff48 	bne	c009630 <__aeabi_dmul+0x1ac>
 c00990c:	e1904081 	orrs	r4, r0, r1, lsl #1
 c009910:	1affff74 	bne	c0096e8 <__aeabi_dmul+0x264>
 c009914:	e1925083 	orrs	r5, r2, r3, lsl #1
 c009918:	1affff5e 	bne	c009698 <__aeabi_dmul+0x214>
 c00991c:	eaffff78 	b	c009704 <__aeabi_dmul+0x280>

0c009920 <__gedf2>:
 c009920:	e3e0c000 	mvn	ip, #0
 c009924:	ea000002 	b	c009934 <__cmpdf2+0x4>

0c009928 <__ledf2>:
 c009928:	e3a0c001 	mov	ip, #1
 c00992c:	ea000000 	b	c009934 <__cmpdf2+0x4>

0c009930 <__cmpdf2>:
 c009930:	e3a0c001 	mov	ip, #1
 c009934:	e52dc004 	push	{ip}		; (str ip, [sp, #-4]!)
 c009938:	e1a0c081 	lsl	ip, r1, #1
 c00993c:	e1f0cacc 	mvns	ip, ip, asr #21
 c009940:	e1a0c083 	lsl	ip, r3, #1
 c009944:	11f0cacc 	mvnsne	ip, ip, asr #21
 c009948:	0a00000e 	beq	c009988 <__cmpdf2+0x58>
 c00994c:	e28dd004 	add	sp, sp, #4
 c009950:	e190c081 	orrs	ip, r0, r1, lsl #1
 c009954:	0192c083 	orrseq	ip, r2, r3, lsl #1
 c009958:	11310003 	teqne	r1, r3
 c00995c:	01300002 	teqeq	r0, r2
 c009960:	03a00000 	moveq	r0, #0
 c009964:	012fff1e 	bxeq	lr
 c009968:	e3700000 	cmn	r0, #0
 c00996c:	e1310003 	teq	r1, r3
 c009970:	51510003 	cmppl	r1, r3
 c009974:	01500002 	cmpeq	r0, r2
 c009978:	21a00fc3 	asrcs	r0, r3, #31
 c00997c:	31e00fc3 	mvncc	r0, r3, asr #31
 c009980:	e3800001 	orr	r0, r0, #1
 c009984:	e12fff1e 	bx	lr
 c009988:	e1a0c081 	lsl	ip, r1, #1
 c00998c:	e1f0cacc 	mvns	ip, ip, asr #21
 c009990:	1a000001 	bne	c00999c <__cmpdf2+0x6c>
 c009994:	e190c601 	orrs	ip, r0, r1, lsl #12
 c009998:	1a000004 	bne	c0099b0 <__cmpdf2+0x80>
 c00999c:	e1a0c083 	lsl	ip, r3, #1
 c0099a0:	e1f0cacc 	mvns	ip, ip, asr #21
 c0099a4:	1affffe8 	bne	c00994c <__cmpdf2+0x1c>
 c0099a8:	e192c603 	orrs	ip, r2, r3, lsl #12
 c0099ac:	0affffe6 	beq	c00994c <__cmpdf2+0x1c>
 c0099b0:	e49d0004 	pop	{r0}		; (ldr r0, [sp], #4)
 c0099b4:	e12fff1e 	bx	lr

0c0099b8 <__aeabi_cdrcmple>:
 c0099b8:	e1a0c000 	mov	ip, r0
 c0099bc:	e1a00002 	mov	r0, r2
 c0099c0:	e1a0200c 	mov	r2, ip
 c0099c4:	e1a0c001 	mov	ip, r1
 c0099c8:	e1a01003 	mov	r1, r3
 c0099cc:	e1a0300c 	mov	r3, ip
 c0099d0:	eaffffff 	b	c0099d4 <__aeabi_cdcmpeq>

0c0099d4 <__aeabi_cdcmpeq>:
 c0099d4:	e92d4001 	push	{r0, lr}
 c0099d8:	ebffffd4 	bl	c009930 <__cmpdf2>
 c0099dc:	e3500000 	cmp	r0, #0
 c0099e0:	43700000 	cmnmi	r0, #0
 c0099e4:	e8bd4001 	pop	{r0, lr}
 c0099e8:	e12fff1e 	bx	lr

0c0099ec <__aeabi_dcmpeq>:
 c0099ec:	e52de008 	str	lr, [sp, #-8]!
 c0099f0:	ebfffff7 	bl	c0099d4 <__aeabi_cdcmpeq>
 c0099f4:	03a00001 	moveq	r0, #1
 c0099f8:	13a00000 	movne	r0, #0
 c0099fc:	e49de008 	ldr	lr, [sp], #8
 c009a00:	e12fff1e 	bx	lr

0c009a04 <__aeabi_dcmplt>:
 c009a04:	e52de008 	str	lr, [sp, #-8]!
 c009a08:	ebfffff1 	bl	c0099d4 <__aeabi_cdcmpeq>
 c009a0c:	33a00001 	movcc	r0, #1
 c009a10:	23a00000 	movcs	r0, #0
 c009a14:	e49de008 	ldr	lr, [sp], #8
 c009a18:	e12fff1e 	bx	lr

0c009a1c <__aeabi_dcmple>:
 c009a1c:	e52de008 	str	lr, [sp, #-8]!
 c009a20:	ebffffeb 	bl	c0099d4 <__aeabi_cdcmpeq>
 c009a24:	93a00001 	movls	r0, #1
 c009a28:	83a00000 	movhi	r0, #0
 c009a2c:	e49de008 	ldr	lr, [sp], #8
 c009a30:	e12fff1e 	bx	lr

0c009a34 <__aeabi_dcmpge>:
 c009a34:	e52de008 	str	lr, [sp, #-8]!
 c009a38:	ebffffde 	bl	c0099b8 <__aeabi_cdrcmple>
 c009a3c:	93a00001 	movls	r0, #1
 c009a40:	83a00000 	movhi	r0, #0
 c009a44:	e49de008 	ldr	lr, [sp], #8
 c009a48:	e12fff1e 	bx	lr

0c009a4c <__aeabi_dcmpgt>:
 c009a4c:	e52de008 	str	lr, [sp, #-8]!
 c009a50:	ebffffd8 	bl	c0099b8 <__aeabi_cdrcmple>
 c009a54:	33a00001 	movcc	r0, #1
 c009a58:	23a00000 	movcs	r0, #0
 c009a5c:	e49de008 	ldr	lr, [sp], #8
 c009a60:	e12fff1e 	bx	lr

0c009a64 <__aeabi_d2iz>:
 c009a64:	e1a02081 	lsl	r2, r1, #1
 c009a68:	e2922602 	adds	r2, r2, #2097152	; 0x200000
 c009a6c:	2a00000c 	bcs	c009aa4 <__aeabi_d2iz+0x40>
 c009a70:	5a000009 	bpl	c009a9c <__aeabi_d2iz+0x38>
 c009a74:	e3e03e3e 	mvn	r3, #992	; 0x3e0
 c009a78:	e0532ac2 	subs	r2, r3, r2, asr #21
 c009a7c:	9a00000a 	bls	c009aac <__aeabi_d2iz+0x48>
 c009a80:	e1a03581 	lsl	r3, r1, #11
 c009a84:	e3833102 	orr	r3, r3, #-2147483648	; 0x80000000
 c009a88:	e1833aa0 	orr	r3, r3, r0, lsr #21
 c009a8c:	e3110102 	tst	r1, #-2147483648	; 0x80000000
 c009a90:	e1a00233 	lsr	r0, r3, r2
 c009a94:	12600000 	rsbne	r0, r0, #0
 c009a98:	e12fff1e 	bx	lr
 c009a9c:	e3a00000 	mov	r0, #0
 c009aa0:	e12fff1e 	bx	lr
 c009aa4:	e1900601 	orrs	r0, r0, r1, lsl #12
 c009aa8:	1a000002 	bne	c009ab8 <__aeabi_d2iz+0x54>
 c009aac:	e2110102 	ands	r0, r1, #-2147483648	; 0x80000000
 c009ab0:	03e00102 	mvneq	r0, #-2147483648	; 0x80000000
 c009ab4:	e12fff1e 	bx	lr
 c009ab8:	e3a00000 	mov	r0, #0
 c009abc:	e12fff1e 	bx	lr

0c009ac0 <__aeabi_uldivmod>:
 c009ac0:	e3530000 	cmp	r3, #0
 c009ac4:	03520000 	cmpeq	r2, #0
 c009ac8:	1a000004 	bne	c009ae0 <__aeabi_uldivmod+0x20>
 c009acc:	e3510000 	cmp	r1, #0
 c009ad0:	03500000 	cmpeq	r0, #0
 c009ad4:	13e01000 	mvnne	r1, #0
 c009ad8:	13e00000 	mvnne	r0, #0
 c009adc:	eafffd60 	b	c009064 <__aeabi_idiv0>
 c009ae0:	e24dd008 	sub	sp, sp, #8
 c009ae4:	e92d6000 	push	{sp, lr}
 c009ae8:	eb000013 	bl	c009b3c <__gnu_uldivmod_helper>
 c009aec:	e59de004 	ldr	lr, [sp, #4]
 c009af0:	e28dd008 	add	sp, sp, #8
 c009af4:	e8bd000c 	pop	{r2, r3}
 c009af8:	e12fff1e 	bx	lr

0c009afc <__gnu_ldivmod_helper>:
 c009afc:	e92d40f8 	push	{r3, r4, r5, r6, r7, lr}
 c009b00:	e1a04002 	mov	r4, r2
 c009b04:	e1a07003 	mov	r7, r3
 c009b08:	e1a05000 	mov	r5, r0
 c009b0c:	e1a06001 	mov	r6, r1
 c009b10:	eb000019 	bl	c009b7c <__divdi3>
 c009b14:	e0070790 	mul	r7, r0, r7
 c009b18:	e0832490 	umull	r2, r3, r0, r4
 c009b1c:	e0247491 	mla	r4, r1, r4, r7
 c009b20:	e0843003 	add	r3, r4, r3
 c009b24:	e0555002 	subs	r5, r5, r2
 c009b28:	e0c66003 	sbc	r6, r6, r3
 c009b2c:	e59d3018 	ldr	r3, [sp, #24]
 c009b30:	e8830060 	stm	r3, {r5, r6}
 c009b34:	e8bd40f8 	pop	{r3, r4, r5, r6, r7, lr}
 c009b38:	e12fff1e 	bx	lr

0c009b3c <__gnu_uldivmod_helper>:
 c009b3c:	e92d40f8 	push	{r3, r4, r5, r6, r7, lr}
 c009b40:	e1a04002 	mov	r4, r2
 c009b44:	e1a07003 	mov	r7, r3
 c009b48:	e1a05000 	mov	r5, r0
 c009b4c:	e1a06001 	mov	r6, r1
 c009b50:	eb000133 	bl	c00a024 <__udivdi3>
 c009b54:	e0070790 	mul	r7, r0, r7
 c009b58:	e0832490 	umull	r2, r3, r0, r4
 c009b5c:	e0247491 	mla	r4, r1, r4, r7
 c009b60:	e0843003 	add	r3, r4, r3
 c009b64:	e0555002 	subs	r5, r5, r2
 c009b68:	e0c66003 	sbc	r6, r6, r3
 c009b6c:	e59d3018 	ldr	r3, [sp, #24]
 c009b70:	e8830060 	stm	r3, {r5, r6}
 c009b74:	e8bd40f8 	pop	{r3, r4, r5, r6, r7, lr}
 c009b78:	e12fff1e 	bx	lr

0c009b7c <__divdi3>:
 c009b7c:	e92d4ff0 	push	{r4, r5, r6, r7, r8, r9, sl, fp, lr}
 c009b80:	e3510000 	cmp	r1, #0
 c009b84:	e24dd014 	sub	sp, sp, #20
 c009b88:	e1a0c003 	mov	ip, r3
 c009b8c:	a3a07000 	movge	r7, #0
 c009b90:	ba000094 	blt	c009de8 <__divdi3+0x26c>
 c009b94:	e35c0000 	cmp	ip, #0
 c009b98:	ba00008e 	blt	c009dd8 <__divdi3+0x25c>
 c009b9c:	e253a000 	subs	sl, r3, #0
 c009ba0:	e1a0b000 	mov	fp, r0
 c009ba4:	e1a08001 	mov	r8, r1
 c009ba8:	e1a09002 	mov	r9, r2
 c009bac:	e1a04002 	mov	r4, r2
 c009bb0:	e1a05000 	mov	r5, r0
 c009bb4:	e1a06001 	mov	r6, r1
 c009bb8:	1a00003e 	bne	c009cb8 <__divdi3+0x13c>
 c009bbc:	e1520001 	cmp	r2, r1
 c009bc0:	9a00004c 	bls	c009cf8 <__divdi3+0x17c>
 c009bc4:	e1a00002 	mov	r0, r2
 c009bc8:	eb000222 	bl	c00a458 <__clzsi2>
 c009bcc:	e3500000 	cmp	r0, #0
 c009bd0:	12603020 	rsbne	r3, r0, #32
 c009bd4:	11a0333b 	lsrne	r3, fp, r3
 c009bd8:	11a04019 	lslne	r4, r9, r0
 c009bdc:	11836018 	orrne	r6, r3, r8, lsl r0
 c009be0:	e1a09824 	lsr	r9, r4, #16
 c009be4:	11a0501b 	lslne	r5, fp, r0
 c009be8:	e1a01009 	mov	r1, r9
 c009bec:	e1a00006 	mov	r0, r6
 c009bf0:	ebfffc84 	bl	c008e08 <__aeabi_uidiv>
 c009bf4:	e1a01009 	mov	r1, r9
 c009bf8:	e1a0a000 	mov	sl, r0
 c009bfc:	e1a00006 	mov	r0, r6
 c009c00:	ebfffcbd 	bl	c008efc <__aeabi_uidivmod>
 c009c04:	e1a08804 	lsl	r8, r4, #16
 c009c08:	e1a08828 	lsr	r8, r8, #16
 c009c0c:	e0030a98 	mul	r3, r8, sl
 c009c10:	e1a0b825 	lsr	fp, r5, #16
 c009c14:	e18bb801 	orr	fp, fp, r1, lsl #16
 c009c18:	e153000b 	cmp	r3, fp
 c009c1c:	9a000005 	bls	c009c38 <__divdi3+0xbc>
 c009c20:	e09bb004 	adds	fp, fp, r4
 c009c24:	e24aa001 	sub	sl, sl, #1
 c009c28:	2a000002 	bcs	c009c38 <__divdi3+0xbc>
 c009c2c:	e153000b 	cmp	r3, fp
 c009c30:	824aa001 	subhi	sl, sl, #1
 c009c34:	808bb004 	addhi	fp, fp, r4
 c009c38:	e063b00b 	rsb	fp, r3, fp
 c009c3c:	e1a01009 	mov	r1, r9
 c009c40:	e1a0000b 	mov	r0, fp
 c009c44:	ebfffc6f 	bl	c008e08 <__aeabi_uidiv>
 c009c48:	e1a01009 	mov	r1, r9
 c009c4c:	e1a06000 	mov	r6, r0
 c009c50:	e1a0000b 	mov	r0, fp
 c009c54:	ebfffca8 	bl	c008efc <__aeabi_uidivmod>
 c009c58:	e0080896 	mul	r8, r6, r8
 c009c5c:	e1a00805 	lsl	r0, r5, #16
 c009c60:	e1a05820 	lsr	r5, r0, #16
 c009c64:	e1855801 	orr	r5, r5, r1, lsl #16
 c009c68:	e1580005 	cmp	r8, r5
 c009c6c:	9a000004 	bls	c009c84 <__divdi3+0x108>
 c009c70:	e0955004 	adds	r5, r5, r4
 c009c74:	e2466001 	sub	r6, r6, #1
 c009c78:	2a000001 	bcs	c009c84 <__divdi3+0x108>
 c009c7c:	e1580005 	cmp	r8, r5
 c009c80:	82466001 	subhi	r6, r6, #1
 c009c84:	e186680a 	orr	r6, r6, sl, lsl #16
 c009c88:	e3a09000 	mov	r9, #0
 c009c8c:	e3570000 	cmp	r7, #0
 c009c90:	e1a03006 	mov	r3, r6
 c009c94:	e1a04009 	mov	r4, r9
 c009c98:	0a000001 	beq	c009ca4 <__divdi3+0x128>
 c009c9c:	e2733000 	rsbs	r3, r3, #0
 c009ca0:	e2e44000 	rsc	r4, r4, #0
 c009ca4:	e1a00003 	mov	r0, r3
 c009ca8:	e1a01004 	mov	r1, r4
 c009cac:	e28dd014 	add	sp, sp, #20
 c009cb0:	e8bd4ff0 	pop	{r4, r5, r6, r7, r8, r9, sl, fp, lr}
 c009cb4:	e12fff1e 	bx	lr
 c009cb8:	e15a0001 	cmp	sl, r1
 c009cbc:	83a09000 	movhi	r9, #0
 c009cc0:	81a06009 	movhi	r6, r9
 c009cc4:	8afffff0 	bhi	c009c8c <__divdi3+0x110>
 c009cc8:	e1a00003 	mov	r0, r3
 c009ccc:	eb0001e1 	bl	c00a458 <__clzsi2>
 c009cd0:	e2504000 	subs	r4, r0, #0
 c009cd4:	1a00007a 	bne	c009ec4 <__divdi3+0x348>
 c009cd8:	e15a0008 	cmp	sl, r8
 c009cdc:	2159000b 	cmpcs	r9, fp
 c009ce0:	83a09000 	movhi	r9, #0
 c009ce4:	93a09001 	movls	r9, #1
 c009ce8:	93a06001 	movls	r6, #1
 c009cec:	91a09004 	movls	r9, r4
 c009cf0:	81a06009 	movhi	r6, r9
 c009cf4:	eaffffe4 	b	c009c8c <__divdi3+0x110>
 c009cf8:	e3520000 	cmp	r2, #0
 c009cfc:	1a000003 	bne	c009d10 <__divdi3+0x194>
 c009d00:	e3a00001 	mov	r0, #1
 c009d04:	e1a01002 	mov	r1, r2
 c009d08:	ebfffc3e 	bl	c008e08 <__aeabi_uidiv>
 c009d0c:	e1a04000 	mov	r4, r0
 c009d10:	e1a00004 	mov	r0, r4
 c009d14:	eb0001cf 	bl	c00a458 <__clzsi2>
 c009d18:	e2503000 	subs	r3, r0, #0
 c009d1c:	1a000035 	bne	c009df8 <__divdi3+0x27c>
 c009d20:	e3a01001 	mov	r1, #1
 c009d24:	e1a09804 	lsl	r9, r4, #16
 c009d28:	e58d1008 	str	r1, [sp, #8]
 c009d2c:	e0646006 	rsb	r6, r4, r6
 c009d30:	e1a08824 	lsr	r8, r4, #16
 c009d34:	e1a09829 	lsr	r9, r9, #16
 c009d38:	e1a01008 	mov	r1, r8
 c009d3c:	e1a00006 	mov	r0, r6
 c009d40:	ebfffc30 	bl	c008e08 <__aeabi_uidiv>
 c009d44:	e1a01008 	mov	r1, r8
 c009d48:	e1a0a000 	mov	sl, r0
 c009d4c:	e1a00006 	mov	r0, r6
 c009d50:	ebfffc69 	bl	c008efc <__aeabi_uidivmod>
 c009d54:	e0030a99 	mul	r3, r9, sl
 c009d58:	e1a0c825 	lsr	ip, r5, #16
 c009d5c:	e18cb801 	orr	fp, ip, r1, lsl #16
 c009d60:	e153000b 	cmp	r3, fp
 c009d64:	9a000005 	bls	c009d80 <__divdi3+0x204>
 c009d68:	e09bb004 	adds	fp, fp, r4
 c009d6c:	e24aa001 	sub	sl, sl, #1
 c009d70:	2a000002 	bcs	c009d80 <__divdi3+0x204>
 c009d74:	e153000b 	cmp	r3, fp
 c009d78:	824aa001 	subhi	sl, sl, #1
 c009d7c:	808bb004 	addhi	fp, fp, r4
 c009d80:	e063b00b 	rsb	fp, r3, fp
 c009d84:	e1a01008 	mov	r1, r8
 c009d88:	e1a0000b 	mov	r0, fp
 c009d8c:	ebfffc1d 	bl	c008e08 <__aeabi_uidiv>
 c009d90:	e1a01008 	mov	r1, r8
 c009d94:	e1a06000 	mov	r6, r0
 c009d98:	e1a0000b 	mov	r0, fp
 c009d9c:	ebfffc56 	bl	c008efc <__aeabi_uidivmod>
 c009da0:	e0090996 	mul	r9, r6, r9
 c009da4:	e1a00805 	lsl	r0, r5, #16
 c009da8:	e1a05820 	lsr	r5, r0, #16
 c009dac:	e1855801 	orr	r5, r5, r1, lsl #16
 c009db0:	e1590005 	cmp	r9, r5
 c009db4:	9a000004 	bls	c009dcc <__divdi3+0x250>
 c009db8:	e0955004 	adds	r5, r5, r4
 c009dbc:	e2466001 	sub	r6, r6, #1
 c009dc0:	2a000001 	bcs	c009dcc <__divdi3+0x250>
 c009dc4:	e1590005 	cmp	r9, r5
 c009dc8:	82466001 	subhi	r6, r6, #1
 c009dcc:	e186680a 	orr	r6, r6, sl, lsl #16
 c009dd0:	e59d9008 	ldr	r9, [sp, #8]
 c009dd4:	eaffffac 	b	c009c8c <__divdi3+0x110>
 c009dd8:	e1e07007 	mvn	r7, r7
 c009ddc:	e2722000 	rsbs	r2, r2, #0
 c009de0:	e2e33000 	rsc	r3, r3, #0
 c009de4:	eaffff6c 	b	c009b9c <__divdi3+0x20>
 c009de8:	e2700000 	rsbs	r0, r0, #0
 c009dec:	e2e11000 	rsc	r1, r1, #0
 c009df0:	e3e07000 	mvn	r7, #0
 c009df4:	eaffff66 	b	c009b94 <__divdi3+0x18>
 c009df8:	e2638020 	rsb	r8, r3, #32
 c009dfc:	e1a0b835 	lsr	fp, r5, r8
 c009e00:	e1a04314 	lsl	r4, r4, r3
 c009e04:	e1a0a836 	lsr	sl, r6, r8
 c009e08:	e18be316 	orr	lr, fp, r6, lsl r3
 c009e0c:	e1a08824 	lsr	r8, r4, #16
 c009e10:	e1a0c804 	lsl	ip, r4, #16
 c009e14:	e1a01008 	mov	r1, r8
 c009e18:	e1a0000a 	mov	r0, sl
 c009e1c:	e1a0982c 	lsr	r9, ip, #16
 c009e20:	e1a05315 	lsl	r5, r5, r3
 c009e24:	e58de008 	str	lr, [sp, #8]
 c009e28:	ebfffbf6 	bl	c008e08 <__aeabi_uidiv>
 c009e2c:	e1a01008 	mov	r1, r8
 c009e30:	e1a0b000 	mov	fp, r0
 c009e34:	e1a0000a 	mov	r0, sl
 c009e38:	ebfffc2f 	bl	c008efc <__aeabi_uidivmod>
 c009e3c:	e0030b99 	mul	r3, r9, fp
 c009e40:	e59d2008 	ldr	r2, [sp, #8]
 c009e44:	e1a06822 	lsr	r6, r2, #16
 c009e48:	e1866801 	orr	r6, r6, r1, lsl #16
 c009e4c:	e1530006 	cmp	r3, r6
 c009e50:	9a000002 	bls	c009e60 <__divdi3+0x2e4>
 c009e54:	e0966004 	adds	r6, r6, r4
 c009e58:	e24bb001 	sub	fp, fp, #1
 c009e5c:	3a00006c 	bcc	c00a014 <__divdi3+0x498>
 c009e60:	e0636006 	rsb	r6, r3, r6
 c009e64:	e1a01008 	mov	r1, r8
 c009e68:	e1a00006 	mov	r0, r6
 c009e6c:	ebfffbe5 	bl	c008e08 <__aeabi_uidiv>
 c009e70:	e1a01008 	mov	r1, r8
 c009e74:	e1a0a000 	mov	sl, r0
 c009e78:	e1a00006 	mov	r0, r6
 c009e7c:	ebfffc1e 	bl	c008efc <__aeabi_uidivmod>
 c009e80:	e0030a99 	mul	r3, r9, sl
 c009e84:	e59d2008 	ldr	r2, [sp, #8]
 c009e88:	e1a06802 	lsl	r6, r2, #16
 c009e8c:	e1a00826 	lsr	r0, r6, #16
 c009e90:	e1806801 	orr	r6, r0, r1, lsl #16
 c009e94:	e1530006 	cmp	r3, r6
 c009e98:	9a000005 	bls	c009eb4 <__divdi3+0x338>
 c009e9c:	e0966004 	adds	r6, r6, r4
 c009ea0:	e24aa001 	sub	sl, sl, #1
 c009ea4:	2a000002 	bcs	c009eb4 <__divdi3+0x338>
 c009ea8:	e1530006 	cmp	r3, r6
 c009eac:	824aa001 	subhi	sl, sl, #1
 c009eb0:	80866004 	addhi	r6, r6, r4
 c009eb4:	e0636006 	rsb	r6, r3, r6
 c009eb8:	e18a380b 	orr	r3, sl, fp, lsl #16
 c009ebc:	e58d3008 	str	r3, [sp, #8]
 c009ec0:	eaffff9c 	b	c009d38 <__divdi3+0x1bc>
 c009ec4:	e2641020 	rsb	r1, r4, #32
 c009ec8:	e1a00139 	lsr	r0, r9, r1
 c009ecc:	e1a0213b 	lsr	r2, fp, r1
 c009ed0:	e180a41a 	orr	sl, r0, sl, lsl r4
 c009ed4:	e1a06138 	lsr	r6, r8, r1
 c009ed8:	e1828418 	orr	r8, r2, r8, lsl r4
 c009edc:	e1a0380a 	lsl	r3, sl, #16
 c009ee0:	e1a0b82a 	lsr	fp, sl, #16
 c009ee4:	e1a0e823 	lsr	lr, r3, #16
 c009ee8:	e1a0100b 	mov	r1, fp
 c009eec:	e1a00006 	mov	r0, r6
 c009ef0:	e58d8008 	str	r8, [sp, #8]
 c009ef4:	e58de00c 	str	lr, [sp, #12]
 c009ef8:	ebfffbc2 	bl	c008e08 <__aeabi_uidiv>
 c009efc:	e1a0100b 	mov	r1, fp
 c009f00:	e1a08000 	mov	r8, r0
 c009f04:	e1a00006 	mov	r0, r6
 c009f08:	ebfffbfb 	bl	c008efc <__aeabi_uidivmod>
 c009f0c:	e59dc00c 	ldr	ip, [sp, #12]
 c009f10:	e002089c 	mul	r2, ip, r8
 c009f14:	e59d3008 	ldr	r3, [sp, #8]
 c009f18:	e1a06823 	lsr	r6, r3, #16
 c009f1c:	e1861801 	orr	r1, r6, r1, lsl #16
 c009f20:	e1520001 	cmp	r2, r1
 c009f24:	e1a03419 	lsl	r3, r9, r4
 c009f28:	9a000002 	bls	c009f38 <__divdi3+0x3bc>
 c009f2c:	e091100a 	adds	r1, r1, sl
 c009f30:	e2488001 	sub	r8, r8, #1
 c009f34:	3a000032 	bcc	c00a004 <__divdi3+0x488>
 c009f38:	e0629001 	rsb	r9, r2, r1
 c009f3c:	e1a00009 	mov	r0, r9
 c009f40:	e1a0100b 	mov	r1, fp
 c009f44:	e58d3004 	str	r3, [sp, #4]
 c009f48:	ebfffbae 	bl	c008e08 <__aeabi_uidiv>
 c009f4c:	e1a0100b 	mov	r1, fp
 c009f50:	e1a06000 	mov	r6, r0
 c009f54:	e1a00009 	mov	r0, r9
 c009f58:	ebfffbe7 	bl	c008efc <__aeabi_uidivmod>
 c009f5c:	e59d000c 	ldr	r0, [sp, #12]
 c009f60:	e0020690 	mul	r2, r0, r6
 c009f64:	e59d3008 	ldr	r3, [sp, #8]
 c009f68:	e1a0c803 	lsl	ip, r3, #16
 c009f6c:	e1a0982c 	lsr	r9, ip, #16
 c009f70:	e1890801 	orr	r0, r9, r1, lsl #16
 c009f74:	e1520000 	cmp	r2, r0
 c009f78:	e59d3004 	ldr	r3, [sp, #4]
 c009f7c:	9a000002 	bls	c009f8c <__divdi3+0x410>
 c009f80:	e090000a 	adds	r0, r0, sl
 c009f84:	e2466001 	sub	r6, r6, #1
 c009f88:	3a000019 	bcc	c009ff4 <__divdi3+0x478>
 c009f8c:	e062e000 	rsb	lr, r2, r0
 c009f90:	e1866808 	orr	r6, r6, r8, lsl #16
 c009f94:	e1a02826 	lsr	r2, r6, #16
 c009f98:	e1a01823 	lsr	r1, r3, #16
 c009f9c:	e1c6c802 	bic	ip, r6, r2, lsl #16
 c009fa0:	e1c39801 	bic	r9, r3, r1, lsl #16
 c009fa4:	e003099c 	mul	r3, ip, r9
 c009fa8:	e0090992 	mul	r9, r2, r9
 c009fac:	e00c0c91 	mul	ip, r1, ip
 c009fb0:	e0010192 	mul	r1, r2, r1
 c009fb4:	e099c00c 	adds	ip, r9, ip
 c009fb8:	22811801 	addcs	r1, r1, #65536	; 0x10000
 c009fbc:	e093380c 	adds	r3, r3, ip, lsl #16
 c009fc0:	e0a1182c 	adc	r1, r1, ip, lsr #16
 c009fc4:	e15e0001 	cmp	lr, r1
 c009fc8:	3a000006 	bcc	c009fe8 <__divdi3+0x46c>
 c009fcc:	13a02000 	movne	r2, #0
 c009fd0:	03a02001 	moveq	r2, #1
 c009fd4:	e1530415 	cmp	r3, r5, lsl r4
 c009fd8:	93a09000 	movls	r9, #0
 c009fdc:	82029001 	andhi	r9, r2, #1
 c009fe0:	e3590000 	cmp	r9, #0
 c009fe4:	0affff28 	beq	c009c8c <__divdi3+0x110>
 c009fe8:	e2466001 	sub	r6, r6, #1
 c009fec:	e3a09000 	mov	r9, #0
 c009ff0:	eaffff25 	b	c009c8c <__divdi3+0x110>
 c009ff4:	e1520000 	cmp	r2, r0
 c009ff8:	82466001 	subhi	r6, r6, #1
 c009ffc:	8080000a 	addhi	r0, r0, sl
 c00a000:	eaffffe1 	b	c009f8c <__divdi3+0x410>
 c00a004:	e1520001 	cmp	r2, r1
 c00a008:	82488001 	subhi	r8, r8, #1
 c00a00c:	8081100a 	addhi	r1, r1, sl
 c00a010:	eaffffc8 	b	c009f38 <__divdi3+0x3bc>
 c00a014:	e1530006 	cmp	r3, r6
 c00a018:	824bb001 	subhi	fp, fp, #1
 c00a01c:	80866004 	addhi	r6, r6, r4
 c00a020:	eaffff8e 	b	c009e60 <__divdi3+0x2e4>

0c00a024 <__udivdi3>:
 c00a024:	e92d4ff0 	push	{r4, r5, r6, r7, r8, r9, sl, fp, lr}
 c00a028:	e2538000 	subs	r8, r3, #0
 c00a02c:	e24dd00c 	sub	sp, sp, #12
 c00a030:	e1a05000 	mov	r5, r0
 c00a034:	e1a04001 	mov	r4, r1
 c00a038:	e1a06002 	mov	r6, r2
 c00a03c:	e1a0a002 	mov	sl, r2
 c00a040:	e1a0b000 	mov	fp, r0
 c00a044:	e1a07001 	mov	r7, r1
 c00a048:	1a000037 	bne	c00a12c <__udivdi3+0x108>
 c00a04c:	e1520001 	cmp	r2, r1
 c00a050:	9a000045 	bls	c00a16c <__udivdi3+0x148>
 c00a054:	e1a00002 	mov	r0, r2
 c00a058:	eb0000fe 	bl	c00a458 <__clzsi2>
 c00a05c:	e3500000 	cmp	r0, #0
 c00a060:	12603020 	rsbne	r3, r0, #32
 c00a064:	11a03335 	lsrne	r3, r5, r3
 c00a068:	11a0a016 	lslne	sl, r6, r0
 c00a06c:	11837014 	orrne	r7, r3, r4, lsl r0
 c00a070:	e1a0482a 	lsr	r4, sl, #16
 c00a074:	11a0b015 	lslne	fp, r5, r0
 c00a078:	e1a01004 	mov	r1, r4
 c00a07c:	e1a00007 	mov	r0, r7
 c00a080:	ebfffb60 	bl	c008e08 <__aeabi_uidiv>
 c00a084:	e1a01004 	mov	r1, r4
 c00a088:	e1a08000 	mov	r8, r0
 c00a08c:	e1a00007 	mov	r0, r7
 c00a090:	ebfffb99 	bl	c008efc <__aeabi_uidivmod>
 c00a094:	e1a0680a 	lsl	r6, sl, #16
 c00a098:	e1a06826 	lsr	r6, r6, #16
 c00a09c:	e0030896 	mul	r3, r6, r8
 c00a0a0:	e1a0782b 	lsr	r7, fp, #16
 c00a0a4:	e1877801 	orr	r7, r7, r1, lsl #16
 c00a0a8:	e1530007 	cmp	r3, r7
 c00a0ac:	9a000005 	bls	c00a0c8 <__udivdi3+0xa4>
 c00a0b0:	e097700a 	adds	r7, r7, sl
 c00a0b4:	e2488001 	sub	r8, r8, #1
 c00a0b8:	2a000002 	bcs	c00a0c8 <__udivdi3+0xa4>
 c00a0bc:	e1530007 	cmp	r3, r7
 c00a0c0:	82488001 	subhi	r8, r8, #1
 c00a0c4:	8087700a 	addhi	r7, r7, sl
 c00a0c8:	e0637007 	rsb	r7, r3, r7
 c00a0cc:	e1a01004 	mov	r1, r4
 c00a0d0:	e1a00007 	mov	r0, r7
 c00a0d4:	ebfffb4b 	bl	c008e08 <__aeabi_uidiv>
 c00a0d8:	e1a01004 	mov	r1, r4
 c00a0dc:	e1a05000 	mov	r5, r0
 c00a0e0:	e1a00007 	mov	r0, r7
 c00a0e4:	ebfffb84 	bl	c008efc <__aeabi_uidivmod>
 c00a0e8:	e0060695 	mul	r6, r5, r6
 c00a0ec:	e1a0080b 	lsl	r0, fp, #16
 c00a0f0:	e1a0b820 	lsr	fp, r0, #16
 c00a0f4:	e18bb801 	orr	fp, fp, r1, lsl #16
 c00a0f8:	e156000b 	cmp	r6, fp
 c00a0fc:	9a000004 	bls	c00a114 <__udivdi3+0xf0>
 c00a100:	e09bb00a 	adds	fp, fp, sl
 c00a104:	e2455001 	sub	r5, r5, #1
 c00a108:	2a000001 	bcs	c00a114 <__udivdi3+0xf0>
 c00a10c:	e156000b 	cmp	r6, fp
 c00a110:	82455001 	subhi	r5, r5, #1
 c00a114:	e1858808 	orr	r8, r5, r8, lsl #16
 c00a118:	e3a01000 	mov	r1, #0
 c00a11c:	e1a00008 	mov	r0, r8
 c00a120:	e28dd00c 	add	sp, sp, #12
 c00a124:	e8bd4ff0 	pop	{r4, r5, r6, r7, r8, r9, sl, fp, lr}
 c00a128:	e12fff1e 	bx	lr
 c00a12c:	e1580001 	cmp	r8, r1
 c00a130:	83a01000 	movhi	r1, #0
 c00a134:	81a08001 	movhi	r8, r1
 c00a138:	8afffff7 	bhi	c00a11c <__udivdi3+0xf8>
 c00a13c:	e1a00008 	mov	r0, r8
 c00a140:	eb0000c4 	bl	c00a458 <__clzsi2>
 c00a144:	e2507000 	subs	r7, r0, #0
 c00a148:	1a00003e 	bne	c00a248 <__udivdi3+0x224>
 c00a14c:	e1580004 	cmp	r8, r4
 c00a150:	21560005 	cmpcs	r6, r5
 c00a154:	83a01000 	movhi	r1, #0
 c00a158:	93a01001 	movls	r1, #1
 c00a15c:	93a08001 	movls	r8, #1
 c00a160:	91a01007 	movls	r1, r7
 c00a164:	81a08001 	movhi	r8, r1
 c00a168:	eaffffeb 	b	c00a11c <__udivdi3+0xf8>
 c00a16c:	e3520000 	cmp	r2, #0
 c00a170:	1a000003 	bne	c00a184 <__udivdi3+0x160>
 c00a174:	e3a00001 	mov	r0, #1
 c00a178:	e1a01002 	mov	r1, r2
 c00a17c:	ebfffb21 	bl	c008e08 <__aeabi_uidiv>
 c00a180:	e1a0a000 	mov	sl, r0
 c00a184:	e1a0000a 	mov	r0, sl
 c00a188:	eb0000b2 	bl	c00a458 <__clzsi2>
 c00a18c:	e2503000 	subs	r3, r0, #0
 c00a190:	1a000075 	bne	c00a36c <__udivdi3+0x348>
 c00a194:	e1a0180a 	lsl	r1, sl, #16
 c00a198:	e06a4004 	rsb	r4, sl, r4
 c00a19c:	e1a0982a 	lsr	r9, sl, #16
 c00a1a0:	e1a06821 	lsr	r6, r1, #16
 c00a1a4:	e3a07001 	mov	r7, #1
 c00a1a8:	e1a01009 	mov	r1, r9
 c00a1ac:	e1a00004 	mov	r0, r4
 c00a1b0:	ebfffb14 	bl	c008e08 <__aeabi_uidiv>
 c00a1b4:	e1a01009 	mov	r1, r9
 c00a1b8:	e1a05000 	mov	r5, r0
 c00a1bc:	e1a00004 	mov	r0, r4
 c00a1c0:	ebfffb4d 	bl	c008efc <__aeabi_uidivmod>
 c00a1c4:	e0030596 	mul	r3, r6, r5
 c00a1c8:	e1a0282b 	lsr	r2, fp, #16
 c00a1cc:	e1824801 	orr	r4, r2, r1, lsl #16
 c00a1d0:	e1530004 	cmp	r3, r4
 c00a1d4:	9a000005 	bls	c00a1f0 <__udivdi3+0x1cc>
 c00a1d8:	e094400a 	adds	r4, r4, sl
 c00a1dc:	e2455001 	sub	r5, r5, #1
 c00a1e0:	2a000002 	bcs	c00a1f0 <__udivdi3+0x1cc>
 c00a1e4:	e1530004 	cmp	r3, r4
 c00a1e8:	82455001 	subhi	r5, r5, #1
 c00a1ec:	8084400a 	addhi	r4, r4, sl
 c00a1f0:	e0634004 	rsb	r4, r3, r4
 c00a1f4:	e1a01009 	mov	r1, r9
 c00a1f8:	e1a00004 	mov	r0, r4
 c00a1fc:	ebfffb01 	bl	c008e08 <__aeabi_uidiv>
 c00a200:	e1a01009 	mov	r1, r9
 c00a204:	e1a08000 	mov	r8, r0
 c00a208:	e1a00004 	mov	r0, r4
 c00a20c:	ebfffb3a 	bl	c008efc <__aeabi_uidivmod>
 c00a210:	e0060698 	mul	r6, r8, r6
 c00a214:	e1a0b80b 	lsl	fp, fp, #16
 c00a218:	e1a0382b 	lsr	r3, fp, #16
 c00a21c:	e183b801 	orr	fp, r3, r1, lsl #16
 c00a220:	e156000b 	cmp	r6, fp
 c00a224:	9a000004 	bls	c00a23c <__udivdi3+0x218>
 c00a228:	e09bb00a 	adds	fp, fp, sl
 c00a22c:	e2488001 	sub	r8, r8, #1
 c00a230:	2a000001 	bcs	c00a23c <__udivdi3+0x218>
 c00a234:	e156000b 	cmp	r6, fp
 c00a238:	82488001 	subhi	r8, r8, #1
 c00a23c:	e1888805 	orr	r8, r8, r5, lsl #16
 c00a240:	e1a01007 	mov	r1, r7
 c00a244:	eaffffb4 	b	c00a11c <__udivdi3+0xf8>
 c00a248:	e267a020 	rsb	sl, r7, #32
 c00a24c:	e1a01a36 	lsr	r1, r6, sl
 c00a250:	e1a02a35 	lsr	r2, r5, sl
 c00a254:	e1818718 	orr	r8, r1, r8, lsl r7
 c00a258:	e1a0ba34 	lsr	fp, r4, sl
 c00a25c:	e1829714 	orr	r9, r2, r4, lsl r7
 c00a260:	e1a0a828 	lsr	sl, r8, #16
 c00a264:	e1a0e808 	lsl	lr, r8, #16
 c00a268:	e1a0100a 	mov	r1, sl
 c00a26c:	e1a0000b 	mov	r0, fp
 c00a270:	e1a0482e 	lsr	r4, lr, #16
 c00a274:	e58d9004 	str	r9, [sp, #4]
 c00a278:	ebfffae2 	bl	c008e08 <__aeabi_uidiv>
 c00a27c:	e1a0100a 	mov	r1, sl
 c00a280:	e1a09000 	mov	r9, r0
 c00a284:	e1a0000b 	mov	r0, fp
 c00a288:	ebfffb1b 	bl	c008efc <__aeabi_uidivmod>
 c00a28c:	e0020994 	mul	r2, r4, r9
 c00a290:	e59d0004 	ldr	r0, [sp, #4]
 c00a294:	e1a0c820 	lsr	ip, r0, #16
 c00a298:	e18cb801 	orr	fp, ip, r1, lsl #16
 c00a29c:	e152000b 	cmp	r2, fp
 c00a2a0:	e1a03716 	lsl	r3, r6, r7
 c00a2a4:	9a000002 	bls	c00a2b4 <__udivdi3+0x290>
 c00a2a8:	e09bb008 	adds	fp, fp, r8
 c00a2ac:	e2499001 	sub	r9, r9, #1
 c00a2b0:	3a000060 	bcc	c00a438 <__udivdi3+0x414>
 c00a2b4:	e062b00b 	rsb	fp, r2, fp
 c00a2b8:	e1a0100a 	mov	r1, sl
 c00a2bc:	e1a0000b 	mov	r0, fp
 c00a2c0:	e58d3000 	str	r3, [sp]
 c00a2c4:	ebfffacf 	bl	c008e08 <__aeabi_uidiv>
 c00a2c8:	e1a0100a 	mov	r1, sl
 c00a2cc:	e1a06000 	mov	r6, r0
 c00a2d0:	e1a0000b 	mov	r0, fp
 c00a2d4:	ebfffb08 	bl	c008efc <__aeabi_uidivmod>
 c00a2d8:	e0040496 	mul	r4, r6, r4
 c00a2dc:	e59d0004 	ldr	r0, [sp, #4]
 c00a2e0:	e1a0c800 	lsl	ip, r0, #16
 c00a2e4:	e1a0382c 	lsr	r3, ip, #16
 c00a2e8:	e1832801 	orr	r2, r3, r1, lsl #16
 c00a2ec:	e1540002 	cmp	r4, r2
 c00a2f0:	e59d3000 	ldr	r3, [sp]
 c00a2f4:	9a000002 	bls	c00a304 <__udivdi3+0x2e0>
 c00a2f8:	e0922008 	adds	r2, r2, r8
 c00a2fc:	e2466001 	sub	r6, r6, #1
 c00a300:	3a000048 	bcc	c00a428 <__udivdi3+0x404>
 c00a304:	e0644002 	rsb	r4, r4, r2
 c00a308:	e1868809 	orr	r8, r6, r9, lsl #16
 c00a30c:	e1a02828 	lsr	r2, r8, #16
 c00a310:	e1a0e823 	lsr	lr, r3, #16
 c00a314:	e1c80802 	bic	r0, r8, r2, lsl #16
 c00a318:	e1c3680e 	bic	r6, r3, lr, lsl #16
 c00a31c:	e0030690 	mul	r3, r0, r6
 c00a320:	e0060692 	mul	r6, r2, r6
 c00a324:	e000009e 	mul	r0, lr, r0
 c00a328:	e00e0e92 	mul	lr, r2, lr
 c00a32c:	e0960000 	adds	r0, r6, r0
 c00a330:	228ee801 	addcs	lr, lr, #65536	; 0x10000
 c00a334:	e0933800 	adds	r3, r3, r0, lsl #16
 c00a338:	e0aee820 	adc	lr, lr, r0, lsr #16
 c00a33c:	e154000e 	cmp	r4, lr
 c00a340:	3a000006 	bcc	c00a360 <__udivdi3+0x33c>
 c00a344:	13a02000 	movne	r2, #0
 c00a348:	03a02001 	moveq	r2, #1
 c00a34c:	e1530715 	cmp	r3, r5, lsl r7
 c00a350:	93a01000 	movls	r1, #0
 c00a354:	82021001 	andhi	r1, r2, #1
 c00a358:	e3510000 	cmp	r1, #0
 c00a35c:	0affff6e 	beq	c00a11c <__udivdi3+0xf8>
 c00a360:	e2488001 	sub	r8, r8, #1
 c00a364:	e3a01000 	mov	r1, #0
 c00a368:	eaffff6b 	b	c00a11c <__udivdi3+0xf8>
 c00a36c:	e2639020 	rsb	r9, r3, #32
 c00a370:	e1a0a31a 	lsl	sl, sl, r3
 c00a374:	e1a07934 	lsr	r7, r4, r9
 c00a378:	e1a08935 	lsr	r8, r5, r9
 c00a37c:	e1a0982a 	lsr	r9, sl, #16
 c00a380:	e1a0280a 	lsl	r2, sl, #16
 c00a384:	e1a01009 	mov	r1, r9
 c00a388:	e1a00007 	mov	r0, r7
 c00a38c:	e1888314 	orr	r8, r8, r4, lsl r3
 c00a390:	e1a0b315 	lsl	fp, r5, r3
 c00a394:	e1a06822 	lsr	r6, r2, #16
 c00a398:	ebfffa9a 	bl	c008e08 <__aeabi_uidiv>
 c00a39c:	e1a01009 	mov	r1, r9
 c00a3a0:	e1a05000 	mov	r5, r0
 c00a3a4:	e1a00007 	mov	r0, r7
 c00a3a8:	ebfffad3 	bl	c008efc <__aeabi_uidivmod>
 c00a3ac:	e0030596 	mul	r3, r6, r5
 c00a3b0:	e1a04828 	lsr	r4, r8, #16
 c00a3b4:	e1844801 	orr	r4, r4, r1, lsl #16
 c00a3b8:	e1530004 	cmp	r3, r4
 c00a3bc:	9a000002 	bls	c00a3cc <__udivdi3+0x3a8>
 c00a3c0:	e094400a 	adds	r4, r4, sl
 c00a3c4:	e2455001 	sub	r5, r5, #1
 c00a3c8:	3a00001e 	bcc	c00a448 <__udivdi3+0x424>
 c00a3cc:	e0634004 	rsb	r4, r3, r4
 c00a3d0:	e1a01009 	mov	r1, r9
 c00a3d4:	e1a00004 	mov	r0, r4
 c00a3d8:	ebfffa8a 	bl	c008e08 <__aeabi_uidiv>
 c00a3dc:	e1a01009 	mov	r1, r9
 c00a3e0:	e1a07000 	mov	r7, r0
 c00a3e4:	e1a00004 	mov	r0, r4
 c00a3e8:	ebfffac3 	bl	c008efc <__aeabi_uidivmod>
 c00a3ec:	e0030796 	mul	r3, r6, r7
 c00a3f0:	e1a00808 	lsl	r0, r8, #16
 c00a3f4:	e1a0c820 	lsr	ip, r0, #16
 c00a3f8:	e18c4801 	orr	r4, ip, r1, lsl #16
 c00a3fc:	e1530004 	cmp	r3, r4
 c00a400:	9a000005 	bls	c00a41c <__udivdi3+0x3f8>
 c00a404:	e094400a 	adds	r4, r4, sl
 c00a408:	e2477001 	sub	r7, r7, #1
 c00a40c:	2a000002 	bcs	c00a41c <__udivdi3+0x3f8>
 c00a410:	e1530004 	cmp	r3, r4
 c00a414:	82477001 	subhi	r7, r7, #1
 c00a418:	8084400a 	addhi	r4, r4, sl
 c00a41c:	e0634004 	rsb	r4, r3, r4
 c00a420:	e1877805 	orr	r7, r7, r5, lsl #16
 c00a424:	eaffff5f 	b	c00a1a8 <__udivdi3+0x184>
 c00a428:	e1540002 	cmp	r4, r2
 c00a42c:	82466001 	subhi	r6, r6, #1
 c00a430:	80822008 	addhi	r2, r2, r8
 c00a434:	eaffffb2 	b	c00a304 <__udivdi3+0x2e0>
 c00a438:	e152000b 	cmp	r2, fp
 c00a43c:	82499001 	subhi	r9, r9, #1
 c00a440:	808bb008 	addhi	fp, fp, r8
 c00a444:	eaffff9a 	b	c00a2b4 <__udivdi3+0x290>
 c00a448:	e1530004 	cmp	r3, r4
 c00a44c:	82455001 	subhi	r5, r5, #1
 c00a450:	8084400a 	addhi	r4, r4, sl
 c00a454:	eaffffdc 	b	c00a3cc <__udivdi3+0x3a8>

0c00a458 <__clzsi2>:
 c00a458:	e3a0101c 	mov	r1, #28
 c00a45c:	e3500801 	cmp	r0, #65536	; 0x10000
 c00a460:	21a00820 	lsrcs	r0, r0, #16
 c00a464:	22411010 	subcs	r1, r1, #16
 c00a468:	e3500c01 	cmp	r0, #256	; 0x100
 c00a46c:	21a00420 	lsrcs	r0, r0, #8
 c00a470:	22411008 	subcs	r1, r1, #8
 c00a474:	e3500010 	cmp	r0, #16
 c00a478:	21a00220 	lsrcs	r0, r0, #4
 c00a47c:	22411004 	subcs	r1, r1, #4
 c00a480:	e28f2008 	add	r2, pc, #8
 c00a484:	e7d20000 	ldrb	r0, [r2, r0]
 c00a488:	e0800001 	add	r0, r0, r1
 c00a48c:	e12fff1e 	bx	lr
 c00a490:	02020304 	.word	0x02020304
 c00a494:	01010101 	.word	0x01010101
	...

0c00a4a0 <_sbrk>:
 c00a4a0:	e59f201c 	ldr	r2, [pc, #28]	; c00a4c4 <_sbrk+0x24>
 c00a4a4:	e5923000 	ldr	r3, [r2]
 c00a4a8:	e59f1018 	ldr	r1, [pc, #24]	; c00a4c8 <_sbrk+0x28>
 c00a4ac:	e3530000 	cmp	r3, #0
 c00a4b0:	01a03001 	moveq	r3, r1
 c00a4b4:	e0830000 	add	r0, r3, r0
 c00a4b8:	e5820000 	str	r0, [r2]
 c00a4bc:	e1a00003 	mov	r0, r3
 c00a4c0:	e12fff1e 	bx	lr
 c00a4c4:	0c00b04c 	.word	0x0c00b04c
 c00a4c8:	0c00b160 	.word	0x0c00b160
